(dp0
F0.025
(dp1
I0
F0.618
sI1
F0.618
sI2
F0.618
sI3
F0.618
sI4
F0.618
sI5
F0.618
sI6
F0.618
sI7
F0.618
sI8
F0.618
sI9
F0.618
sI10
F0.618
sI11
F0.618
sI12
F0.618
sI13
F0.618
sI14
F0.618
sI15
F0.618
sI16
F0.618
sI17
F0.618
sI18
F0.618
sI19
F0.618
sI20
F0.618
sI21
F0.618
sI22
F0.618
sI23
F0.618
sI24
F0.618
sI25
F0.618
sI26
F0.618
sI27
F0.618
sI28
F0.618
sI29
F0.618
sI30
F0.618
sI31
F0.618
sI32
F0.618
sI33
F0.618
sI34
F0.618
sI35
F0.618
sI36
F0.618
sI37
F0.618
sI38
F0.618
sI39
F0.618
sI40
F0.618
sI41
F0.618
sI42
F0.618
sI43
F0.618
sI44
F0.618
sI45
F0.618
sI46
F0.618
sI47
F0.618
sI48
F0.618
sI49
F0.618
sI50
F0.618
sI51
F0.618
sI52
F0.618
sI53
F0.618
sI54
F0.618
sI55
F0.618
sI56
F0.618
sI57
F0.618
sI58
F0.618
sI59
F0.618
sI60
F0.618
sI61
F0.618
sI62
F0.618
sI63
F0.618
sI64
F0.618
sI65
F0.618
sI66
F0.618
sI67
F0.618
sI68
F0.618
sI69
F0.618
sI70
F0.618
sI71
F0.618
sI72
F0.618
sI73
F0.618
sI74
F0.618
sI75
F0.618
sI76
F0.618
sI77
F0.618
sI78
F0.618
sI79
F0.618
sI80
F0.618
sI81
F0.618
sI82
F0.618
sI83
F0.618
sI84
F0.618
sI85
F0.618
sI86
F0.618
sI87
F0.618
sI88
F0.618
sI89
F0.618
sI90
F0.618
sI91
F0.618
sI92
F0.618
sI93
F0.618
sI94
F0.618
sI95
F0.618
sI96
F0.618
sI97
F0.618
sI98
F0.618
sI99
F0.618
sI100
F0.618
sI101
F0.618
sI102
F0.618
sI103
F0.618
sI104
F0.618
sI105
F0.618
sI106
F0.618
sI107
F0.618
sI108
F0.618
sI109
F0.618
sI110
F0.618
sI111
F0.656
sI112
F0.656
sI113
F0.656
sI114
F0.656
sI115
F0.656
sI116
F0.656
sI117
F0.656
sI118
F0.656
sI119
F0.656
sI120
F0.656
sI121
F0.656
sI122
F0.656
sI123
F0.656
sI124
F0.656
sI125
F0.656
sI126
F0.656
sI127
F0.656
sI128
F0.656
sI129
F0.656
sI130
F0.656
sI131
F0.656
sI132
F0.656
sI133
F0.656
sI134
F0.656
sI135
F0.656
sI136
F0.656
sI137
F0.656
sI138
F0.656
sI139
F0.656
sI140
F0.656
sI141
F0.656
sI142
F0.656
sI143
F0.656
sI144
F0.656
sI145
F0.656
sI146
F0.656
sI147
F0.656
sI148
F0.656
sI149
F0.656
sI150
F0.656
sI151
F0.656
sI152
F0.656
sI153
F0.656
sI154
F0.656
sI155
F0.656
sI156
F0.656
sI157
F0.656
sI158
F0.656
sI159
F0.656
sI160
F0.656
sI161
F0.656
sI162
F0.656
sI163
F0.656
sI164
F0.656
sI165
F0.656
sI166
F0.656
sI167
F0.656
sI168
F0.656
sI169
F0.656
sI170
F0.656
sI171
F0.656
sI172
F0.656
sI173
F0.656
sI174
F0.656
sI175
F0.656
sI176
F0.656
sI177
F0.656
sI178
F0.656
sI179
F0.656
sI180
F0.656
sI181
F0.656
sI182
F0.656
sI183
F0.656
sI184
F0.656
sI185
F0.656
sI186
F0.656
sI187
F0.656
sI188
F0.656
sI189
F0.656
sI190
F0.656
sI191
F0.656
sI192
F0.656
sI193
F0.656
sI194
F0.656
sI195
F0.656
sI196
F0.656
sI197
F0.656
sI198
F0.656
sI199
F0.656
sI200
F0.656
sI201
F0.656
sI202
F0.656
sI203
F0.656
sI204
F0.656
sI205
F0.656
sI206
F0.656
sI207
F0.656
sI208
F0.656
sI209
F0.656
sI210
F0.656
sI211
F0.656
sI212
F0.656
sI213
F0.656
sI214
F0.656
sI215
F0.656
sI216
F0.656
sI217
F0.656
sI218
F0.656
sI219
F0.656
sI220
F0.656
sI221
F0.656
sI222
F0.656
sI223
F0.656
sI224
F0.656
sI225
F0.656
sI226
F0.656
sI227
F0.656
sI228
F0.656
sI229
F0.656
sI230
F0.656
sI231
F0.656
sI232
F0.656
sI233
F0.656
sI234
F0.656
sI235
F0.656
sI236
F0.656
sI237
F0.656
sI238
F0.656
sI239
F0.656
sI240
F0.656
sI241
F0.656
sI242
F0.656
sI243
F0.656
sI244
F0.656
sI245
F0.656
sI246
F0.656
sI247
F0.656
sI248
F0.656
sI249
F0.656
sI250
F0.656
sI251
F0.656
sI252
F0.656
sI253
F0.656
sI254
F0.656
sI255
F0.656
sI256
F0.656
sI257
F0.656
sI258
F0.656
sI259
F0.656
sI260
F0.656
sI261
F0.656
sI262
F0.656
sI263
F0.656
sI264
F0.656
sI265
F0.656
sI266
F0.656
sI267
F0.656
sI268
F0.656
sI269
F0.656
sI270
F0.656
sI271
F0.656
sI272
F0.656
sI273
F0.656
sI274
F0.656
sI275
F0.656
sI276
F0.656
sI277
F0.656
sI278
F0.656
sI279
F0.656
sI280
F0.656
sI281
F0.656
sI282
F0.656
sI283
F0.656
sI284
F0.656
sI285
F0.656
sI286
F0.656
sI287
F0.656
sI288
F0.656
sI289
F0.656
sI290
F0.656
sI291
F0.656
sI292
F0.656
sI293
F0.656
sI294
F0.656
sI295
F0.656
sI296
F0.656
sI297
F0.656
sI298
F0.656
sI299
F0.656
sI300
F0.656
sI301
F0.656
sI302
F0.656
sI303
F0.656
sI304
F0.656
sI305
F0.656
sI306
F0.656
sI307
F0.656
sI308
F0.656
sI309
F0.656
sI310
F0.656
sI311
F0.656
sI312
F0.656
sI313
F0.656
sI314
F0.656
sI315
F0.656
sI316
F0.656
sI317
F0.656
sI318
F0.656
sI319
F0.656
sI320
F0.656
sI321
F0.656
sI322
F0.656
sI323
F0.656
sI324
F0.656
sI325
F0.656
sI326
F0.656
sI327
F0.656
sI328
F0.656
sI329
F0.656
sI330
F0.656
sI331
F0.656
sI332
F0.656
sI333
F0.656
sI334
F0.656
sI335
F0.656
sI336
F0.656
sI337
F0.656
sI338
F0.656
sI339
F0.656
sI340
F0.656
sI341
F0.656
sI342
F0.656
sI343
F0.656
sI344
F0.656
sI345
F0.656
sI346
F0.656
sI347
F0.656
sI348
F0.656
sI349
F0.656
sI350
F0.656
sI351
F0.656
sI352
F0.656
sI353
F0.656
sI354
F0.656
sI355
F0.656
sI356
F0.656
sI357
F0.656
sI358
F0.656
sI359
F0.656
sI360
F0.656
sI361
F0.656
sI362
F0.656
sI363
F0.656
sI364
F0.656
sI365
F0.656
sI366
F0.656
sI367
F0.656
sI368
F0.656
sI369
F0.656
sI370
F0.656
sI371
F0.656
sI372
F0.656
sI373
F0.656
sI374
F0.656
sI375
F0.656
sI376
F0.656
sI377
F0.656
sI378
F0.656
sI379
F0.656
sI380
F0.656
sI381
F0.656
sI382
F0.656
sI383
F0.656
sI384
F0.656
sI385
F0.656
sI386
F0.656
sI387
F0.656
sI388
F0.656
sI389
F0.656
sI390
F0.656
sI391
F0.656
sI392
F0.656
sI393
F0.656
sI394
F0.656
sI395
F0.656
sI396
F0.656
sI397
F0.656
sI398
F0.656
sI399
F0.656
sI400
F0.656
sI401
F0.656
sI402
F0.656
sI403
F0.656
sI404
F0.656
sI405
F0.656
sI406
F0.656
sI407
F0.656
sI408
F0.656
sI409
F0.656
sI410
F0.656
sI411
F0.656
sI412
F0.656
sI413
F0.656
sI414
F0.656
sI415
F0.656
sI416
F0.656
sI417
F0.656
sI418
F0.656
sI419
F0.656
sI420
F0.656
sI421
F0.656
sI422
F0.656
sI423
F0.656
sI424
F0.656
sI425
F0.656
sI426
F0.656
sI427
F0.656
sI428
F0.656
sI429
F0.656
sI430
F0.656
sI431
F0.656
sI432
F0.656
sI433
F0.656
sI434
F0.656
sI435
F0.656
sI436
F0.656
sI437
F0.656
sI438
F0.656
sI439
F0.656
sI440
F0.656
sI441
F0.656
sI442
F0.656
sI443
F0.656
sI444
F0.656
sI445
F0.656
sI446
F0.656
sI447
F0.656
sI448
F0.656
sI449
F0.656
sI450
F0.656
sI451
F0.656
sI452
F0.656
sI453
F0.656
sI454
F0.656
sI455
F0.656
sI456
F0.656
sI457
F0.656
sI458
F0.656
sI459
F0.656
sI460
F0.656
sI461
F0.656
sI462
F0.656
sI463
F0.656
sI464
F0.656
sI465
F0.656
sI466
F0.656
sI467
F0.656
sI468
F0.656
sI469
F0.656
sI470
F0.656
sI471
F0.656
sI472
F0.656
sI473
F0.656
sI474
F0.656
sI475
F0.656
sI476
F0.656
sI477
F0.656
sI478
F0.656
sI479
F0.656
sI480
F0.656
sI481
F0.656
sI482
F0.656
sI483
F0.656
sI484
F0.656
sI485
F0.656
sI486
F0.656
sI487
F0.656
sI488
F0.656
sI489
F0.656
sI490
F0.656
sI491
F0.656
sI492
F0.656
sI493
F0.656
sI494
F0.656
sI495
F0.656
sI496
F0.656
sI497
F0.656
sI498
F0.656
sI499
F0.656
sI500
F0.656
sI501
F0.656
sI502
F0.656
sI503
F0.656
sI504
F0.656
sI505
F0.656
sI506
F0.656
sI507
F0.656
sI508
F0.656
sI509
F0.656
sI510
F0.656
sI511
F0.656
sI512
F0.656
sI513
F0.656
sI514
F0.656
sI515
F0.656
sI516
F0.656
sI517
F0.656
sI518
F0.656
sI519
F0.656
sI520
F0.656
sI521
F0.656
sI522
F0.656
sI523
F0.656
sI524
F0.656
sI525
F0.656
sI526
F0.656
sI527
F0.656
sI528
F0.656
sI529
F0.656
sI530
F0.656
sI531
F0.656
sI532
F0.656
sI533
F0.656
sI534
F0.656
sI535
F0.656
sI536
F0.656
sI537
F0.656
sI538
F0.656
sI539
F0.656
sI540
F0.656
sI541
F0.656
sI542
F0.656
sI543
F0.656
sI544
F0.656
sI545
F0.656
sI546
F0.656
sI547
F0.656
sI548
F0.656
sI549
F0.656
sI550
F0.656
sI551
F0.656
sI552
F0.656
sI553
F0.656
sI554
F0.656
sI555
F0.656
sI556
F0.656
sI557
F0.656
sI558
F0.656
sI559
F0.656
sI560
F0.656
sI561
F0.656
sI562
F0.656
sI563
F0.656
sI564
F0.656
sI565
F0.656
sI566
F0.656
sI567
F0.656
sI568
F0.656
sI569
F0.656
sI570
F0.656
sI571
F0.656
sI572
F0.656
sI573
F0.656
sI574
F0.656
sI575
F0.656
sI576
F0.656
sI577
F0.656
sI579
F0.656
sI580
F0.656
sI581
F0.656
sI582
F0.656
sI583
F0.656
sI584
F0.656
sI585
F0.656
sI586
F0.656
sI587
F0.656
sI588
F0.656
sI589
F0.656
sI590
F0.656
sI591
F0.656
sI592
F0.656
sI593
F0.656
sI594
F0.656
sI595
F0.656
sI596
F0.656
sI597
F0.656
sI598
F0.656
sI599
F0.656
sI600
F0.656
sI601
F0.656
sI602
F0.656
sI603
F0.656
sI604
F0.656
sI605
F0.656
sI606
F0.656
sI607
F0.656
sI608
F0.656
sI609
F0.656
sI610
F0.656
sI611
F0.656
sI612
F0.656
sI613
F0.656
sI614
F0.656
sI615
F0.656
sI616
F0.656
sI617
F0.656
sI618
F0.656
sI619
F0.656
sI620
F0.656
sI621
F0.656
sI622
F0.656
sI623
F0.656
sI624
F0.656
sI625
F0.656
sI626
F0.656
sI627
F0.656
sI628
F0.656
sI629
F0.656
sI630
F0.656
sI631
F0.656
sI632
F0.656
sI633
F0.656
sI634
F0.656
sI635
F0.656
sI636
F0.656
sI637
F0.656
sI638
F0.656
sI639
F0.656
sI640
F0.656
sI641
F0.656
sI642
F0.656
sI643
F0.656
sI644
F0.656
sI645
F0.656
sI646
F0.656
sI647
F0.656
sI648
F0.656
sI649
F0.656
sI650
F0.656
sI651
F0.656
sI652
F0.656
sI653
F0.656
sI654
F0.656
sI655
F0.656
sI656
F0.656
sI657
F0.656
sI658
F0.656
sI659
F0.656
sI660
F0.656
sI661
F0.656
sI662
F0.656
sI663
F0.656
sI664
F0.656
sI665
F0.656
sI666
F0.656
sI667
F0.656
sI668
F0.656
sI669
F0.656
sI670
F0.656
sI671
F0.656
sI672
F0.656
sI673
F0.656
sI674
F0.656
sI675
F0.656
sI676
F0.656
sI677
F0.656
sI678
F0.656
sI679
F0.656
sI680
F0.656
sI681
F0.656
sI682
F0.656
sI683
F0.656
sI684
F0.656
sI685
F0.656
sI686
F0.656
sI687
F0.656
sI688
F0.656
sI689
F0.656
sI690
F0.656
sI691
F0.656
sI692
F0.656
sI693
F0.656
sI694
F0.656
sI695
F0.656
sI696
F0.656
sI697
F0.656
sI698
F0.656
sI699
F0.656
sI700
F0.656
sI701
F0.656
sI702
F0.656
sI703
F0.656
sI704
F0.656
sI705
F0.656
sI706
F0.656
sI707
F0.656
sI708
F0.656
sI709
F0.656
sI710
F0.656
sI711
F0.656
sI712
F0.656
sI713
F0.656
sI714
F0.656
sI715
F0.656
sI716
F0.656
sI717
F0.656
sI718
F0.656
sI719
F0.656
sI720
F0.656
sI721
F0.656
sI722
F0.656
sI723
F0.656
sI724
F0.656
sI725
F0.656
sI726
F0.656
sI727
F0.656
sI728
F0.656
sI729
F0.656
sI730
F0.656
sI731
F0.656
sI732
F0.656
sI733
F0.656
sI734
F0.656
sI735
F0.656
sI736
F0.656
sI737
F0.656
sI738
F0.656
sI739
F0.656
sI740
F0.656
sI741
F0.656
sI742
F0.656
sI743
F0.656
sI744
F0.656
sI745
F0.656
sI746
F0.656
sI747
F0.656
sI748
F0.656
sI749
F0.656
sI750
F0.656
sI751
F0.656
sI752
F0.656
sI753
F0.656
sI754
F0.656
sI755
F0.656
sI756
F0.656
sI757
F0.656
sI758
F0.656
sI759
F0.656
sI760
F0.656
sI761
F0.656
sI762
F0.656
sI763
F0.656
sI764
F0.656
sI765
F0.656
sI766
F0.656
sI767
F0.656
sI768
F0.656
sI769
F0.656
sI770
F0.656
sI771
F0.656
sI772
F0.656
sI773
F0.656
sI774
F0.656
sI775
F0.656
sI776
F0.656
sI777
F0.656
sI778
F0.656
sI779
F0.656
sI780
F0.656
sI781
F0.656
sI782
F0.656
sI783
F0.656
sI784
F0.656
sI785
F0.656
sI786
F0.656
sI787
F0.656
sI788
F0.656
sI789
F0.656
sI790
F0.656
sI791
F0.656
sI792
F0.656
sI793
F0.656
sI794
F0.656
sI795
F0.656
sI796
F0.656
sI797
F0.656
sI798
F0.656
sI799
F0.656
sI800
F0.656
sI801
F0.656
sI802
F0.656
sI803
F0.656
sI804
F0.656
sI805
F0.656
sI806
F0.656
sI807
F0.656
sI808
F0.656
sI809
F0.656
sI810
F0.656
sI811
F0.656
sI812
F0.656
sI813
F0.656
sI814
F0.656
sI815
F0.656
sI816
F0.656
sI817
F0.656
sI818
F0.656
sI819
F0.656
sI820
F0.656
sI821
F0.656
sI822
F0.656
sI823
F0.656
sI824
F0.656
sI825
F0.656
sI826
F0.656
sI827
F0.656
sI828
F0.656
sI829
F0.656
sI830
F0.656
sI831
F0.656
sI832
F0.656
sI833
F0.656
sI834
F0.656
sI835
F0.656
sI836
F0.656
sI837
F0.656
sI838
F0.656
sI839
F0.656
sI840
F0.656
sI841
F0.656
sI842
F0.656
sI843
F0.656
sI844
F0.656
sI845
F0.656
sI846
F0.656
sI847
F0.656
sI848
F0.656
sI849
F0.656
sI850
F0.656
sI851
F0.656
sI852
F0.656
sI853
F0.656
sI854
F0.656
sI855
F0.656
sI856
F0.656
sI857
F0.656
sI858
F0.656
sI859
F0.656
sI860
F0.656
sI861
F0.656
sI862
F0.656
sI863
F0.656
sI864
F0.656
sI865
F0.656
sI866
F0.656
sI867
F0.656
sI868
F0.656
sI869
F0.656
sI870
F0.656
sI871
F0.656
sI872
F0.656
sI873
F0.656
sI874
F0.656
sI875
F0.656
sI876
F0.656
sI877
F0.656
sI878
F0.656
sI879
F0.656
sI880
F0.656
sI881
F0.656
sI882
F0.656
sI883
F0.656
sI884
F0.656
sI885
F0.656
sI886
F0.656
sI887
F0.656
sI888
F0.656
sI889
F0.656
sI890
F0.656
sI891
F0.656
sI892
F0.656
sI893
F0.656
sI894
F0.656
sI895
F0.656
sI896
F0.656
sI897
F0.656
sI898
F0.656
sI899
F0.656
sI900
F0.656
sI901
F0.656
sI902
F0.656
sI903
F0.656
sI904
F0.656
sI905
F0.656
sI906
F0.656
sI907
F0.656
sI908
F0.656
sI909
F0.656
sI910
F0.656
sI911
F0.656
sI912
F0.656
sI913
F0.656
sI914
F0.656
sI915
F0.656
sI916
F0.656
sI917
F0.656
sI918
F0.656
sI919
F0.656
sI920
F0.656
sI921
F0.656
sI922
F0.656
sI923
F0.656
sI924
F0.656
sI925
F0.656
sI926
F0.656
sI927
F0.656
sI928
F0.656
sI929
F0.656
sI930
F0.656
sI931
F0.656
sI932
F0.656
sI933
F0.656
sI934
F0.656
sI935
F0.656
sI936
F0.656
sI937
F0.656
sI938
F0.656
sI939
F0.656
sI940
F0.656
sI941
F0.656
sI942
F0.656
sI943
F0.656
sI944
F0.656
sI945
F0.656
sI946
F0.656
sI947
F0.656
sI948
F0.656
sI949
F0.656
sI950
F0.656
sI951
F0.656
sI952
F0.656
sI953
F0.656
sI954
F0.656
sI955
F0.656
sI956
F0.656
sI957
F0.656
sI958
F0.656
sI959
F0.656
sI960
F0.656
sI961
F0.656
sI962
F0.656
sI963
F0.656
sI964
F0.656
sI965
F0.656
sI966
F0.656
sI967
F0.656
sI968
F0.656
sI969
F0.656
sI970
F0.656
sI971
F0.656
sI972
F0.656
sI973
F0.656
sI974
F0.656
sI975
F0.656
sI976
F0.656
sI977
F0.656
sI978
F0.656
sI979
F0.656
sI980
F0.656
sI981
F0.656
sI982
F0.656
sI983
F0.656
sI984
F0.656
sI985
F0.656
sI986
F0.656
sI987
F0.656
sI988
F0.656
sI989
F0.656
sI990
F0.656
sI991
F0.656
sI992
F0.656
sI993
F0.656
sI994
F0.656
sI995
F0.656
sI996
F0.656
sI997
F0.656
sI998
F0.656
sI999
F0.656
ss.