(dp0
F0.2
(dp1
I0
F0.332
sI1
F0.332
sI2
F0.332
sI3
F0.332
sI4
F0.332
sI5
F0.332
sI6
F0.332
sI7
F0.332
sI8
F0.332
sI9
F0.332
sI10
F0.332
sI11
F0.332
sI12
F0.332
sI13
F0.578
sI14
F0.578
sI15
F0.578
sI16
F0.578
sI17
F0.578
sI18
F0.578
sI19
F0.578
sI20
F0.578
sI21
F0.578
sI22
F0.578
sI23
F0.578
sI24
F0.578
sI25
F0.578
sI26
F0.578
sI27
F0.578
sI28
F0.578
sI29
F0.578
sI30
F0.578
sI31
F0.578
sI32
F0.578
sI33
F0.578
sI34
F0.578
sI35
F0.578
sI36
F0.578
sI37
F0.578
sI38
F0.578
sI39
F0.578
sI40
F0.578
sI41
F0.578
sI42
F0.578
sI43
F0.578
sI44
F0.578
sI45
F0.578
sI46
F0.578
sI47
F0.578
sI48
F0.578
sI49
F0.578
sI50
F0.578
sI51
F0.578
sI52
F0.578
sI53
F0.578
sI54
F0.578
sI55
F0.578
sI56
F0.578
sI57
F0.578
sI58
F0.578
sI59
F0.578
sI60
F0.578
sI61
F0.578
sI62
F0.578
sI63
F0.578
sI64
F0.578
sI65
F0.578
sI66
F0.578
sI67
F0.578
sI68
F0.578
sI69
F0.578
sI70
F0.578
sI71
F0.578
sI72
F0.578
sI73
F0.578
sI74
F0.578
sI75
F0.578
sI76
F0.578
sI77
F0.578
sI78
F0.578
sI79
F0.578
sI80
F0.578
sI81
F0.578
sI82
F0.578
sI83
F0.578
sI84
F0.578
sI85
F0.578
sI86
F0.578
sI87
F0.578
sI88
F0.578
sI89
F0.578
sI90
F0.578
sI91
F0.578
sI92
F0.578
sI93
F0.578
sI94
F0.578
sI95
F0.578
sI96
F0.578
sI97
F0.578
sI98
F0.578
sI99
F0.578
sI100
F0.578
sI101
F0.578
sI102
F0.578
sI103
F0.578
sI104
F0.578
sI105
F0.578
sI106
F0.578
sI107
F0.578
sI108
F0.578
sI109
F0.578
sI110
F0.578
sI111
F0.578
sI112
F0.578
sI113
F0.578
sI114
F0.578
sI115
F0.578
sI116
F0.578
sI117
F0.578
sI118
F0.578
sI119
F0.578
sI120
F0.578
sI121
F0.578
sI122
F0.578
sI123
F0.578
sI124
F0.578
sI125
F0.578
sI126
F0.578
sI127
F0.578
sI128
F0.578
sI129
F0.578
sI130
F0.578
sI131
F0.578
sI132
F0.578
sI133
F0.578
sI134
F0.578
sI135
F0.578
sI136
F0.578
sI137
F0.578
sI138
F0.578
sI139
F0.578
sI140
F0.578
sI141
F0.578
sI142
F0.578
sI143
F0.578
sI144
F0.578
sI145
F0.578
sI146
F0.578
sI147
F0.578
sI148
F0.578
sI149
F0.578
sI150
F0.578
sI151
F0.578
sI152
F0.578
sI153
F0.578
sI154
F0.578
sI155
F0.578
sI156
F0.578
sI157
F0.578
sI158
F0.578
sI159
F0.578
sI160
F0.578
sI161
F0.578
sI162
F0.578
sI163
F0.578
sI164
F0.578
sI165
F0.578
sI166
F0.578
sI167
F0.578
sI168
F0.578
sI169
F0.578
sI170
F0.578
sI171
F0.578
sI172
F0.578
sI173
F0.578
sI174
F0.578
sI175
F0.578
sI176
F0.578
sI177
F0.578
sI178
F0.578
sI179
F0.578
sI180
F0.578
sI181
F0.578
sI182
F0.578
sI183
F0.578
sI184
F0.578
sI185
F0.578
sI186
F0.578
sI187
F0.578
sI188
F0.578
sI189
F0.578
sI190
F0.578
sI191
F0.578
sI192
F0.578
sI193
F0.578
sI194
F0.578
sI195
F0.578
sI196
F0.578
sI197
F0.578
sI198
F0.578
sI199
F0.578
sI200
F0.578
sI201
F0.578
sI202
F0.578
sI203
F0.578
sI204
F0.578
sI205
F0.578
sI206
F0.578
sI207
F0.578
sI208
F0.578
sI209
F0.578
sI210
F0.578
sI211
F0.578
sI212
F0.578
sI213
F0.578
sI214
F0.578
sI215
F0.578
sI216
F0.578
sI217
F0.578
sI218
F0.578
sI219
F0.578
sI220
F0.578
sI221
F0.578
sI222
F0.578
sI223
F0.578
sI224
F0.578
sI225
F0.578
sI226
F0.578
sI227
F0.578
sI228
F0.578
sI229
F0.578
sI230
F0.578
sI231
F0.578
sI232
F0.578
sI233
F0.578
sI234
F0.578
sI235
F0.578
sI236
F0.578
sI237
F0.578
sI238
F0.578
sI239
F0.578
sI240
F0.578
sI241
F0.578
sI242
F0.578
sI243
F0.578
sI244
F0.578
sI245
F0.578
sI246
F0.578
sI247
F0.578
sI248
F0.578
sI249
F0.578
sI250
F0.578
sI251
F0.578
sI252
F0.578
sI253
F0.578
sI254
F0.578
sI255
F0.578
sI256
F0.578
sI257
F0.578
sI258
F0.578
sI259
F0.578
sI260
F0.578
sI261
F0.578
sI262
F0.578
sI263
F0.578
sI264
F0.578
sI265
F0.578
sI266
F0.578
sI267
F0.578
sI268
F0.578
sI269
F0.578
sI270
F0.578
sI271
F0.578
sI272
F0.578
sI273
F0.578
sI274
F0.578
sI275
F0.578
sI276
F0.578
sI277
F0.578
sI278
F0.578
sI279
F0.578
sI280
F0.578
sI281
F0.578
sI282
F0.578
sI283
F0.578
sI284
F0.578
sI285
F0.578
sI286
F0.578
sI287
F0.578
sI288
F0.578
sI289
F0.578
sI290
F0.578
sI291
F0.578
sI292
F0.578
sI293
F0.578
sI294
F0.578
sI295
F0.578
sI296
F0.578
sI297
F0.578
sI298
F0.578
sI299
F0.578
sI300
F0.578
sI301
F0.578
sI302
F0.578
sI303
F0.578
sI304
F0.578
sI305
F0.578
sI306
F0.578
sI307
F0.578
sI308
F0.578
sI309
F0.578
sI310
F0.578
sI311
F0.578
sI312
F0.578
sI313
F0.578
sI314
F0.578
sI315
F0.578
sI316
F0.578
sI317
F0.578
sI318
F0.578
sI319
F0.578
sI320
F0.578
sI321
F0.578
sI322
F0.578
sI323
F0.578
sI324
F0.578
sI325
F0.578
sI326
F0.578
sI327
F0.578
sI328
F0.578
sI329
F0.578
sI330
F0.578
sI331
F0.578
sI332
F0.578
sI333
F0.578
sI334
F0.578
sI335
F0.578
sI336
F0.578
sI337
F0.578
sI338
F0.578
sI339
F0.578
sI340
F0.578
sI341
F0.578
sI342
F0.578
sI343
F0.578
sI344
F0.578
sI345
F0.578
sI346
F0.578
sI347
F0.578
sI348
F0.578
sI349
F0.578
sI350
F0.578
sI351
F0.578
sI352
F0.578
sI353
F0.578
sI354
F0.578
sI355
F0.578
sI356
F0.578
sI357
F0.578
sI358
F0.578
sI359
F0.578
sI360
F0.578
sI361
F0.578
sI362
F0.578
sI363
F0.578
sI364
F0.578
sI365
F0.578
sI366
F0.578
sI367
F0.578
sI368
F0.578
sI369
F0.578
sI370
F0.578
sI371
F0.578
sI372
F0.578
sI373
F0.578
sI374
F0.578
sI375
F0.578
sI376
F0.578
sI377
F0.578
sI378
F0.578
sI379
F0.578
sI380
F0.578
sI381
F0.578
sI382
F0.578
sI383
F0.578
sI384
F0.578
sI385
F0.578
sI386
F0.578
sI387
F0.578
sI388
F0.578
sI389
F0.578
sI390
F0.578
sI391
F0.578
sI392
F0.578
sI393
F0.578
sI394
F0.578
sI395
F0.578
sI396
F0.578
sI397
F0.578
sI398
F0.578
sI399
F0.578
sI400
F0.578
sI401
F0.578
sI402
F0.578
sI403
F0.578
sI404
F0.578
sI405
F0.578
sI406
F0.578
sI407
F0.578
sI408
F0.578
sI409
F0.578
sI410
F0.578
sI411
F0.578
sI412
F0.578
sI413
F0.578
sI414
F0.578
sI415
F0.578
sI416
F0.578
sI417
F0.578
sI418
F0.578
sI419
F0.578
sI420
F0.578
sI421
F0.578
sI422
F0.578
sI423
F0.578
sI424
F0.578
sI425
F0.578
sI426
F0.578
sI427
F0.578
sI428
F0.578
sI429
F0.578
sI430
F0.578
sI431
F0.578
sI432
F0.578
sI433
F0.578
sI434
F0.578
sI435
F0.578
sI436
F0.578
sI437
F0.578
sI438
F0.578
sI439
F0.578
sI440
F0.578
sI441
F0.578
sI442
F0.578
sI443
F0.578
sI444
F0.578
sI445
F0.578
sI446
F0.578
sI447
F0.578
sI448
F0.578
sI449
F0.578
sI450
F0.578
sI451
F0.578
sI452
F0.578
sI453
F0.578
sI454
F0.578
sI455
F0.578
sI456
F0.578
sI457
F0.578
sI458
F0.578
sI459
F0.578
sI460
F0.578
sI461
F0.578
sI462
F0.578
sI463
F0.578
sI464
F0.578
sI465
F0.578
sI466
F0.578
sI467
F0.578
sI468
F0.578
sI469
F0.578
sI470
F0.578
sI471
F0.578
sI472
F0.578
sI473
F0.578
sI474
F0.578
sI475
F0.578
sI476
F0.578
sI477
F0.578
sI478
F0.578
sI479
F0.578
sI480
F0.578
sI481
F0.578
sI482
F0.578
sI483
F0.578
sI484
F0.578
sI485
F0.578
sI486
F0.578
sI487
F0.578
sI488
F0.578
sI489
F0.578
sI490
F0.578
sI491
F0.578
sI492
F0.578
sI493
F0.578
sI494
F0.578
sI495
F0.578
sI496
F0.578
sI497
F0.578
sI498
F0.578
sI499
F0.578
sI500
F0.578
sI501
F0.578
sI502
F0.578
sI503
F0.578
sI504
F0.578
sI505
F0.578
sI506
F0.578
sI507
F0.578
sI508
F0.578
sI509
F0.578
sI510
F0.578
sI511
F0.578
sI512
F0.578
sI513
F0.578
sI514
F0.578
sI515
F0.578
sI516
F0.578
sI517
F0.578
sI518
F0.578
sI519
F0.578
sI520
F0.578
sI521
F0.578
sI522
F0.578
sI523
F0.578
sI524
F0.578
sI525
F0.578
sI526
F0.578
sI527
F0.578
sI528
F0.578
sI529
F0.578
sI530
F0.578
sI531
F0.578
sI532
F0.578
sI533
F0.578
sI534
F0.578
sI535
F0.578
sI536
F0.578
sI537
F0.578
sI538
F0.578
sI539
F0.578
sI540
F0.578
sI541
F0.578
sI542
F0.578
sI543
F0.578
sI544
F0.578
sI545
F0.578
sI546
F0.578
sI547
F0.578
sI548
F0.578
sI549
F0.578
sI550
F0.578
sI551
F0.578
sI552
F0.578
sI553
F0.578
sI554
F0.578
sI555
F0.578
sI556
F0.578
sI557
F0.578
sI558
F0.578
sI559
F0.578
sI560
F0.578
sI561
F0.578
sI562
F0.578
sI563
F0.578
sI564
F0.578
sI565
F0.578
sI566
F0.578
sI567
F0.578
sI568
F0.578
sI569
F0.578
sI570
F0.578
sI571
F0.578
sI572
F0.578
sI573
F0.578
sI574
F0.578
sI575
F0.578
sI576
F0.578
sI577
F0.578
sI579
F0.578
sI580
F0.578
sI581
F0.578
sI582
F0.578
sI583
F0.578
sI584
F0.578
sI585
F0.578
sI586
F0.578
sI587
F0.578
sI588
F0.578
sI589
F0.578
sI590
F0.578
sI591
F0.578
sI592
F0.578
sI593
F0.578
sI594
F0.578
sI595
F0.578
sI596
F0.578
sI597
F0.578
sI598
F0.578
sI599
F0.578
sI600
F0.578
sI601
F0.578
sI602
F0.578
sI603
F0.578
sI604
F0.578
sI605
F0.578
sI606
F0.578
sI607
F0.578
sI608
F0.578
sI609
F0.578
sI610
F0.578
sI611
F0.578
sI612
F0.578
sI613
F0.578
sI614
F0.578
sI615
F0.578
sI616
F0.578
sI617
F0.578
sI618
F0.578
sI619
F0.578
sI620
F0.578
sI621
F0.578
sI622
F0.578
sI623
F0.578
sI624
F0.578
sI625
F0.578
sI626
F0.578
sI627
F0.578
sI628
F0.578
sI629
F0.578
sI630
F0.578
sI631
F0.578
sI632
F0.578
sI633
F0.578
sI634
F0.578
sI635
F0.578
sI636
F0.578
sI637
F0.578
sI638
F0.578
sI639
F0.578
sI640
F0.578
sI641
F0.578
sI642
F0.578
sI643
F0.578
sI644
F0.578
sI645
F0.578
sI646
F0.578
sI647
F0.578
sI648
F0.578
sI649
F0.578
sI650
F0.578
sI651
F0.578
sI652
F0.578
sI653
F0.578
sI654
F0.578
sI655
F0.578
sI656
F0.578
sI657
F0.578
sI658
F0.578
sI659
F0.578
sI660
F0.578
sI661
F0.578
sI662
F0.578
sI663
F0.578
sI664
F0.578
sI665
F0.578
sI666
F0.578
sI667
F0.578
sI668
F0.578
sI669
F0.578
sI670
F0.578
sI671
F0.578
sI672
F0.578
sI673
F0.578
sI674
F0.578
sI675
F0.578
sI676
F0.578
sI677
F0.578
sI678
F0.578
sI679
F0.578
sI680
F0.578
sI681
F0.578
sI682
F0.578
sI683
F0.578
sI684
F0.578
sI685
F0.578
sI686
F0.578
sI687
F0.578
sI688
F0.578
sI689
F0.578
sI690
F0.578
sI691
F0.578
sI692
F0.578
sI693
F0.578
sI694
F0.578
sI695
F0.578
sI696
F0.578
sI697
F0.578
sI698
F0.578
sI699
F0.578
sI700
F0.578
sI701
F0.578
sI702
F0.578
sI703
F0.578
sI704
F0.578
sI705
F0.578
sI706
F0.578
sI707
F0.578
sI708
F0.578
sI709
F0.578
sI710
F0.578
sI711
F0.578
sI712
F0.578
sI713
F0.578
sI714
F0.578
sI715
F0.578
sI716
F0.578
sI717
F0.578
sI718
F0.578
sI719
F0.578
sI720
F0.578
sI721
F0.578
sI722
F0.578
sI723
F0.578
sI724
F0.578
sI725
F0.578
sI726
F0.578
sI727
F0.578
sI728
F0.578
sI729
F0.578
sI730
F0.578
sI731
F0.578
sI732
F0.578
sI733
F0.578
sI734
F0.578
sI735
F0.578
sI736
F0.578
sI737
F0.578
sI738
F0.578
sI739
F0.578
sI740
F0.578
sI741
F0.578
sI742
F0.578
sI743
F0.578
sI744
F0.578
sI745
F0.578
sI746
F0.578
sI747
F0.578
sI748
F0.578
sI749
F0.578
sI750
F0.578
sI751
F0.578
sI752
F0.578
sI753
F0.578
sI754
F0.578
sI755
F0.578
sI756
F0.578
sI757
F0.578
sI758
F0.578
sI759
F0.578
sI760
F0.578
sI761
F0.578
sI762
F0.578
sI763
F0.578
sI764
F0.578
sI765
F0.578
sI766
F0.578
sI767
F0.578
sI768
F0.578
sI769
F0.578
sI770
F0.578
sI771
F0.578
sI772
F0.578
sI773
F0.578
sI774
F0.578
sI775
F0.578
sI776
F0.578
sI777
F0.578
sI778
F0.578
sI779
F0.578
sI780
F0.578
sI781
F0.578
sI782
F0.578
sI783
F0.578
sI784
F0.578
sI785
F0.578
sI786
F0.578
sI787
F0.578
sI788
F0.578
sI789
F0.578
sI790
F0.578
sI791
F0.578
sI792
F0.578
sI793
F0.578
sI794
F0.578
sI795
F0.578
sI796
F0.578
sI797
F0.578
sI798
F0.578
sI799
F0.578
sI800
F0.578
sI801
F0.578
sI802
F0.578
sI803
F0.578
sI804
F0.578
sI805
F0.578
sI806
F0.578
sI807
F0.578
sI808
F0.578
sI809
F0.578
sI810
F0.578
sI811
F0.578
sI812
F0.578
sI813
F0.578
sI814
F0.578
sI815
F0.578
sI816
F0.578
sI817
F0.578
sI818
F0.578
sI819
F0.578
sI820
F0.578
sI821
F0.578
sI822
F0.578
sI823
F0.578
sI824
F0.578
sI825
F0.578
sI826
F0.578
sI827
F0.578
sI828
F0.578
sI829
F0.578
sI830
F0.578
sI831
F0.578
sI832
F0.578
sI833
F0.578
sI834
F0.578
sI835
F0.578
sI836
F0.578
sI837
F0.578
sI838
F0.578
sI839
F0.578
sI840
F0.578
sI841
F0.578
sI842
F0.578
sI843
F0.578
sI844
F0.578
sI845
F0.578
sI846
F0.578
sI847
F0.578
sI848
F0.578
sI849
F0.578
sI850
F0.578
sI851
F0.578
sI852
F0.578
sI853
F0.578
sI854
F0.578
sI855
F0.578
sI856
F0.578
sI857
F0.578
sI858
F0.578
sI859
F0.578
sI860
F0.578
sI861
F0.578
sI862
F0.578
sI863
F0.578
sI864
F0.578
sI865
F0.578
sI866
F0.578
sI867
F0.578
sI868
F0.578
sI869
F0.578
sI870
F0.578
sI871
F0.578
sI872
F0.578
sI873
F0.578
sI874
F0.578
sI875
F0.578
sI876
F0.578
sI877
F0.578
sI878
F0.578
sI879
F0.578
sI880
F0.578
sI881
F0.578
sI882
F0.578
sI883
F0.578
sI884
F0.578
sI885
F0.578
sI886
F0.578
sI887
F0.578
sI888
F0.578
sI889
F0.578
sI890
F0.578
sI891
F0.578
sI892
F0.578
sI893
F0.578
sI894
F0.578
sI895
F0.578
sI896
F0.578
sI897
F0.578
sI898
F0.578
sI899
F0.578
sI900
F0.578
sI901
F0.578
sI902
F0.578
sI903
F0.578
sI904
F0.578
sI905
F0.578
sI906
F0.578
sI907
F0.578
sI908
F0.578
sI909
F0.578
sI910
F0.578
sI911
F0.578
sI912
F0.578
sI913
F0.578
sI914
F0.578
sI915
F0.578
sI916
F0.578
sI917
F0.578
sI918
F0.578
sI919
F0.578
sI920
F0.578
sI921
F0.578
sI922
F0.578
sI923
F0.578
sI924
F0.578
sI925
F0.578
sI926
F0.578
sI927
F0.578
sI928
F0.578
sI929
F0.578
sI930
F0.578
sI931
F0.578
sI932
F0.578
sI933
F0.578
sI934
F0.578
sI935
F0.578
sI936
F0.578
sI937
F0.578
sI938
F0.578
sI939
F0.578
sI940
F0.578
sI941
F0.578
sI942
F0.578
sI943
F0.578
sI944
F0.578
sI945
F0.578
sI946
F0.578
sI947
F0.578
sI948
F0.578
sI949
F0.578
sI950
F0.578
sI951
F0.578
sI952
F0.578
sI953
F0.578
sI954
F0.578
sI955
F0.578
sI956
F0.578
sI957
F0.578
sI958
F0.578
sI959
F0.578
sI960
F0.578
sI961
F0.578
sI962
F0.578
sI963
F0.578
sI964
F0.578
sI965
F0.578
sI966
F0.578
sI967
F0.578
sI968
F0.578
sI969
F0.578
sI970
F0.578
sI971
F0.578
sI972
F0.578
sI973
F0.578
sI974
F0.578
sI975
F0.578
sI976
F0.578
sI977
F0.578
sI978
F0.578
sI979
F0.578
sI980
F0.578
sI981
F0.578
sI982
F0.578
sI983
F0.578
sI984
F0.578
sI985
F0.578
sI986
F0.578
sI987
F0.578
sI988
F0.578
sI989
F0.578
sI990
F0.578
sI991
F0.578
sI992
F0.578
sI993
F0.578
sI994
F0.578
sI995
F0.578
sI996
F0.578
sI997
F0.578
sI998
F0.578
sI999
F0.578
ss.