(dp0
F0.025
(dp1
I0
F0.332
sI1
F0.485
sI2
F0.485
sI3
F0.485
sI4
F0.516
sI5
F0.516
sI6
F0.516
sI7
F0.516
sI8
F0.516
sI9
F0.516
sI10
F0.516
sI11
F0.516
sI12
F0.516
sI13
F0.578
sI14
F0.578
sI15
F0.578
sI16
F0.578
sI17
F0.578
sI18
F0.578
sI19
F0.578
sI20
F0.578
sI21
F0.578
sI22
F0.578
sI23
F0.578
sI24
F0.578
sI25
F0.578
sI26
F0.578
sI27
F0.578
sI28
F0.578
sI29
F0.578
sI30
F0.578
sI31
F0.578
sI32
F0.578
sI33
F0.578
sI34
F0.578
sI35
F0.578
sI36
F0.578
sI37
F0.578
sI38
F0.578
sI39
F0.578
sI40
F0.578
sI41
F0.578
sI42
F0.578
sI43
F0.578
sI44
F0.578
sI45
F0.578
sI46
F0.578
sI47
F0.578
sI48
F0.578
sI49
F0.578
sI50
F0.578
sI51
F0.578
sI52
F0.578
sI53
F0.578
sI54
F0.578
sI55
F0.578
sI56
F0.578
sI57
F0.578
sI58
F0.578
sI59
F0.613
sI60
F0.613
sI61
F0.613
sI62
F0.613
sI63
F0.613
sI64
F0.613
sI65
F0.613
sI66
F0.613
sI67
F0.613
sI68
F0.613
sI69
F0.613
sI70
F0.613
sI71
F0.613
sI72
F0.613
sI73
F0.613
sI74
F0.613
sI75
F0.613
sI76
F0.613
sI77
F0.613
sI78
F0.613
sI79
F0.613
sI80
F0.613
sI81
F0.613
sI82
F0.613
sI83
F0.613
sI84
F0.613
sI85
F0.613
sI86
F0.613
sI87
F0.613
sI88
F0.613
sI89
F0.613
sI90
F0.613
sI91
F0.613
sI92
F0.613
sI93
F0.613
sI94
F0.613
sI95
F0.613
sI96
F0.613
sI97
F0.613
sI98
F0.613
sI99
F0.613
sI100
F0.613
sI101
F0.613
sI102
F0.613
sI103
F0.613
sI104
F0.613
sI105
F0.613
sI106
F0.613
sI107
F0.613
sI108
F0.613
sI109
F0.613
sI110
F0.613
sI111
F0.613
sI112
F0.613
sI113
F0.613
sI114
F0.613
sI115
F0.613
sI116
F0.613
sI117
F0.613
sI118
F0.613
sI119
F0.613
sI120
F0.613
sI121
F0.613
sI122
F0.613
sI123
F0.613
sI124
F0.613
sI125
F0.613
sI126
F0.613
sI127
F0.613
sI128
F0.613
sI129
F0.613
sI130
F0.613
sI131
F0.613
sI132
F0.613
sI133
F0.613
sI134
F0.613
sI135
F0.613
sI136
F0.613
sI137
F0.613
sI138
F0.613
sI139
F0.613
sI140
F0.613
sI141
F0.613
sI142
F0.613
sI143
F0.613
sI144
F0.613
sI145
F0.613
sI146
F0.613
sI147
F0.613
sI148
F0.613
sI149
F0.613
sI150
F0.613
sI151
F0.613
sI152
F0.613
sI153
F0.613
sI154
F0.613
sI155
F0.613
sI156
F0.613
sI157
F0.613
sI158
F0.613
sI159
F0.613
sI160
F0.613
sI161
F0.613
sI162
F0.613
sI163
F0.613
sI164
F0.613
sI165
F0.613
sI166
F0.613
sI167
F0.613
sI168
F0.613
sI169
F0.613
sI170
F0.613
sI171
F0.613
sI172
F0.613
sI173
F0.613
sI174
F0.613
sI175
F0.613
sI176
F0.613
sI177
F0.613
sI178
F0.613
sI179
F0.613
sI180
F0.613
sI181
F0.613
sI182
F0.613
sI183
F0.613
sI184
F0.613
sI185
F0.613
sI186
F0.613
sI187
F0.613
sI188
F0.613
sI189
F0.613
sI190
F0.613
sI191
F0.613
sI192
F0.613
sI193
F0.613
sI194
F0.613
sI195
F0.613
sI196
F0.613
sI197
F0.613
sI198
F0.613
sI199
F0.613
sI200
F0.613
sI201
F0.613
sI202
F0.613
sI203
F0.613
sI204
F0.613
sI205
F0.613
sI206
F0.613
sI207
F0.613
sI208
F0.613
sI209
F0.613
sI210
F0.613
sI211
F0.613
sI212
F0.613
sI213
F0.613
sI214
F0.613
sI215
F0.613
sI216
F0.613
sI217
F0.613
sI218
F0.613
sI219
F0.613
sI220
F0.613
sI221
F0.613
sI222
F0.613
sI223
F0.613
sI224
F0.613
sI225
F0.613
sI226
F0.613
sI227
F0.613
sI228
F0.613
sI229
F0.613
sI230
F0.613
sI231
F0.613
sI232
F0.613
sI233
F0.613
sI234
F0.613
sI235
F0.613
sI236
F0.613
sI237
F0.613
sI238
F0.613
sI239
F0.613
sI240
F0.613
sI241
F0.613
sI242
F0.613
sI243
F0.613
sI244
F0.613
sI245
F0.613
sI246
F0.613
sI247
F0.613
sI248
F0.613
sI249
F0.613
sI250
F0.613
sI251
F0.613
sI252
F0.613
sI253
F0.613
sI254
F0.613
sI255
F0.613
sI256
F0.613
sI257
F0.613
sI258
F0.613
sI259
F0.613
sI260
F0.613
sI261
F0.613
sI262
F0.613
sI263
F0.613
sI264
F0.613
sI265
F0.613
sI266
F0.613
sI267
F0.613
sI268
F0.613
sI269
F0.613
sI270
F0.613
sI271
F0.613
sI272
F0.613
sI273
F0.613
sI274
F0.613
sI275
F0.613
sI276
F0.613
sI277
F0.613
sI278
F0.613
sI279
F0.613
sI280
F0.613
sI281
F0.613
sI282
F0.613
sI283
F0.613
sI284
F0.613
sI285
F0.613
sI286
F0.613
sI287
F0.613
sI288
F0.613
sI289
F0.613
sI290
F0.613
sI291
F0.613
sI292
F0.613
sI293
F0.613
sI294
F0.613
sI295
F0.613
sI296
F0.613
sI297
F0.613
sI298
F0.613
sI299
F0.613
sI300
F0.613
sI301
F0.613
sI302
F0.613
sI303
F0.613
sI304
F0.613
sI305
F0.613
sI306
F0.613
sI307
F0.613
sI308
F0.613
sI309
F0.613
sI310
F0.613
sI311
F0.613
sI312
F0.613
sI313
F0.613
sI314
F0.613
sI315
F0.613
sI316
F0.613
sI317
F0.613
sI318
F0.613
sI319
F0.613
sI320
F0.613
sI321
F0.613
sI322
F0.613
sI323
F0.613
sI324
F0.613
sI325
F0.613
sI326
F0.613
sI327
F0.613
sI328
F0.613
sI329
F0.613
sI330
F0.613
sI331
F0.613
sI332
F0.613
sI333
F0.613
sI334
F0.613
sI335
F0.613
sI336
F0.613
sI337
F0.613
sI338
F0.613
sI339
F0.613
sI340
F0.613
sI341
F0.613
sI342
F0.613
sI343
F0.613
sI344
F0.613
sI345
F0.613
sI346
F0.613
sI347
F0.613
sI348
F0.613
sI349
F0.613
sI350
F0.613
sI351
F0.613
sI352
F0.613
sI353
F0.613
sI354
F0.613
sI355
F0.613
sI356
F0.613
sI357
F0.613
sI358
F0.613
sI359
F0.613
sI360
F0.613
sI361
F0.613
sI362
F0.613
sI363
F0.613
sI364
F0.613
sI365
F0.613
sI366
F0.613
sI367
F0.613
sI368
F0.613
sI369
F0.613
sI370
F0.613
sI371
F0.613
sI372
F0.613
sI373
F0.613
sI374
F0.613
sI375
F0.613
sI376
F0.613
sI377
F0.613
sI378
F0.613
sI379
F0.613
sI380
F0.613
sI381
F0.613
sI382
F0.613
sI383
F0.613
sI384
F0.613
sI385
F0.613
sI386
F0.613
sI387
F0.613
sI388
F0.613
sI389
F0.613
sI390
F0.613
sI391
F0.613
sI392
F0.613
sI393
F0.613
sI394
F0.613
sI395
F0.613
sI396
F0.613
sI397
F0.613
sI398
F0.613
sI399
F0.613
sI400
F0.613
sI401
F0.613
sI402
F0.613
sI403
F0.613
sI404
F0.613
sI405
F0.613
sI406
F0.613
sI407
F0.613
sI408
F0.613
sI409
F0.613
sI410
F0.613
sI411
F0.613
sI412
F0.613
sI413
F0.613
sI414
F0.613
sI415
F0.613
sI416
F0.613
sI417
F0.613
sI418
F0.613
sI419
F0.613
sI420
F0.613
sI421
F0.613
sI422
F0.613
sI423
F0.613
sI424
F0.613
sI425
F0.658
sI426
F0.658
sI427
F0.658
sI428
F0.658
sI429
F0.658
sI430
F0.658
sI431
F0.658
sI432
F0.658
sI433
F0.658
sI434
F0.658
sI435
F0.658
sI436
F0.658
sI437
F0.658
sI438
F0.658
sI439
F0.658
sI440
F0.658
sI441
F0.658
sI442
F0.658
sI443
F0.658
sI444
F0.658
sI445
F0.658
sI446
F0.658
sI447
F0.658
sI448
F0.658
sI449
F0.658
sI450
F0.658
sI451
F0.658
sI452
F0.658
sI453
F0.658
sI454
F0.658
sI455
F0.658
sI456
F0.658
sI457
F0.658
sI458
F0.658
sI459
F0.658
sI460
F0.658
sI461
F0.658
sI462
F0.658
sI463
F0.658
sI464
F0.658
sI465
F0.658
sI466
F0.658
sI467
F0.658
sI468
F0.658
sI469
F0.658
sI470
F0.658
sI471
F0.658
sI472
F0.658
sI473
F0.658
sI474
F0.658
sI475
F0.658
sI476
F0.658
sI477
F0.658
sI478
F0.658
sI479
F0.658
sI480
F0.658
sI481
F0.658
sI482
F0.658
sI483
F0.658
sI484
F0.658
sI485
F0.658
sI486
F0.658
sI487
F0.658
sI488
F0.658
sI489
F0.658
sI490
F0.658
sI491
F0.658
sI492
F0.658
sI493
F0.658
sI494
F0.658
sI495
F0.658
sI496
F0.658
sI497
F0.658
sI498
F0.658
sI499
F0.658
sI500
F0.658
sI501
F0.658
sI502
F0.658
sI503
F0.658
sI504
F0.658
sI505
F0.658
sI506
F0.658
sI507
F0.658
sI508
F0.658
sI509
F0.658
sI510
F0.658
sI511
F0.658
sI512
F0.658
sI513
F0.658
sI514
F0.658
sI515
F0.658
sI516
F0.658
sI517
F0.658
sI518
F0.658
sI519
F0.658
sI520
F0.658
sI521
F0.658
sI522
F0.658
sI523
F0.658
sI524
F0.658
sI525
F0.658
sI526
F0.658
sI527
F0.658
sI528
F0.658
sI529
F0.658
sI530
F0.658
sI531
F0.658
sI532
F0.658
sI533
F0.658
sI534
F0.658
sI535
F0.658
sI536
F0.658
sI537
F0.658
sI538
F0.658
sI539
F0.658
sI540
F0.658
sI541
F0.658
sI542
F0.658
sI543
F0.658
sI544
F0.658
sI545
F0.658
sI546
F0.658
sI547
F0.658
sI548
F0.658
sI549
F0.658
sI550
F0.658
sI551
F0.658
sI552
F0.658
sI553
F0.658
sI554
F0.658
sI555
F0.658
sI556
F0.658
sI557
F0.658
sI558
F0.658
sI559
F0.658
sI560
F0.658
sI561
F0.658
sI562
F0.658
sI563
F0.658
sI564
F0.658
sI565
F0.658
sI566
F0.658
sI567
F0.658
sI568
F0.658
sI569
F0.658
sI570
F0.658
sI571
F0.658
sI572
F0.658
sI573
F0.658
sI574
F0.658
sI575
F0.658
sI576
F0.658
sI577
F0.658
sI579
F0.658
sI580
F0.658
sI581
F0.658
sI582
F0.658
sI583
F0.658
sI584
F0.658
sI585
F0.658
sI586
F0.658
sI587
F0.658
sI588
F0.658
sI589
F0.658
sI590
F0.658
sI591
F0.658
sI592
F0.658
sI593
F0.658
sI594
F0.658
sI595
F0.658
sI596
F0.658
sI597
F0.658
sI598
F0.658
sI599
F0.658
sI600
F0.658
sI601
F0.658
sI602
F0.658
sI603
F0.658
sI604
F0.658
sI605
F0.658
sI606
F0.658
sI607
F0.658
sI608
F0.658
sI609
F0.658
sI610
F0.658
sI611
F0.658
sI612
F0.658
sI613
F0.658
sI614
F0.658
sI615
F0.658
sI616
F0.658
sI617
F0.658
sI618
F0.658
sI619
F0.658
sI620
F0.658
sI621
F0.658
sI622
F0.658
sI623
F0.658
sI624
F0.658
sI625
F0.658
sI626
F0.658
sI627
F0.658
sI628
F0.658
sI629
F0.658
sI630
F0.658
sI631
F0.658
sI632
F0.658
sI633
F0.658
sI634
F0.658
sI635
F0.658
sI636
F0.658
sI637
F0.658
sI638
F0.658
sI639
F0.658
sI640
F0.658
sI641
F0.658
sI642
F0.658
sI643
F0.658
sI644
F0.658
sI645
F0.658
sI646
F0.658
sI647
F0.658
sI648
F0.658
sI649
F0.658
sI650
F0.658
sI651
F0.658
sI652
F0.658
sI653
F0.658
sI654
F0.658
sI655
F0.658
sI656
F0.658
sI657
F0.658
sI658
F0.658
sI659
F0.658
sI660
F0.658
sI661
F0.658
sI662
F0.658
sI663
F0.658
sI664
F0.658
sI665
F0.658
sI666
F0.658
sI667
F0.658
sI668
F0.658
sI669
F0.658
sI670
F0.658
sI671
F0.658
sI672
F0.658
sI673
F0.658
sI674
F0.658
sI675
F0.658
sI676
F0.658
sI677
F0.658
sI678
F0.658
sI679
F0.658
sI680
F0.658
sI681
F0.658
sI682
F0.658
sI683
F0.658
sI684
F0.658
sI685
F0.658
sI686
F0.658
sI687
F0.658
sI688
F0.658
sI689
F0.658
sI690
F0.658
sI691
F0.658
sI692
F0.658
sI693
F0.658
sI694
F0.658
sI695
F0.658
sI696
F0.658
sI697
F0.658
sI698
F0.658
sI699
F0.658
sI700
F0.658
sI701
F0.658
sI702
F0.658
sI703
F0.658
sI704
F0.658
sI705
F0.658
sI706
F0.658
sI707
F0.658
sI708
F0.658
sI709
F0.658
sI710
F0.658
sI711
F0.658
sI712
F0.658
sI713
F0.658
sI714
F0.658
sI715
F0.658
sI716
F0.658
sI717
F0.658
sI718
F0.658
sI719
F0.658
sI720
F0.658
sI721
F0.658
sI722
F0.658
sI723
F0.658
sI724
F0.658
sI725
F0.658
sI726
F0.658
sI727
F0.658
sI728
F0.658
sI729
F0.658
sI730
F0.658
sI731
F0.658
sI732
F0.658
sI733
F0.658
sI734
F0.658
sI735
F0.658
sI736
F0.658
sI737
F0.658
sI738
F0.658
sI739
F0.658
sI740
F0.658
sI741
F0.658
sI742
F0.658
sI743
F0.658
sI744
F0.658
sI745
F0.658
sI746
F0.658
sI747
F0.658
sI748
F0.658
sI749
F0.658
sI750
F0.658
sI751
F0.658
sI752
F0.658
sI753
F0.658
sI754
F0.658
sI755
F0.658
sI756
F0.658
sI757
F0.658
sI758
F0.658
sI759
F0.658
sI760
F0.658
sI761
F0.658
sI762
F0.658
sI763
F0.658
sI764
F0.658
sI765
F0.658
sI766
F0.658
sI767
F0.658
sI768
F0.658
sI769
F0.658
sI770
F0.658
sI771
F0.658
sI772
F0.658
sI773
F0.658
sI774
F0.658
sI775
F0.658
sI776
F0.658
sI777
F0.658
sI778
F0.658
sI779
F0.658
sI780
F0.658
sI781
F0.658
sI782
F0.658
sI783
F0.658
sI784
F0.658
sI785
F0.658
sI786
F0.658
sI787
F0.658
sI788
F0.658
sI789
F0.658
sI790
F0.658
sI791
F0.658
sI792
F0.658
sI793
F0.658
sI794
F0.658
sI795
F0.658
sI796
F0.658
sI797
F0.658
sI798
F0.658
sI799
F0.658
sI800
F0.658
sI801
F0.658
sI802
F0.658
sI803
F0.658
sI804
F0.658
sI805
F0.658
sI806
F0.658
sI807
F0.658
sI808
F0.658
sI809
F0.658
sI810
F0.658
sI811
F0.658
sI812
F0.658
sI813
F0.658
sI814
F0.658
sI815
F0.658
sI816
F0.658
sI817
F0.658
sI818
F0.658
sI819
F0.658
sI820
F0.658
sI821
F0.658
sI822
F0.658
sI823
F0.658
sI824
F0.658
sI825
F0.658
sI826
F0.658
sI827
F0.658
sI828
F0.658
sI829
F0.658
sI830
F0.658
sI831
F0.658
sI832
F0.658
sI833
F0.658
sI834
F0.658
sI835
F0.658
sI836
F0.658
sI837
F0.658
sI838
F0.658
sI839
F0.658
sI840
F0.658
sI841
F0.658
sI842
F0.658
sI843
F0.658
sI844
F0.658
sI845
F0.658
sI846
F0.658
sI847
F0.658
sI848
F0.658
sI849
F0.658
sI850
F0.658
sI851
F0.658
sI852
F0.658
sI853
F0.658
sI854
F0.658
sI855
F0.658
sI856
F0.658
sI857
F0.658
sI858
F0.658
sI859
F0.658
sI860
F0.658
sI861
F0.658
sI862
F0.658
sI863
F0.658
sI864
F0.658
sI865
F0.658
sI866
F0.658
sI867
F0.658
sI868
F0.658
sI869
F0.658
sI870
F0.658
sI871
F0.658
sI872
F0.658
sI873
F0.658
sI874
F0.658
sI875
F0.658
sI876
F0.658
sI877
F0.658
sI878
F0.658
sI879
F0.658
sI880
F0.658
sI881
F0.658
sI882
F0.658
sI883
F0.658
sI884
F0.658
sI885
F0.658
sI886
F0.658
sI887
F0.658
sI888
F0.658
sI889
F0.658
sI890
F0.658
sI891
F0.658
sI892
F0.658
sI893
F0.658
sI894
F0.658
sI895
F0.658
sI896
F0.658
sI897
F0.658
sI898
F0.658
sI899
F0.658
sI900
F0.658
sI901
F0.658
sI902
F0.658
sI903
F0.658
sI904
F0.658
sI905
F0.658
sI906
F0.658
sI907
F0.658
sI908
F0.658
sI909
F0.658
sI910
F0.658
sI911
F0.658
sI912
F0.658
sI913
F0.658
sI914
F0.658
sI915
F0.658
sI916
F0.658
sI917
F0.658
sI918
F0.658
sI919
F0.658
sI920
F0.658
sI921
F0.658
sI922
F0.658
sI923
F0.658
sI924
F0.658
sI925
F0.658
sI926
F0.658
sI927
F0.658
sI928
F0.658
sI929
F0.658
sI930
F0.658
sI931
F0.658
sI932
F0.658
sI933
F0.658
sI934
F0.658
sI935
F0.658
sI936
F0.658
sI937
F0.658
sI938
F0.658
sI939
F0.658
sI940
F0.658
sI941
F0.658
sI942
F0.658
sI943
F0.658
sI944
F0.658
sI945
F0.658
sI946
F0.658
sI947
F0.658
sI948
F0.658
sI949
F0.658
sI950
F0.658
sI951
F0.658
sI952
F0.658
sI953
F0.658
sI954
F0.658
sI955
F0.658
sI956
F0.658
sI957
F0.658
sI958
F0.658
sI959
F0.658
sI960
F0.658
sI961
F0.658
sI962
F0.658
sI963
F0.658
sI964
F0.658
sI965
F0.658
sI966
F0.658
sI967
F0.658
sI968
F0.658
sI969
F0.658
sI970
F0.658
sI971
F0.658
sI972
F0.658
sI973
F0.658
sI974
F0.658
sI975
F0.658
sI976
F0.658
sI977
F0.658
sI978
F0.658
sI979
F0.658
sI980
F0.658
sI981
F0.658
sI982
F0.658
sI983
F0.658
sI984
F0.658
sI985
F0.658
sI986
F0.658
sI987
F0.658
sI988
F0.658
sI989
F0.658
sI990
F0.658
sI991
F0.658
sI992
F0.658
sI993
F0.658
sI994
F0.658
sI995
F0.658
sI996
F0.658
sI997
F0.658
sI998
F0.658
sI999
F0.658
ss.