(dp0
F0.05
(dp1
I0
F0.56
sI1
F0.56
sI2
F0.56
sI3
F0.56
sI4
F0.56
sI5
F0.56
sI6
F0.56
sI7
F0.56
sI8
F0.56
sI9
F0.56
sI10
F0.56
sI11
F0.56
sI12
F0.56
sI13
F0.56
sI14
F0.56
sI15
F0.56
sI16
F0.56
sI17
F0.56
sI18
F0.56
sI19
F0.56
sI20
F0.56
sI21
F0.56
sI22
F0.56
sI23
F0.56
sI24
F0.56
sI25
F0.56
sI26
F0.56
sI27
F0.56
sI28
F0.56
sI29
F0.56
sI30
F0.56
sI31
F0.56
sI32
F0.56
sI33
F0.56
sI34
F0.56
sI35
F0.56
sI36
F0.56
sI37
F0.56
sI38
F0.56
sI39
F0.56
sI40
F0.56
sI41
F0.56
sI42
F0.56
sI43
F0.56
sI44
F0.56
sI45
F0.56
sI46
F0.56
sI47
F0.56
sI48
F0.56
sI49
F0.56
sI50
F0.56
sI51
F0.56
sI52
F0.56
sI53
F0.56
sI54
F0.56
sI55
F0.56
sI56
F0.56
sI57
F0.56
sI58
F0.56
sI59
F0.56
sI60
F0.56
sI61
F0.56
sI62
F0.56
sI63
F0.56
sI64
F0.56
sI65
F0.56
sI66
F0.56
sI67
F0.56
sI68
F0.56
sI69
F0.56
sI70
F0.56
sI71
F0.56
sI72
F0.56
sI73
F0.56
sI74
F0.56
sI75
F0.56
sI76
F0.56
sI77
F0.56
sI78
F0.56
sI79
F0.56
sI80
F0.56
sI81
F0.56
sI82
F0.56
sI83
F0.56
sI84
F0.56
sI85
F0.56
sI86
F0.56
sI87
F0.56
sI88
F0.56
sI89
F0.56
sI90
F0.56
sI91
F0.56
sI92
F0.56
sI93
F0.56
sI94
F0.56
sI95
F0.56
sI96
F0.56
sI97
F0.56
sI98
F0.56
sI99
F0.56
sI100
F0.56
sI101
F0.56
sI102
F0.56
sI103
F0.56
sI104
F0.56
sI105
F0.56
sI106
F0.56
sI107
F0.56
sI108
F0.56
sI109
F0.56
sI110
F0.56
sI111
F0.56
sI112
F0.56
sI113
F0.56
sI114
F0.56
sI115
F0.56
sI116
F0.56
sI117
F0.56
sI118
F0.56
sI119
F0.56
sI120
F0.56
sI121
F0.56
sI122
F0.56
sI123
F0.56
sI124
F0.56
sI125
F0.56
sI126
F0.56
sI127
F0.56
sI128
F0.56
sI129
F0.56
sI130
F0.56
sI131
F0.56
sI132
F0.56
sI133
F0.56
sI134
F0.56
sI135
F0.56
sI136
F0.56
sI137
F0.56
sI138
F0.56
sI139
F0.56
sI140
F0.56
sI141
F0.56
sI142
F0.56
sI143
F0.56
sI144
F0.56
sI145
F0.56
sI146
F0.56
sI147
F0.56
sI148
F0.56
sI149
F0.56
sI150
F0.56
sI151
F0.56
sI152
F0.56
sI153
F0.56
sI154
F0.56
sI155
F0.56
sI156
F0.56
sI157
F0.56
sI158
F0.56
sI159
F0.56
sI160
F0.56
sI161
F0.56
sI162
F0.56
sI163
F0.56
sI164
F0.56
sI165
F0.56
sI166
F0.56
sI167
F0.56
sI168
F0.56
sI169
F0.56
sI170
F0.56
sI171
F0.56
sI172
F0.56
sI173
F0.56
sI174
F0.56
sI175
F0.56
sI176
F0.56
sI177
F0.56
sI178
F0.56
sI179
F0.56
sI180
F0.56
sI181
F0.56
sI182
F0.56
sI183
F0.56
sI184
F0.56
sI185
F0.56
sI186
F0.56
sI187
F0.56
sI188
F0.56
sI189
F0.56
sI190
F0.56
sI191
F0.56
sI192
F0.56
sI193
F0.56
sI194
F0.56
sI195
F0.56
sI196
F0.56
sI197
F0.56
sI198
F0.56
sI199
F0.56
sI200
F0.56
sI201
F0.56
sI202
F0.56
sI203
F0.56
sI204
F0.56
sI205
F0.56
sI206
F0.56
sI207
F0.56
sI208
F0.56
sI209
F0.56
sI210
F0.56
sI211
F0.56
sI212
F0.56
sI213
F0.56
sI214
F0.56
sI215
F0.56
sI216
F0.56
sI217
F0.56
sI218
F0.56
sI219
F0.56
sI220
F0.56
sI221
F0.56
sI222
F0.56
sI223
F0.56
sI224
F0.56
sI225
F0.56
sI226
F0.56
sI227
F0.56
sI228
F0.56
sI229
F0.56
sI230
F0.56
sI231
F0.56
sI232
F0.56
sI233
F0.56
sI234
F0.56
sI235
F0.56
sI236
F0.56
sI237
F0.56
sI238
F0.56
sI239
F0.56
sI240
F0.56
sI241
F0.56
sI242
F0.56
sI243
F0.56
sI244
F0.56
sI245
F0.56
sI246
F0.56
sI247
F0.56
sI248
F0.56
sI249
F0.56
sI250
F0.56
sI251
F0.56
sI252
F0.56
sI253
F0.56
sI254
F0.56
sI255
F0.56
sI256
F0.56
sI257
F0.56
sI258
F0.56
sI259
F0.56
sI260
F0.56
sI261
F0.56
sI262
F0.56
sI263
F0.56
sI264
F0.56
sI265
F0.56
sI266
F0.56
sI267
F0.56
sI268
F0.56
sI269
F0.56
sI270
F0.56
sI271
F0.56
sI272
F0.56
sI273
F0.56
sI274
F0.56
sI275
F0.56
sI276
F0.56
sI277
F0.56
sI278
F0.56
sI279
F0.56
sI280
F0.56
sI281
F0.56
sI282
F0.56
sI283
F0.56
sI284
F0.56
sI285
F0.56
sI286
F0.56
sI287
F0.56
sI288
F0.56
sI289
F0.56
sI290
F0.56
sI291
F0.56
sI292
F0.56
sI293
F0.56
sI294
F0.56
sI295
F0.56
sI296
F0.56
sI297
F0.56
sI298
F0.56
sI299
F0.56
sI300
F0.56
sI301
F0.56
sI302
F0.56
sI303
F0.56
sI304
F0.56
sI305
F0.56
sI306
F0.56
sI307
F0.56
sI308
F0.56
sI309
F0.56
sI310
F0.56
sI311
F0.56
sI312
F0.56
sI313
F0.56
sI314
F0.56
sI315
F0.56
sI316
F0.56
sI317
F0.56
sI318
F0.56
sI319
F0.56
sI320
F0.56
sI321
F0.56
sI322
F0.56
sI323
F0.56
sI324
F0.56
sI325
F0.56
sI326
F0.56
sI327
F0.56
sI328
F0.56
sI329
F0.56
sI330
F0.56
sI331
F0.56
sI332
F0.56
sI333
F0.56
sI334
F0.56
sI335
F0.56
sI336
F0.56
sI337
F0.56
sI338
F0.56
sI339
F0.56
sI340
F0.56
sI341
F0.56
sI342
F0.56
sI343
F0.56
sI344
F0.56
sI345
F0.56
sI346
F0.56
sI347
F0.56
sI348
F0.56
sI349
F0.56
sI350
F0.56
sI351
F0.56
sI352
F0.56
sI353
F0.56
sI354
F0.56
sI355
F0.56
sI356
F0.56
sI357
F0.56
sI358
F0.56
sI359
F0.56
sI360
F0.56
sI361
F0.56
sI362
F0.56
sI363
F0.56
sI364
F0.56
sI365
F0.56
sI366
F0.56
sI367
F0.56
sI368
F0.56
sI369
F0.56
sI370
F0.56
sI371
F0.56
sI372
F0.56
sI373
F0.56
sI374
F0.56
sI375
F0.56
sI376
F0.56
sI377
F0.56
sI378
F0.56
sI379
F0.56
sI380
F0.56
sI381
F0.56
sI382
F0.56
sI383
F0.56
sI384
F0.56
sI385
F0.56
sI386
F0.56
sI387
F0.56
sI388
F0.56
sI389
F0.56
sI390
F0.56
sI391
F0.56
sI392
F0.56
sI393
F0.56
sI394
F0.56
sI395
F0.56
sI396
F0.56
sI397
F0.56
sI398
F0.56
sI399
F0.56
sI400
F0.56
sI401
F0.56
sI402
F0.56
sI403
F0.56
sI404
F0.56
sI405
F0.56
sI406
F0.56
sI407
F0.56
sI408
F0.56
sI409
F0.56
sI410
F0.56
sI411
F0.56
sI412
F0.56
sI413
F0.56
sI414
F0.56
sI415
F0.56
sI416
F0.56
sI417
F0.56
sI418
F0.56
sI419
F0.56
sI420
F0.56
sI421
F0.56
sI422
F0.56
sI423
F0.56
sI424
F0.56
sI425
F0.56
sI426
F0.56
sI427
F0.56
sI428
F0.56
sI429
F0.56
sI430
F0.56
sI431
F0.56
sI432
F0.56
sI433
F0.56
sI434
F0.56
sI435
F0.56
sI436
F0.56
sI437
F0.56
sI438
F0.56
sI439
F0.56
sI440
F0.56
sI441
F0.56
sI442
F0.56
sI443
F0.56
sI444
F0.56
sI445
F0.56
sI446
F0.56
sI447
F0.56
sI448
F0.56
sI449
F0.56
sI450
F0.56
sI451
F0.56
sI452
F0.56
sI453
F0.56
sI454
F0.56
sI455
F0.56
sI456
F0.56
sI457
F0.56
sI458
F0.56
sI459
F0.56
sI460
F0.56
sI461
F0.56
sI462
F0.56
sI463
F0.56
sI464
F0.56
sI465
F0.56
sI466
F0.56
sI467
F0.56
sI468
F0.56
sI469
F0.56
sI470
F0.56
sI471
F0.56
sI472
F0.56
sI473
F0.56
sI474
F0.56
sI475
F0.56
sI476
F0.56
sI477
F0.56
sI478
F0.56
sI479
F0.56
sI480
F0.56
sI481
F0.56
sI482
F0.56
sI483
F0.56
sI484
F0.56
sI485
F0.56
sI486
F0.56
sI487
F0.56
sI488
F0.56
sI489
F0.56
sI490
F0.56
sI491
F0.56
sI492
F0.56
sI493
F0.56
sI494
F0.56
sI495
F0.56
sI496
F0.56
sI497
F0.56
sI498
F0.56
sI499
F0.56
sI500
F0.56
sI501
F0.56
sI502
F0.56
sI503
F0.56
sI504
F0.56
sI505
F0.56
sI506
F0.56
sI507
F0.56
sI508
F0.56
sI509
F0.56
sI510
F0.56
sI511
F0.56
sI512
F0.56
sI513
F0.56
sI514
F0.56
sI515
F0.56
sI516
F0.56
sI517
F0.56
sI518
F0.56
sI519
F0.56
sI520
F0.56
sI521
F0.56
sI522
F0.56
sI523
F0.56
sI524
F0.56
sI525
F0.56
sI526
F0.56
sI527
F0.56
sI528
F0.56
sI529
F0.56
sI530
F0.56
sI531
F0.56
sI532
F0.621
sI533
F0.621
sI534
F0.621
sI535
F0.621
sI536
F0.621
sI537
F0.621
sI538
F0.621
sI539
F0.621
sI540
F0.621
sI541
F0.621
sI542
F0.621
sI543
F0.621
sI544
F0.621
sI545
F0.621
sI546
F0.621
sI547
F0.621
sI548
F0.621
sI549
F0.621
sI550
F0.621
sI551
F0.621
sI552
F0.621
sI553
F0.621
sI554
F0.621
sI555
F0.621
sI556
F0.621
sI557
F0.621
sI558
F0.621
sI559
F0.621
sI560
F0.621
sI561
F0.621
sI562
F0.621
sI563
F0.621
sI564
F0.621
sI565
F0.621
sI566
F0.621
sI567
F0.621
sI568
F0.621
sI569
F0.621
sI570
F0.621
sI571
F0.621
sI572
F0.621
sI573
F0.621
sI574
F0.621
sI575
F0.621
sI576
F0.621
sI577
F0.621
sI579
F0.621
sI580
F0.621
sI581
F0.621
sI582
F0.621
sI583
F0.621
sI584
F0.621
sI585
F0.621
sI586
F0.621
sI587
F0.621
sI588
F0.621
sI589
F0.621
sI590
F0.621
sI591
F0.621
sI592
F0.621
sI593
F0.621
sI594
F0.621
sI595
F0.621
sI596
F0.621
sI597
F0.621
sI598
F0.621
sI599
F0.621
sI600
F0.621
sI601
F0.621
sI602
F0.621
sI603
F0.621
sI604
F0.621
sI605
F0.621
sI606
F0.621
sI607
F0.621
sI608
F0.621
sI609
F0.621
sI610
F0.621
sI611
F0.621
sI612
F0.621
sI613
F0.621
sI614
F0.621
sI615
F0.621
sI616
F0.621
sI617
F0.621
sI618
F0.621
sI619
F0.621
sI620
F0.621
sI621
F0.621
sI622
F0.621
sI623
F0.621
sI624
F0.621
sI625
F0.621
sI626
F0.621
sI627
F0.621
sI628
F0.621
sI629
F0.621
sI630
F0.621
sI631
F0.621
sI632
F0.621
sI633
F0.621
sI634
F0.621
sI635
F0.621
sI636
F0.621
sI637
F0.621
sI638
F0.621
sI639
F0.621
sI640
F0.621
sI641
F0.621
sI642
F0.621
sI643
F0.621
sI644
F0.621
sI645
F0.621
sI646
F0.621
sI647
F0.621
sI648
F0.621
sI649
F0.621
sI650
F0.621
sI651
F0.621
sI652
F0.621
sI653
F0.621
sI654
F0.621
sI655
F0.621
sI656
F0.621
sI657
F0.621
sI658
F0.621
sI659
F0.621
sI660
F0.621
sI661
F0.621
sI662
F0.621
sI663
F0.621
sI664
F0.621
sI665
F0.621
sI666
F0.621
sI667
F0.621
sI668
F0.621
sI669
F0.621
sI670
F0.621
sI671
F0.621
sI672
F0.621
sI673
F0.621
sI674
F0.621
sI675
F0.621
sI676
F0.621
sI677
F0.621
sI678
F0.621
sI679
F0.621
sI680
F0.621
sI681
F0.621
sI682
F0.621
sI683
F0.621
sI684
F0.621
sI685
F0.621
sI686
F0.621
sI687
F0.621
sI688
F0.621
sI689
F0.621
sI690
F0.621
sI691
F0.621
sI692
F0.621
sI693
F0.621
sI694
F0.621
sI695
F0.621
sI696
F0.621
sI697
F0.621
sI698
F0.621
sI699
F0.621
sI700
F0.621
sI701
F0.621
sI702
F0.621
sI703
F0.621
sI704
F0.621
sI705
F0.621
sI706
F0.621
sI707
F0.621
sI708
F0.621
sI709
F0.621
sI710
F0.621
sI711
F0.621
sI712
F0.621
sI713
F0.621
sI714
F0.621
sI715
F0.621
sI716
F0.621
sI717
F0.621
sI718
F0.621
sI719
F0.621
sI720
F0.621
sI721
F0.621
sI722
F0.621
sI723
F0.621
sI724
F0.621
sI725
F0.621
sI726
F0.621
sI727
F0.621
sI728
F0.621
sI729
F0.621
sI730
F0.621
sI731
F0.621
sI732
F0.621
sI733
F0.621
sI734
F0.621
sI735
F0.621
sI736
F0.621
sI737
F0.621
sI738
F0.621
sI739
F0.621
sI740
F0.621
sI741
F0.621
sI742
F0.621
sI743
F0.621
sI744
F0.621
sI745
F0.621
sI746
F0.621
sI747
F0.621
sI748
F0.621
sI749
F0.621
sI750
F0.621
sI751
F0.621
sI752
F0.621
sI753
F0.621
sI754
F0.621
sI755
F0.621
sI756
F0.621
sI757
F0.621
sI758
F0.621
sI759
F0.621
sI760
F0.621
sI761
F0.621
sI762
F0.621
sI763
F0.621
sI764
F0.621
sI765
F0.621
sI766
F0.621
sI767
F0.621
sI768
F0.621
sI769
F0.621
sI770
F0.621
sI771
F0.621
sI772
F0.621
sI773
F0.621
sI774
F0.621
sI775
F0.621
sI776
F0.621
sI777
F0.621
sI778
F0.621
sI779
F0.621
sI780
F0.621
sI781
F0.621
sI782
F0.621
sI783
F0.621
sI784
F0.621
sI785
F0.621
sI786
F0.621
sI787
F0.621
sI788
F0.621
sI789
F0.621
sI790
F0.621
sI791
F0.621
sI792
F0.621
sI793
F0.621
sI794
F0.621
sI795
F0.621
sI796
F0.621
sI797
F0.621
sI798
F0.621
sI799
F0.621
sI800
F0.621
sI801
F0.621
sI802
F0.621
sI803
F0.621
sI804
F0.621
sI805
F0.621
sI806
F0.621
sI807
F0.621
sI808
F0.621
sI809
F0.621
sI810
F0.621
sI811
F0.621
sI812
F0.621
sI813
F0.621
sI814
F0.621
sI815
F0.621
sI816
F0.621
sI817
F0.621
sI818
F0.621
sI819
F0.621
sI820
F0.621
sI821
F0.621
sI822
F0.621
sI823
F0.621
sI824
F0.621
sI825
F0.621
sI826
F0.621
sI827
F0.621
sI828
F0.621
sI829
F0.621
sI830
F0.621
sI831
F0.621
sI832
F0.621
sI833
F0.621
sI834
F0.621
sI835
F0.621
sI836
F0.621
sI837
F0.621
sI838
F0.621
sI839
F0.621
sI840
F0.621
sI841
F0.621
sI842
F0.621
sI843
F0.621
sI844
F0.621
sI845
F0.621
sI846
F0.621
sI847
F0.621
sI848
F0.621
sI849
F0.621
sI850
F0.621
sI851
F0.621
sI852
F0.621
sI853
F0.621
sI854
F0.621
sI855
F0.621
sI856
F0.621
sI857
F0.621
sI858
F0.621
sI859
F0.621
sI860
F0.621
sI861
F0.621
sI862
F0.621
sI863
F0.621
sI864
F0.621
sI865
F0.621
sI866
F0.621
sI867
F0.621
sI868
F0.621
sI869
F0.621
sI870
F0.621
sI871
F0.621
sI872
F0.621
sI873
F0.621
sI874
F0.621
sI875
F0.621
sI876
F0.621
sI877
F0.621
sI878
F0.621
sI879
F0.621
sI880
F0.621
sI881
F0.621
sI882
F0.621
sI883
F0.621
sI884
F0.621
sI885
F0.621
sI886
F0.621
sI887
F0.621
sI888
F0.621
sI889
F0.621
sI890
F0.621
sI891
F0.621
sI892
F0.621
sI893
F0.621
sI894
F0.621
sI895
F0.621
sI896
F0.621
sI897
F0.621
sI898
F0.621
sI899
F0.621
sI900
F0.621
sI901
F0.621
sI902
F0.621
sI903
F0.621
sI904
F0.621
sI905
F0.621
sI906
F0.621
sI907
F0.621
sI908
F0.621
sI909
F0.621
sI910
F0.621
sI911
F0.621
sI912
F0.621
sI913
F0.621
sI914
F0.621
sI915
F0.621
sI916
F0.621
sI917
F0.621
sI918
F0.621
sI919
F0.621
sI920
F0.621
sI921
F0.621
sI922
F0.621
sI923
F0.621
sI924
F0.621
sI925
F0.621
sI926
F0.621
sI927
F0.621
sI928
F0.621
sI929
F0.621
sI930
F0.621
sI931
F0.621
sI932
F0.621
sI933
F0.621
sI934
F0.621
sI935
F0.621
sI936
F0.621
sI937
F0.621
sI938
F0.621
sI939
F0.621
sI940
F0.621
sI941
F0.621
sI942
F0.621
sI943
F0.621
sI944
F0.621
sI945
F0.621
sI946
F0.621
sI947
F0.621
sI948
F0.621
sI949
F0.621
sI950
F0.621
sI951
F0.621
sI952
F0.621
sI953
F0.621
sI954
F0.621
sI955
F0.621
sI956
F0.621
sI957
F0.621
sI958
F0.621
sI959
F0.621
sI960
F0.621
sI961
F0.621
sI962
F0.621
sI963
F0.621
sI964
F0.621
sI965
F0.621
sI966
F0.621
sI967
F0.621
sI968
F0.621
sI969
F0.621
sI970
F0.621
sI971
F0.621
sI972
F0.621
sI973
F0.621
sI974
F0.621
sI975
F0.621
sI976
F0.621
sI977
F0.621
sI978
F0.621
sI979
F0.621
sI980
F0.621
sI981
F0.621
sI982
F0.621
sI983
F0.621
sI984
F0.621
sI985
F0.621
sI986
F0.621
sI987
F0.621
sI988
F0.621
sI989
F0.621
sI990
F0.621
sI991
F0.621
sI992
F0.621
sI993
F0.621
sI994
F0.621
sI995
F0.621
sI996
F0.621
sI997
F0.621
sI998
F0.621
sI999
F0.621
ss.