(dp0
S'optdigits'
p1
(lp2
F0.0
aF0.0
aF0.0
aF0.0
aF0.006
aF0.009
aF0.012
aF0.012
aF0.019
aF0.025
aF0.025
aF0.025
aF0.036
aF0.044
aF0.044
aF0.048
aF0.048
aF0.054
aF0.068
aF0.162
aF0.171
asS'satellite'
p3
(lp4
F0.0
aF0.0
aF0.0
aF0.0
aF0.0
aF0.0
aF0.0
aF0.0
aF0.0
aF0.002
aF0.002
aF0.006
aF0.061
aF0.079
aF0.124
aF0.132
aF0.132
aF0.138
aF0.139
aF0.139
aF0.186
asS'covtype'
p5
(lp6
F0.0
aF0.0
aF0.0
aF0.0
aF0.0
aF0.0
aF0.0
aF0.0
aF0.0
aF0.0
aF0.0
aF0.0
aF0.0
aF0.0
aF0.0
aF0.0
aF0.001
aF0.149
aF0.155
aF0.158
aF0.191
asS'pendigits'
p7
(lp8
F0.0
aF0.0
aF0.0
aF0.0
aF0.0
aF0.0
aF0.0
aF0.0
aF0.0
aF0.003
aF0.003
aF0.003
aF0.003
aF0.003
aF0.004
aF0.006
aF0.01
aF0.014
aF0.014
aF0.017
aF0.041
asS'cancer'
p9
(lp10
F0.032
aF0.035
aF0.035
aF0.039
aF0.039
aF0.049
aF0.049
aF0.052
aF0.062
aF0.064
aF0.064
aF0.072
aF0.075
aF0.084
aF0.084
aF0.129
aF0.135
aF0.16
aF0.171
aF0.196
aF0.208
asS'diabetic'
p11
(lp12
F0.267
aF0.274
aF0.279
aF0.282
aF0.292
aF0.296
aF0.3
aF0.33
aF0.353
aF0.354
aF0.356
aF0.361
aF0.361
aF0.374
aF0.374
aF0.382
aF0.388
aF0.397
aF0.399
aF0.399
aF0.468
asS'waveform'
p13
(lp14
F0.081
aF0.081
aF0.082
aF0.082
aF0.083
aF0.084
aF0.084
aF0.084
aF0.087
aF0.091
aF0.099
aF0.11
aF0.114
aF0.117
aF0.149
aF0.156
aF0.165
aF0.166
aF0.227
aF0.227
aF0.271
asS'adult'
p15
(lp16
F0.169
aF0.186
aF0.198
aF0.216
aF0.217
aF0.235
aF0.236
aF0.241
aF0.242
aF0.245
aF0.246
aF0.246
aF0.246
aF0.254
aF0.254
aF0.262
aF0.298
aF0.298
aF0.315
aF0.326
aF0.326
asS'shuttle'
p17
(lp18
F0.001
aF0.001
aF0.002
aF0.004
aF0.005
aF0.007
aF0.007
aF0.009
aF0.011
aF0.012
aF0.012
aF0.016
aF0.038
aF0.039
aF0.04
aF0.041
aF0.045
aF0.045
aF0.101
aF0.103
aF0.134
as.