(dp0
S'optdigits'
p1
(dp2
S'DT'
p3
(lp4
F0.038
aF0.022
aF0.018
aF0.012
aF0.031
aF0.017
aF0.022
aF0.014
aF0.024
aF0.025
aF0.022
aF0.019
aF0.038
aF0.019
aF0.033
aF0.019
aF0.009
aF0.027
aF0.03
aF0.019
asS'SVM'
p5
(lp6
F0.0
aF0.0
aF0.006
aF0.006
aF0.006
aF0.0
aF0.0
aF0.0
aF0.006
aF0.006
aF0.0
aF0.0
aF0.0
aF0.0
aF0.0
aF0.0
aF0.0
aF0.0
aF0.006
aF0.006
asS'RF'
p7
(lp8
F0.006
aF0.006
aF0.006
aF0.012
aF0.006
aF0.009
aF0.0
aF0.0
aF0.0
aF0.006
aF0.006
aF0.014
aF0.006
aF0.0
aF0.018
aF0.006
aF0.0
aF0.012
aF0.006
aF0.014
asS'FFT-Dist2Heaven'
p9
(lp10
F0.13
aF0.148
aF0.168
aF0.149
aF0.15
aF0.185
aF0.114
aF0.13
aF0.081
aF0.161
aF0.203
aF0.142
aF0.168
aF0.057
aF0.137
aF0.179
aF0.142
aF0.112
aF0.137
aF0.145
assS'satellite'
p11
(dp12
S'DT'
p13
(lp14
F0.055
aF0.03
aF0.024
aF0.007
aF0.02
aF0.041
aF0.036
aF0.045
aF0.031
aF0.033
aF0.022
aF0.03
aF0.033
aF0.027
aF0.025
aF0.018
aF0.064
aF0.025
aF0.015
aF0.027
asS'SVM'
p15
(lp16
F0.006
aF0.012
aF0.006
aF0.0
aF0.011
aF0.0
aF0.004
aF0.012
aF0.009
aF0.013
aF0.002
aF0.006
aF0.004
aF0.024
aF0.004
aF0.012
aF0.011
aF0.007
aF0.0
aF0.011
asS'RF'
p17
(lp18
F0.004
aF0.009
aF0.009
aF0.002
aF0.009
aF0.007
aF0.007
aF0.004
aF0.004
aF0.011
aF0.002
aF0.004
aF0.006
aF0.007
aF0.011
aF0.011
aF0.006
aF0.007
aF0.007
aF0.009
asg9
(lp19
F0.254
aF0.24
aF0.247
aF0.222
aF0.28
aF0.262
aF0.249
aF0.264
aF0.218
aF0.289
aF0.256
aF0.251
aF0.221
aF0.252
aF0.261
aF0.253
aF0.256
aF0.235
aF0.243
aF0.232
assS'covtype'
p20
(dp21
S'DT'
p22
(lp23
F0.0
aF0.0
aF0.0
aF0.0
aF0.0
aF0.0
aF0.0
aF0.0
aF0.0
aF0.0
aF0.0
aF0.0
aF0.0
aF0.0
aF0.0
aF0.0
aF0.0
aF0.0
aF0.0
aF0.0
asS'SVM'
p24
(lp25
F0.0
aF0.0
aF0.0
aF0.0
aF0.0
aF0.0
aF0.0
aF0.0
aF0.0
aF0.0
aF0.0
aF0.0
aF0.0
aF0.0
aF0.0
aF0.0
aF0.0
aF0.0
aF0.0
aF0.0
asS'RF'
p26
(lp27
F0.0
aF0.0
aF0.0
aF0.0
aF0.0
aF0.0
aF0.0
aF0.0
aF0.0
aF0.0
aF0.0
aF0.0
aF0.0
aF0.0
aF0.0
aF0.0
aF0.0
aF0.0
aF0.0
aF0.0
asg9
(lp28
F0.059
aF0.0
aF0.0
aF0.0
aF0.0
aF0.0
aF0.001
aF0.001
aF0.0
aF0.0
aF0.0
aF0.001
aF0.061
aF0.054
aF0.0
aF0.001
aF0.0
aF0.056
aF0.0
aF0.061
assS'pendigits'
p29
(dp30
S'DT'
p31
(lp32
F0.0
aF0.0
aF0.0
aF0.0
aF0.0
aF0.0
aF0.003
aF0.003
aF0.0
aF0.003
aF0.003
aF0.0
aF0.003
aF0.006
aF0.0
aF0.0
aF0.0
aF0.0
aF0.006
aF0.0
asS'SVM'
p33
(lp34
F0.0
aF0.0
aF0.0
aF0.0
aF0.0
aF0.0
aF0.0
aF0.0
aF0.0
aF0.0
aF0.0
aF0.0
aF0.0
aF0.0
aF0.0
aF0.0
aF0.0
aF0.0
aF0.0
aF0.0
asS'RF'
p35
(lp36
F0.0
aF0.0
aF0.0
aF0.003
aF0.0
aF0.0
aF0.0
aF0.0
aF0.0
aF0.003
aF0.0
aF0.0
aF0.0
aF0.004
aF0.0
aF0.0
aF0.0
aF0.0
aF0.0
aF0.0
asg9
(lp37
F0.256
aF0.26
aF0.26
aF0.234
aF0.235
aF0.243
aF0.275
aF0.203
aF0.281
aF0.203
aF0.234
aF0.256
aF0.277
aF0.248
aF0.227
aF0.246
aF0.245
aF0.242
aF0.244
aF0.235
assS'cancer'
p38
(dp39
S'DT'
p40
(lp41
F0.039
aF0.045
aF0.136
aF0.046
aF0.053
aF0.076
aF0.071
aF0.079
aF0.085
aF0.105
aF0.093
aF0.064
aF0.094
aF0.088
aF0.068
aF0.084
aF0.077
aF0.055
aF0.068
aF0.091
asS'SVM'
p42
(lp43
F0.028
aF0.034
aF0.039
aF0.019
aF0.029
aF0.019
aF0.019
aF0.034
aF0.02
aF0.029
aF0.0
aF0.019
aF0.034
aF0.029
aF0.029
aF0.019
aF0.019
aF0.029
aF0.039
aF0.034
asS'RF'
p44
(lp45
F0.05
aF0.097
aF0.099
aF0.039
aF0.019
aF0.031
aF0.041
aF0.042
aF0.046
aF0.053
aF0.071
aF0.052
aF0.059
aF0.068
aF0.06
aF0.071
aF0.052
aF0.042
aF0.019
aF0.058
asg9
(lp46
F0.246
aF0.275
aF0.271
aF0.15
aF0.17
aF0.226
aF0.157
aF0.24
aF0.232
aF0.212
aF0.235
aF0.197
aF0.17
aF0.299
aF0.182
aF0.206
aF0.197
aF0.269
aF0.22
aF0.22
assS'diabetic'
p47
(dp48
S'DT'
p49
(lp50
F0.352
aF0.358
aF0.445
aF0.358
aF0.37
aF0.402
aF0.354
aF0.433
aF0.337
aF0.359
aF0.406
aF0.429
aF0.384
aF0.34
aF0.398
aF0.389
aF0.376
aF0.371
aF0.393
aF0.367
asS'SVM'
p51
(lp52
F0.36
aF0.268
aF0.306
aF0.281
aF0.293
aF0.311
aF0.289
aF0.276
aF0.268
aF0.342
aF0.293
aF0.337
aF0.304
aF0.274
aF0.297
aF0.315
aF0.302
aF0.285
aF0.316
aF0.297
asS'RF'
p53
(lp54
F0.321
aF0.362
aF0.335
aF0.315
aF0.305
aF0.362
aF0.329
aF0.347
aF0.367
aF0.349
aF0.356
aF0.379
aF0.355
aF0.31
aF0.331
aF0.376
aF0.335
aF0.326
aF0.366
aF0.351
asg9
(lp55
F0.508
aF0.452
aF0.551
aF0.476
aF0.478
aF0.492
aF0.473
aF0.487
aF0.476
aF0.495
aF0.436
aF0.507
aF0.505
aF0.409
aF0.503
aF0.435
aF0.532
aF0.454
aF0.506
aF0.506
assS'waveform'
p56
(dp57
S'DT'
p58
(lp59
F0.134
aF0.154
aF0.141
aF0.138
aF0.118
aF0.147
aF0.158
aF0.137
aF0.113
aF0.138
aF0.12
aF0.144
aF0.134
aF0.138
aF0.122
aF0.136
aF0.156
aF0.146
aF0.158
aF0.137
asS'SVM'
p60
(lp61
F0.082
aF0.08
aF0.08
aF0.082
aF0.081
aF0.078
aF0.09
aF0.082
aF0.064
aF0.09
aF0.075
aF0.071
aF0.085
aF0.087
aF0.079
aF0.08
aF0.088
aF0.073
aF0.07
aF0.089
asS'RF'
p62
(lp63
F0.124
aF0.121
aF0.104
aF0.126
aF0.121
aF0.124
aF0.113
aF0.122
aF0.082
aF0.108
aF0.101
aF0.096
aF0.12
aF0.111
aF0.094
aF0.107
aF0.109
aF0.109
aF0.127
aF0.121
asg9
(lp64
F0.403
aF0.372
aF0.37
aF0.382
aF0.393
aF0.424
aF0.374
aF0.401
aF0.421
aF0.375
aF0.352
aF0.373
aF0.407
aF0.406
aF0.377
aF0.372
aF0.382
aF0.412
aF0.387
aF0.416
assS'adult'
p65
(dp66
S'DT'
p67
(lp68
F0.293
aF0.288
aF0.289
aF0.291
aF0.307
aF0.287
aF0.292
aF0.291
aF0.29
aF0.292
aF0.29
aF0.291
aF0.289
aF0.293
aF0.293
aF0.295
aF0.294
aF0.287
aF0.285
aF0.289
asS'SVM'
p69
(lp70
F0.198
aF0.187
aF0.196
aF0.219
aF0.197
aF0.194
aF0.202
aF0.207
aF0.19
aF0.205
aF0.19
aF0.192
aF0.199
aF0.204
aF0.201
aF0.201
aF0.204
aF0.208
aF0.195
aF0.193
asS'RF'
p71
(lp72
F0.203
aF0.205
aF0.214
aF0.204
aF0.211
aF0.208
aF0.21
aF0.203
aF0.206
aF0.207
aF0.201
aF0.204
aF0.201
aF0.208
aF0.211
aF0.204
aF0.207
aF0.214
aF0.198
aF0.201
asg9
(lp73
F0.354
aF0.344
aF0.36
aF0.355
aF0.359
aF0.354
aF0.353
aF0.351
aF0.362
aF0.354
aF0.358
aF0.354
aF0.352
aF0.35
aF0.359
aF0.353
aF0.357
aF0.359
aF0.351
aF0.353
assS'shuttle'
p74
(dp75
S'DT'
p76
(lp77
F0.0
aF0.001
aF0.0
aF0.001
aF0.0
aF0.0
aF0.001
aF0.0
aF0.0
aF0.0
aF0.0
aF0.0
aF0.0
aF0.001
aF0.0
aF0.0
aF0.0
aF0.0
aF0.0
aF0.001
asS'SVM'
p78
(lp79
F0.073
aF0.063
aF0.061
aF0.072
aF0.063
aF0.064
aF0.067
aF0.072
aF0.061
aF0.065
aF0.064
aF0.069
aF0.066
aF0.064
aF0.071
aF0.066
aF0.068
aF0.059
aF0.066
aF0.073
asS'RF'
p80
(lp81
F0.0
aF0.0
aF0.0
aF0.0
aF0.0
aF0.0
aF0.0
aF0.0
aF0.0
aF0.0
aF0.0
aF0.0
aF0.0
aF0.0
aF0.0
aF0.0
aF0.0
aF0.0
aF0.0
aF0.0
asg9
(lp82
F0.31
aF0.313
aF0.313
aF0.315
aF0.32
aF0.316
aF0.315
aF0.315
aF0.315
aF0.316
aF0.311
aF0.314
aF0.317
aF0.315
aF0.315
aF0.315
aF0.318
aF0.313
aF0.318
aF0.315
ass.