(dp0
S'temp'
p1
(dp2
F0.1
(lp3
F0.222
aF0.222
aF0.222
aF0.222
aF0.222
aF0.222
aF0.222
aF0.222
aF0.222
aF0.222
aF0.222
aF0.222
aF0.222
aF0.222
aF0.222
aF0.222
aF0.222
aF0.222
aF0.222
aF0.222
aF0.222
aF0.222
aF0.222
aF0.222
aF0.222
aF0.222
aF0.222
aF0.222
aF0.222
aF0.222
aF0.222
aF0.222
aF0.222
aF0.222
aF0.222
aF0.222
aF0.222
aF0.222
aF0.222
aF0.222
aF0.222
aF0.222
aF0.222
aF0.222
aF0.222
aF0.222
aF0.222
aF0.222
aF0.222
aF0.222
aF0.222
aF0.222
aF0.222
aF0.222
aF0.222
aF0.222
aF0.222
aF0.222
aF0.222
aF0.222
aF0.222
aF0.222
aF0.222
aF0.222
aF0.222
aF0.222
aF0.222
aF0.222
aF0.222
aF0.222
aF0.222
aF0.222
aF0.222
aF0.222
aF0.222
aF0.222
aF0.222
aF0.222
aF0.222
aF0.222
aF0.222
aF0.222
aF0.222
aF0.222
aF0.222
aF0.222
aF0.222
aF0.222
aF0.222
aF0.222
aF0.222
aF0.222
aF0.222
aF0.222
aF0.222
aF0.222
aF0.222
aF0.222
aF0.222
aF0.222
aF0.222
aF0.222
aF0.222
aF0.222
aF0.222
aF0.222
aF0.222
aF0.222
aF0.222
aF0.222
aF0.222
aF0.222
aF0.222
aF0.222
aF0.222
aF0.222
aF0.222
aF0.222
aF0.222
aF0.222
aF0.222
aF0.222
aF0.222
aF0.222
aF0.222
aF0.222
aF0.222
aF0.222
aF0.222
aF0.222
aF0.222
aF0.222
aF0.222
aF0.222
aF0.222
aF0.222
aF0.222
aF0.222
aF0.222
aF0.222
aF0.222
aF0.222
aF0.222
aF0.222
aF0.222
aF0.222
aF0.222
aF0.222
aF0.222
aF0.222
aF0.222
aF0.222
aF0.222
aF0.222
aF0.222
aF0.222
aF0.222
aF0.222
aF0.222
aF0.222
aF0.222
aF0.222
aF0.222
aF0.222
aF0.222
aF0.222
aF0.222
aF0.222
aF0.222
aF0.222
aF0.222
aF0.222
aF0.222
aF0.222
aF0.222
aF0.222
aF0.222
aF0.222
aF0.222
aF0.222
aF0.222
aF0.222
aF0.222
aF0.222
aF0.222
aF0.222
aF0.222
aF0.222
aF0.222
aF0.222
aF0.222
aF0.222
aF0.222
aF0.222
aF0.222
aF0.222
aF0.222
aF0.222
aF0.222
aF0.222
aF0.222
aF0.222
aF0.222
aF0.222
aF0.222
aF0.222
aF0.222
aF0.222
aF0.222
aF0.222
aF0.222
aF0.222
aF0.222
aF0.222
aF0.222
aF0.222
aF0.222
aF0.222
aF0.222
aF0.222
aF0.222
aF0.222
aF0.222
aF0.222
aF0.222
aF0.222
aF0.222
aF0.222
aF0.222
aF0.222
aF0.222
aF0.222
aF0.222
aF0.222
aF0.222
aF0.222
aF0.222
aF0.222
aF0.222
aF0.222
aF0.222
aF0.222
aF0.222
aF0.222
aF0.222
aF0.222
aF0.222
aF0.222
aF0.222
aF0.222
aF0.222
aF0.222
aF0.222
aF0.222
aF0.222
aF0.222
aF0.222
aF0.222
aF0.222
aF0.222
aF0.222
aF0.222
aF0.222
aF0.222
aF0.222
aF0.222
aF0.222
aF0.222
aF0.222
aF0.222
aF0.222
aF0.222
aF0.222
aF0.222
aF0.222
aF0.222
aF0.222
aF0.222
aF0.222
aF0.222
aF0.222
aF0.222
aF0.222
aF0.222
aF0.222
aF0.222
aF0.222
aF0.222
aF0.222
aF0.222
aF0.222
aF0.222
aF0.222
aF0.222
aF0.222
aF0.222
aF0.222
aF0.222
aF0.222
aF0.222
aF0.222
aF0.222
aF0.222
aF0.222
aF0.222
aF0.222
aF0.222
aF0.222
aF0.222
aF0.222
aF0.222
aF0.222
aF0.222
aF0.222
aF0.222
aF0.222
aF0.222
aF0.222
aF0.222
aF0.222
aF0.222
aF0.222
aF0.222
aF0.222
aF0.222
aF0.222
aF0.222
aF0.222
aF0.222
aF0.222
aF0.222
aF0.222
aF0.222
aF0.222
aF0.222
aF0.222
aF0.222
aF0.222
aF0.222
aF0.222
aF0.222
aF0.222
aF0.222
aF0.222
aF0.222
aF0.222
aF0.222
aF0.222
aF0.222
aF0.222
aF0.222
aF0.222
aF0.222
aF0.222
aF0.222
aF0.222
aF0.222
aF0.222
aF0.222
aF0.222
aF0.222
aF0.222
aF0.222
aF0.222
aF0.222
aF0.222
aF0.222
aF0.222
aF0.222
aF0.222
aF0.222
aF0.222
aF0.222
aF0.222
aF0.222
aF0.222
aF0.222
aF0.222
aF0.222
aF0.222
aF0.222
aF0.222
aF0.222
aF0.222
aF0.222
aF0.222
aF0.222
aF0.222
aF0.222
aF0.222
aF0.222
aF0.222
aF0.222
aF0.222
aF0.222
aF0.222
aF0.222
aF0.222
aF0.222
aF0.222
aF0.222
aF0.222
aF0.222
aF0.222
aF0.222
aF0.222
aF0.222
aF0.222
aF0.222
aF0.222
aF0.222
aF0.222
aF0.222
aF0.222
aF0.222
aF0.222
aF0.222
aF0.222
aF0.222
aF0.222
aF0.222
aF0.222
aF0.222
aF0.222
aF0.222
aF0.222
aF0.222
aF0.222
aF0.222
aF0.222
aF0.222
aF0.222
aF0.222
aF0.222
aF0.222
aF0.222
aF0.222
aF0.222
aF0.222
aF0.222
aF0.222
aF0.222
aF0.222
aF0.222
aF0.222
aF0.222
aF0.222
aF0.222
aF0.222
aF0.222
aF0.222
aF0.222
aF0.222
aF0.222
aF0.222
aF0.222
aF0.222
aF0.222
aF0.222
aF0.222
aF0.222
aF0.222
aF0.222
aF0.222
aF0.222
aF0.222
aF0.222
aF0.222
aF0.222
aF0.222
aF0.222
aF0.222
aF0.222
aF0.222
aF0.222
aF0.222
aF0.222
aF0.222
aF0.222
aF0.222
aF0.222
aF0.222
aF0.222
aF0.222
aF0.222
aF0.222
aF0.222
aF0.222
aF0.222
aF0.222
aF0.222
aF0.222
aF0.222
aF0.222
aF0.222
aF0.222
aF0.222
aF0.222
aF0.222
aF0.222
aF0.222
aF0.222
aF0.222
aF0.222
aF0.222
aF0.222
aF0.222
aF0.222
aF0.222
aF0.222
aF0.222
aF0.222
aF0.222
aF0.222
aF0.222
aF0.222
aF0.222
aF0.222
aF0.222
aF0.222
aF0.222
aF0.222
aF0.222
aF0.222
aF0.222
aF0.222
aF0.222
aF0.222
aF0.222
aF0.222
aF0.222
aF0.222
aF0.222
aF0.222
aF0.222
aF0.222
aF0.222
aF0.222
aF0.222
aF0.222
aF0.222
aF0.222
aF0.222
aF0.222
aF0.222
aF0.222
aF0.222
aF0.222
aF0.222
aF0.222
aF0.222
aF0.222
aF0.222
aF0.222
aF0.222
aF0.222
aF0.222
aF0.222
aF0.222
aF0.222
aF0.222
aF0.222
aF0.222
aF0.222
aF0.222
aF0.222
aF0.222
aF0.222
aF0.222
aF0.222
aF0.222
aF0.222
aF0.222
aF0.222
aF0.222
aF0.222
aF0.222
aF0.222
aF0.222
aF0.222
aF0.222
aF0.222
aF0.222
aF0.222
aF0.222
aF0.222
aF0.222
aF0.222
aF0.222
aF0.222
aF0.222
aF0.222
aF0.222
aF0.222
aF0.222
aF0.222
aF0.222
aF0.222
aF0.222
aF0.222
aF0.222
aF0.222
aF0.222
aF0.222
aF0.222
aF0.222
aF0.222
aF0.222
aF0.222
aF0.222
aF0.222
aF0.222
aF0.222
aF0.222
aF0.222
aF0.222
aF0.222
aF0.222
aF0.222
aF0.222
aF0.222
aF0.222
aF0.222
aF0.222
aF0.222
aF0.222
aF0.222
aF0.222
aF0.222
aF0.222
aF0.222
aF0.222
aF0.222
aF0.222
aF0.222
aF0.222
aF0.222
aF0.222
aF0.222
aF0.222
aF0.222
aF0.222
aF0.222
aF0.222
aF0.222
aF0.222
aF0.222
aF0.222
aF0.222
aF0.222
aF0.222
aF0.222
aF0.222
aF0.222
aF0.222
aF0.222
aF0.222
aF0.222
aF0.222
aF0.222
aF0.222
aF0.222
aF0.222
aF0.222
aF0.222
aF0.222
aF0.222
aF0.222
aF0.222
aF0.222
aF0.222
aF0.222
aF0.222
aF0.222
aF0.222
aF0.222
aF0.222
aF0.222
aF0.222
aF0.222
aF0.222
aF0.222
aF0.222
aF0.222
aF0.222
aF0.222
aF0.222
aF0.222
aF0.222
aF0.222
aF0.222
aF0.222
aF0.222
aF0.222
aF0.222
aF0.222
aF0.222
aF0.222
aF0.222
aF0.222
aF0.222
aF0.222
aF0.222
aF0.222
aF0.222
aF0.222
aF0.222
aF0.222
aF0.222
aF0.222
aF0.222
aF0.222
aF0.222
aF0.222
aF0.222
aF0.222
aF0.222
aF0.222
aF0.222
aF0.222
aF0.222
aF0.222
aF0.222
aF0.222
aF0.222
aF0.222
aF0.222
aF0.222
aF0.222
aF0.222
aF0.222
aF0.222
aF0.222
aF0.222
aF0.222
aF0.222
aF0.222
aF0.222
aF0.222
aF0.222
aF0.222
aF0.222
aF0.222
aF0.222
aF0.222
aF0.222
aF0.222
aF0.222
aF0.222
aF0.222
aF0.222
aF0.222
aF0.222
aF0.222
aF0.222
aF0.222
aF0.222
aF0.222
aF0.222
aF0.222
aF0.222
aF0.222
aF0.222
aF0.222
aF0.222
aF0.222
aF0.222
aF0.222
aF0.222
aF0.222
aF0.222
aF0.222
aF0.222
aF0.222
aF0.222
aF0.222
aF0.222
aF0.222
aF0.222
aF0.222
aF0.222
aF0.222
aF0.222
aF0.222
aF0.222
aF0.222
aF0.222
aF0.222
aF0.222
aF0.222
aF0.222
aF0.222
aF0.222
aF0.222
aF0.222
aF0.222
aF0.222
aF0.222
aF0.222
aF0.222
aF0.222
aF0.222
aF0.222
aF0.222
aF0.222
aF0.222
aF0.222
aF0.222
aF0.222
aF0.222
aF0.222
aF0.222
aF0.222
aF0.222
aF0.222
aF0.222
aF0.222
aF0.222
aF0.222
aF0.222
aF0.222
aF0.222
aF0.222
aF0.222
aF0.222
aF0.222
aF0.222
aF0.222
aF0.222
aF0.222
aF0.222
aF0.222
aF0.222
aF0.222
aF0.222
aF0.222
aF0.222
aF0.222
aF0.222
aF0.222
aF0.222
aF0.222
aF0.222
aF0.222
aF0.222
aF0.222
aF0.222
aF0.222
aF0.222
aF0.222
aF0.222
aF0.222
aF0.222
aF0.222
aF0.222
aF0.222
aF0.222
aF0.222
aF0.222
aF0.222
aF0.222
aF0.222
aF0.222
aF0.222
aF0.222
aF0.222
aF0.222
aF0.222
aF0.222
aF0.222
aF0.222
aF0.222
aF0.222
aF0.222
aF0.222
aF0.222
aF0.222
aF0.222
aF0.222
aF0.222
aF0.222
aF0.222
aF0.222
aF0.222
aF0.222
aF0.222
aF0.222
aF0.222
aF0.222
aF0.222
aF0.222
aF0.222
aF0.222
aF0.222
aF0.222
aF0.222
aF0.222
aF0.222
aF0.222
aF0.222
aF0.222
aF0.222
aF0.222
aF0.222
aF0.222
aF0.222
aF0.222
aF0.222
aF0.222
aF0.222
aF0.222
aF0.222
aF0.222
aF0.222
aF0.222
aF0.222
aF0.222
aF0.222
aF0.222
aF0.222
aF0.222
aF0.222
aF0.222
aF0.222
aF0.222
aF0.222
aF0.222
aF0.222
aF0.222
aF0.222
aF0.222
aF0.222
aF0.222
aF0.222
aF0.222
aF0.222
aF0.222
aF0.222
aF0.222
aF0.222
aF0.222
aF0.222
aF0.222
aF0.222
aF0.222
aF0.222
aF0.222
aF0.222
aF0.222
aF0.222
aF0.222
aF0.222
aF0.222
aF0.222
aF0.222
aF0.222
aF0.222
aF0.222
aF0.222
aF0.222
aF0.222
aF0.222
aF0.222
aF0.222
aF0.222
aF0.222
aF0.222
aF0.222
aF0.222
aF0.222
aF0.222
aF0.222
aF0.222
aF0.222
aF0.222
aF0.222
aF0.222
aF0.222
aF0.222
aF0.222
aF0.222
aF0.222
aF0.222
aF0.222
aF0.222
aF0.222
aF0.222
aF0.222
aF0.222
aF0.222
aF0.222
aF0.222
aF0.222
aF0.222
aF0.222
aF0.222
aF0.222
aF0.222
aF0.222
aF0.222
asF0.2
(lp4
F0.222
aF0.222
aF0.222
aF0.222
aF0.222
aF0.222
aF0.222
aF0.222
aF0.222
aF0.222
aF0.222
aF0.222
aF0.222
aF0.222
aF0.222
aF0.222
aF0.222
aF0.222
aF0.222
aF0.222
aF0.222
aF0.222
aF0.222
aF0.222
aF0.222
aF0.222
aF0.222
aF0.222
aF0.222
aF0.222
aF0.222
aF0.222
aF0.222
aF0.222
aF0.222
aF0.222
aF0.222
aF0.222
aF0.222
aF0.222
aF0.222
aF0.222
aF0.222
aF0.222
aF0.222
aF0.222
aF0.222
aF0.222
aF0.222
aF0.222
aF0.222
aF0.222
aF0.222
aF0.222
aF0.222
aF0.222
aF0.222
aF0.222
aF0.222
aF0.222
aF0.222
aF0.222
aF0.222
aF0.222
aF0.222
aF0.222
aF0.222
aF0.222
aF0.222
aF0.222
aF0.222
aF0.222
aF0.222
aF0.222
aF0.222
aF0.222
aF0.222
aF0.222
aF0.222
aF0.222
aF0.222
aF0.222
aF0.222
aF0.222
aF0.222
aF0.222
aF0.222
aF0.222
aF0.222
aF0.222
aF0.222
aF0.222
aF0.222
aF0.222
aF0.222
aF0.222
aF0.222
aF0.222
aF0.222
aF0.222
aF0.222
aF0.222
aF0.222
aF0.222
aF0.222
aF0.222
aF0.222
aF0.222
aF0.222
aF0.222
aF0.222
aF0.222
aF0.222
aF0.222
aF0.222
aF0.222
aF0.222
aF0.222
aF0.222
aF0.222
aF0.222
aF0.222
aF0.222
aF0.222
aF0.222
aF0.222
aF0.222
aF0.222
aF0.222
aF0.222
aF0.222
aF0.222
aF0.222
aF0.222
aF0.222
aF0.222
aF0.222
aF0.222
aF0.222
aF0.222
aF0.222
aF0.222
aF0.222
aF0.222
aF0.222
aF0.222
aF0.222
aF0.222
aF0.222
aF0.222
aF0.222
aF0.222
aF0.222
aF0.222
aF0.222
aF0.222
aF0.222
aF0.222
aF0.222
aF0.222
aF0.222
aF0.222
aF0.222
aF0.222
aF0.222
aF0.222
aF0.222
aF0.222
aF0.222
aF0.222
aF0.222
aF0.222
aF0.222
aF0.222
aF0.222
aF0.222
aF0.222
aF0.222
aF0.222
aF0.222
aF0.222
aF0.222
aF0.222
aF0.222
aF0.222
aF0.222
aF0.222
aF0.222
aF0.222
aF0.222
aF0.222
aF0.222
aF0.222
aF0.222
aF0.222
aF0.222
aF0.222
aF0.222
aF0.222
aF0.222
aF0.222
aF0.222
aF0.222
aF0.222
aF0.222
aF0.222
aF0.222
aF0.222
aF0.222
aF0.222
aF0.222
aF0.222
aF0.222
aF0.222
aF0.222
aF0.222
aF0.222
aF0.222
aF0.222
aF0.222
aF0.222
aF0.222
aF0.222
aF0.222
aF0.222
aF0.222
aF0.222
aF0.222
aF0.222
aF0.222
aF0.222
aF0.222
aF0.222
aF0.222
aF0.222
aF0.222
aF0.222
aF0.222
aF0.222
aF0.222
aF0.222
aF0.222
aF0.222
aF0.222
aF0.222
aF0.222
aF0.222
aF0.222
aF0.222
aF0.222
aF0.222
aF0.222
aF0.222
aF0.222
aF0.222
aF0.222
aF0.222
aF0.222
aF0.222
aF0.222
aF0.222
aF0.222
aF0.222
aF0.222
aF0.222
aF0.222
aF0.222
aF0.222
aF0.222
aF0.222
aF0.222
aF0.222
aF0.222
aF0.222
aF0.222
aF0.222
aF0.222
aF0.222
aF0.222
aF0.222
aF0.222
aF0.222
aF0.222
aF0.222
aF0.222
aF0.222
aF0.222
aF0.222
aF0.222
aF0.222
aF0.222
aF0.222
aF0.222
aF0.222
aF0.222
aF0.222
aF0.222
aF0.222
aF0.222
aF0.222
aF0.222
aF0.222
aF0.222
aF0.222
aF0.222
aF0.222
aF0.222
aF0.222
aF0.222
aF0.222
aF0.222
aF0.222
aF0.222
aF0.222
aF0.222
aF0.222
aF0.222
aF0.222
aF0.222
aF0.222
aF0.222
aF0.222
aF0.222
aF0.222
aF0.222
aF0.222
aF0.222
aF0.222
aF0.222
aF0.222
aF0.222
aF0.222
aF0.222
aF0.222
aF0.222
aF0.222
aF0.222
aF0.222
aF0.222
aF0.222
aF0.222
aF0.222
aF0.222
aF0.222
aF0.222
aF0.222
aF0.222
aF0.222
aF0.222
aF0.222
aF0.222
aF0.222
aF0.222
aF0.222
aF0.222
aF0.222
aF0.222
aF0.222
aF0.222
aF0.222
aF0.222
aF0.222
aF0.222
aF0.222
aF0.222
aF0.222
aF0.222
aF0.222
aF0.222
aF0.222
aF0.222
aF0.222
aF0.222
aF0.222
aF0.222
aF0.222
aF0.222
aF0.222
aF0.222
aF0.222
aF0.222
aF0.222
aF0.222
aF0.222
aF0.222
aF0.222
aF0.222
aF0.222
aF0.222
aF0.222
aF0.222
aF0.222
aF0.222
aF0.222
aF0.222
aF0.222
aF0.222
aF0.222
aF0.222
aF0.222
aF0.222
aF0.222
aF0.222
aF0.222
aF0.222
aF0.222
aF0.222
aF0.222
aF0.222
aF0.222
aF0.222
aF0.222
aF0.222
aF0.222
aF0.222
aF0.222
aF0.222
aF0.222
aF0.222
aF0.222
aF0.222
aF0.222
aF0.222
aF0.222
aF0.222
aF0.222
aF0.222
aF0.222
aF0.222
aF0.222
aF0.222
aF0.222
aF0.222
aF0.222
aF0.222
aF0.222
aF0.222
aF0.222
aF0.222
aF0.222
aF0.222
aF0.222
aF0.222
aF0.222
aF0.222
aF0.222
aF0.222
aF0.222
aF0.222
aF0.222
aF0.222
aF0.222
aF0.222
aF0.222
aF0.222
aF0.222
aF0.222
aF0.222
aF0.222
aF0.222
aF0.222
aF0.222
aF0.222
aF0.222
aF0.222
aF0.222
aF0.222
aF0.222
aF0.222
aF0.222
aF0.222
aF0.222
aF0.222
aF0.222
aF0.222
aF0.222
aF0.222
aF0.222
aF0.222
aF0.222
aF0.222
aF0.222
aF0.222
aF0.222
aF0.222
aF0.222
aF0.222
aF0.222
aF0.222
aF0.222
aF0.222
aF0.222
aF0.222
aF0.222
aF0.222
aF0.222
aF0.222
aF0.222
aF0.222
aF0.222
aF0.222
aF0.222
aF0.222
aF0.222
aF0.222
aF0.222
aF0.222
aF0.222
aF0.222
aF0.222
aF0.222
aF0.222
aF0.222
aF0.222
aF0.222
aF0.222
aF0.222
aF0.222
aF0.222
aF0.222
aF0.222
aF0.222
aF0.222
aF0.222
aF0.222
aF0.222
aF0.222
aF0.222
aF0.222
aF0.222
aF0.222
aF0.222
aF0.222
aF0.222
aF0.222
aF0.222
aF0.222
aF0.222
aF0.222
aF0.222
aF0.222
aF0.222
aF0.222
aF0.222
aF0.222
aF0.222
aF0.222
aF0.222
aF0.222
aF0.222
aF0.222
aF0.222
aF0.222
aF0.222
aF0.222
aF0.222
aF0.222
aF0.222
aF0.222
aF0.222
aF0.222
aF0.222
aF0.222
aF0.222
aF0.222
aF0.222
aF0.222
aF0.222
aF0.222
aF0.222
aF0.222
aF0.222
aF0.222
aF0.222
aF0.222
aF0.222
aF0.222
aF0.222
aF0.222
aF0.222
aF0.222
aF0.222
aF0.222
aF0.222
aF0.222
aF0.222
aF0.222
aF0.222
aF0.222
aF0.222
aF0.222
aF0.222
aF0.222
aF0.222
aF0.222
aF0.222
aF0.222
aF0.222
aF0.222
aF0.222
aF0.222
aF0.222
aF0.222
aF0.222
aF0.222
aF0.222
aF0.222
aF0.222
aF0.222
aF0.222
aF0.222
aF0.222
aF0.222
aF0.222
aF0.222
aF0.222
aF0.222
aF0.222
aF0.222
aF0.222
aF0.222
aF0.222
aF0.222
aF0.222
aF0.222
aF0.222
aF0.222
aF0.222
aF0.222
aF0.222
aF0.222
aF0.222
aF0.222
aF0.222
aF0.222
aF0.222
aF0.222
aF0.222
aF0.222
aF0.222
aF0.222
aF0.222
aF0.222
aF0.222
aF0.222
aF0.222
aF0.222
aF0.222
aF0.222
aF0.222
aF0.222
aF0.222
aF0.222
aF0.222
aF0.222
aF0.222
aF0.222
aF0.222
aF0.222
aF0.222
aF0.222
aF0.222
aF0.222
aF0.222
aF0.222
aF0.222
aF0.222
aF0.222
aF0.222
aF0.222
aF0.222
aF0.222
aF0.222
aF0.222
aF0.222
aF0.222
aF0.222
aF0.222
aF0.222
aF0.222
aF0.222
aF0.222
aF0.222
aF0.222
aF0.222
aF0.222
aF0.222
aF0.222
aF0.222
aF0.222
aF0.222
aF0.222
aF0.222
aF0.222
aF0.222
aF0.222
aF0.222
aF0.222
aF0.222
aF0.222
aF0.222
aF0.222
aF0.222
aF0.222
aF0.222
aF0.222
aF0.222
aF0.222
aF0.222
aF0.222
aF0.222
aF0.222
aF0.222
aF0.222
aF0.222
aF0.222
aF0.222
aF0.222
aF0.222
aF0.222
aF0.222
aF0.222
aF0.222
aF0.222
aF0.222
aF0.222
aF0.222
aF0.222
aF0.222
aF0.222
aF0.222
aF0.222
aF0.222
aF0.222
aF0.222
aF0.222
aF0.222
aF0.222
aF0.222
aF0.222
aF0.222
aF0.222
aF0.222
aF0.222
aF0.222
aF0.222
aF0.222
aF0.222
aF0.222
aF0.222
aF0.222
aF0.222
aF0.222
aF0.222
aF0.222
aF0.222
aF0.222
aF0.222
aF0.222
aF0.222
aF0.222
aF0.222
aF0.222
aF0.222
aF0.222
aF0.222
aF0.222
aF0.222
aF0.222
aF0.222
aF0.222
aF0.222
aF0.222
aF0.222
aF0.222
aF0.222
aF0.222
aF0.222
aF0.222
aF0.222
aF0.222
aF0.222
aF0.222
aF0.222
aF0.222
aF0.222
aF0.222
aF0.222
aF0.222
aF0.222
aF0.222
aF0.222
aF0.222
aF0.222
aF0.222
aF0.222
aF0.222
aF0.222
aF0.222
aF0.222
aF0.222
aF0.222
aF0.222
aF0.222
aF0.222
aF0.222
aF0.222
aF0.222
aF0.222
aF0.222
aF0.222
aF0.222
aF0.222
aF0.222
aF0.222
aF0.222
aF0.222
aF0.222
aF0.222
aF0.222
aF0.222
aF0.222
aF0.222
aF0.222
aF0.222
aF0.222
aF0.222
aF0.222
aF0.222
aF0.222
aF0.222
aF0.222
aF0.222
aF0.222
aF0.222
aF0.222
aF0.222
aF0.222
aF0.222
aF0.222
aF0.222
aF0.222
aF0.222
aF0.222
aF0.222
aF0.222
aF0.222
aF0.222
aF0.222
aF0.222
aF0.222
aF0.222
aF0.222
aF0.222
aF0.222
aF0.222
aF0.222
aF0.222
aF0.222
aF0.222
aF0.222
aF0.222
aF0.222
aF0.222
aF0.222
aF0.222
aF0.222
aF0.222
aF0.222
aF0.222
aF0.222
aF0.222
aF0.222
aF0.222
aF0.222
aF0.222
aF0.222
aF0.222
aF0.222
aF0.222
aF0.222
aF0.222
aF0.222
aF0.222
aF0.222
aF0.222
aF0.222
aF0.222
aF0.222
aF0.222
aF0.222
aF0.222
aF0.222
aF0.222
aF0.222
aF0.222
aF0.222
aF0.222
aF0.222
aF0.222
aF0.222
aF0.222
aF0.222
aF0.222
aF0.222
aF0.222
aF0.222
aF0.222
aF0.222
aF0.222
aF0.222
aF0.222
aF0.222
aF0.222
aF0.222
aF0.222
aF0.222
aF0.222
aF0.222
aF0.222
aF0.222
aF0.222
aF0.222
aF0.222
aF0.222
aF0.222
aF0.222
aF0.222
aF0.222
aF0.222
aF0.222
aF0.222
aF0.222
aF0.222
aF0.222
aF0.222
aF0.222
aF0.222
aF0.222
aF0.222
aF0.222
aF0.222
aF0.222
aF0.222
aF0.222
aF0.222
aF0.222
aF0.222
aF0.222
aF0.222
aF0.222
aF0.222
aF0.222
aF0.222
aF0.222
aF0.222
aF0.222
aF0.222
aF0.222
aF0.222
aF0.222
aF0.222
aF0.222
aF0.222
aF0.222
aF0.222
aF0.222
aF0.222
aF0.222
aF0.222
aF0.222
aF0.222
aF0.222
aF0.222
aF0.222
aF0.222
aF0.222
aF0.222
aF0.222
aF0.222
aF0.222
aF0.222
aF0.222
aF0.222
aF0.222
aF0.222
aF0.222
aF0.222
aF0.222
aF0.222
aF0.222
aF0.222
aF0.222
aF0.222
aF0.222
aF0.222
aF0.222
aF0.222
aF0.222
aF0.222
asF0.05
(lp5
F0.222
aF0.222
aF0.222
aF0.222
aF0.222
aF0.222
aF0.222
aF0.222
aF0.222
aF0.222
aF0.222
aF0.222
aF0.222
aF0.222
aF0.222
aF0.222
aF0.222
aF0.222
aF0.222
aF0.222
aF0.222
aF0.222
aF0.222
aF0.222
aF0.222
aF0.222
aF0.222
aF0.222
aF0.222
aF0.222
aF0.222
aF0.222
aF0.222
aF0.222
aF0.222
aF0.222
aF0.222
aF0.222
aF0.222
aF0.222
aF0.222
aF0.222
aF0.222
aF0.222
aF0.222
aF0.222
aF0.222
aF0.222
aF0.222
aF0.222
aF0.222
aF0.222
aF0.222
aF0.222
aF0.222
aF0.222
aF0.222
aF0.222
aF0.222
aF0.222
aF0.222
aF0.222
aF0.222
aF0.222
aF0.222
aF0.222
aF0.222
aF0.222
aF0.222
aF0.222
aF0.222
aF0.222
aF0.222
aF0.222
aF0.222
aF0.222
aF0.222
aF0.222
aF0.222
aF0.222
aF0.222
aF0.222
aF0.222
aF0.222
aF0.222
aF0.222
aF0.222
aF0.222
aF0.222
aF0.222
aF0.222
aF0.222
aF0.222
aF0.222
aF0.222
aF0.222
aF0.222
aF0.222
aF0.222
aF0.222
aF0.222
aF0.222
aF0.222
aF0.222
aF0.222
aF0.222
aF0.222
aF0.222
aF0.222
aF0.222
aF0.222
aF0.222
aF0.222
aF0.222
aF0.222
aF0.222
aF0.222
aF0.222
aF0.222
aF0.222
aF0.222
aF0.222
aF0.222
aF0.222
aF0.222
aF0.222
aF0.222
aF0.222
aF0.222
aF0.222
aF0.222
aF0.222
aF0.222
aF0.222
aF0.222
aF0.222
aF0.222
aF0.222
aF0.222
aF0.222
aF0.222
aF0.222
aF0.222
aF0.222
aF0.222
aF0.222
aF0.222
aF0.222
aF0.222
aF0.222
aF0.222
aF0.222
aF0.222
aF0.222
aF0.222
aF0.222
aF0.222
aF0.222
aF0.222
aF0.222
aF0.222
aF0.222
aF0.222
aF0.222
aF0.222
aF0.222
aF0.222
aF0.222
aF0.222
aF0.222
aF0.222
aF0.222
aF0.222
aF0.222
aF0.222
aF0.222
aF0.222
aF0.222
aF0.222
aF0.222
aF0.222
aF0.222
aF0.222
aF0.222
aF0.222
aF0.222
aF0.222
aF0.222
aF0.222
aF0.222
aF0.222
aF0.222
aF0.222
aF0.222
aF0.222
aF0.222
aF0.222
aF0.222
aF0.222
aF0.222
aF0.222
aF0.222
aF0.222
aF0.222
aF0.222
aF0.222
aF0.222
aF0.222
aF0.222
aF0.222
aF0.222
aF0.222
aF0.222
aF0.222
aF0.222
aF0.222
aF0.222
aF0.222
aF0.222
aF0.222
aF0.222
aF0.222
aF0.222
aF0.222
aF0.222
aF0.222
aF0.222
aF0.222
aF0.222
aF0.222
aF0.222
aF0.222
aF0.222
aF0.222
aF0.222
aF0.222
aF0.222
aF0.222
aF0.222
aF0.222
aF0.222
aF0.222
aF0.222
aF0.222
aF0.222
aF0.222
aF0.222
aF0.222
aF0.222
aF0.222
aF0.222
aF0.222
aF0.222
aF0.222
aF0.222
aF0.222
aF0.222
aF0.222
aF0.222
aF0.222
aF0.222
aF0.222
aF0.222
aF0.222
aF0.222
aF0.222
aF0.222
aF0.222
aF0.222
aF0.222
aF0.222
aF0.222
aF0.222
aF0.222
aF0.222
aF0.222
aF0.222
aF0.222
aF0.222
aF0.222
aF0.222
aF0.222
aF0.222
aF0.222
aF0.222
aF0.222
aF0.222
aF0.222
aF0.222
aF0.222
aF0.222
aF0.222
aF0.222
aF0.222
aF0.222
aF0.222
aF0.222
aF0.222
aF0.222
aF0.222
aF0.222
aF0.222
aF0.222
aF0.222
aF0.222
aF0.222
aF0.222
aF0.222
aF0.222
aF0.222
aF0.222
aF0.222
aF0.222
aF0.222
aF0.222
aF0.222
aF0.222
aF0.222
aF0.222
aF0.222
aF0.222
aF0.222
aF0.222
aF0.222
aF0.222
aF0.222
aF0.222
aF0.222
aF0.222
aF0.222
aF0.222
aF0.222
aF0.222
aF0.222
aF0.222
aF0.222
aF0.222
aF0.222
aF0.222
aF0.222
aF0.222
aF0.222
aF0.222
aF0.222
aF0.222
aF0.222
aF0.222
aF0.222
aF0.222
aF0.222
aF0.222
aF0.222
aF0.222
aF0.222
aF0.222
aF0.222
aF0.222
aF0.222
aF0.222
aF0.222
aF0.222
aF0.222
aF0.222
aF0.222
aF0.222
aF0.222
aF0.222
aF0.222
aF0.222
aF0.222
aF0.222
aF0.222
aF0.222
aF0.222
aF0.222
aF0.222
aF0.222
aF0.222
aF0.222
aF0.222
aF0.222
aF0.222
aF0.222
aF0.222
aF0.222
aF0.222
aF0.222
aF0.222
aF0.222
aF0.222
aF0.222
aF0.222
aF0.222
aF0.222
aF0.222
aF0.222
aF0.222
aF0.222
aF0.222
aF0.222
aF0.222
aF0.222
aF0.222
aF0.222
aF0.222
aF0.222
aF0.222
aF0.222
aF0.222
aF0.222
aF0.222
aF0.222
aF0.222
aF0.222
aF0.222
aF0.222
aF0.222
aF0.222
aF0.222
aF0.222
aF0.222
aF0.222
aF0.222
aF0.222
aF0.222
aF0.222
aF0.222
aF0.222
aF0.222
aF0.222
aF0.222
aF0.222
aF0.222
aF0.222
aF0.222
aF0.222
aF0.222
aF0.222
aF0.222
aF0.222
aF0.222
aF0.222
aF0.222
aF0.222
aF0.222
aF0.222
aF0.222
aF0.222
aF0.222
aF0.222
aF0.222
aF0.222
aF0.222
aF0.222
aF0.222
aF0.222
aF0.222
aF0.222
aF0.222
aF0.222
aF0.222
aF0.222
aF0.222
aF0.222
aF0.222
aF0.222
aF0.222
aF0.222
aF0.222
aF0.222
aF0.222
aF0.222
aF0.222
aF0.222
aF0.222
aF0.222
aF0.222
aF0.222
aF0.222
aF0.222
aF0.222
aF0.222
aF0.222
aF0.222
aF0.222
aF0.222
aF0.222
aF0.222
aF0.222
aF0.222
aF0.222
aF0.222
aF0.222
aF0.222
aF0.222
aF0.222
aF0.222
aF0.222
aF0.222
aF0.222
aF0.222
aF0.222
aF0.222
aF0.222
aF0.222
aF0.222
aF0.222
aF0.222
aF0.222
aF0.222
aF0.222
aF0.222
aF0.222
aF0.222
aF0.222
aF0.222
aF0.222
aF0.222
aF0.222
aF0.222
aF0.222
aF0.222
aF0.222
aF0.222
aF0.222
aF0.222
aF0.222
aF0.222
aF0.222
aF0.222
aF0.222
aF0.222
aF0.222
aF0.222
aF0.222
aF0.222
aF0.222
aF0.222
aF0.222
aF0.222
aF0.222
aF0.222
aF0.222
aF0.222
aF0.222
aF0.222
aF0.222
aF0.222
aF0.222
aF0.222
aF0.222
aF0.222
aF0.222
aF0.222
aF0.222
aF0.222
aF0.222
aF0.222
aF0.222
aF0.222
aF0.222
aF0.222
aF0.222
aF0.222
aF0.222
aF0.222
aF0.222
aF0.222
aF0.222
aF0.222
aF0.222
aF0.222
aF0.222
aF0.222
aF0.222
aF0.222
aF0.222
aF0.222
aF0.222
aF0.222
aF0.222
aF0.222
aF0.222
aF0.222
aF0.222
aF0.222
aF0.222
aF0.222
aF0.222
aF0.222
aF0.222
aF0.222
aF0.222
aF0.222
aF0.222
aF0.222
aF0.222
aF0.222
aF0.222
aF0.222
aF0.222
aF0.222
aF0.222
aF0.222
aF0.222
aF0.222
aF0.222
aF0.222
aF0.222
aF0.222
aF0.222
aF0.222
aF0.222
aF0.222
aF0.222
aF0.222
aF0.222
aF0.222
aF0.222
aF0.222
aF0.222
aF0.222
aF0.222
aF0.222
aF0.222
aF0.222
aF0.222
aF0.222
aF0.222
aF0.222
aF0.222
aF0.222
aF0.222
aF0.222
aF0.222
aF0.222
aF0.222
aF0.222
aF0.222
aF0.222
aF0.222
aF0.222
aF0.222
aF0.222
aF0.222
aF0.222
aF0.222
aF0.222
aF0.222
aF0.222
aF0.222
aF0.222
aF0.222
aF0.222
aF0.222
aF0.222
aF0.222
aF0.222
aF0.222
aF0.222
aF0.222
aF0.222
aF0.222
aF0.222
aF0.222
aF0.222
aF0.222
aF0.222
aF0.222
aF0.222
aF0.222
aF0.222
aF0.222
aF0.222
aF0.222
aF0.222
aF0.222
aF0.222
aF0.222
aF0.222
aF0.222
aF0.222
aF0.222
aF0.222
aF0.222
aF0.222
aF0.222
aF0.222
aF0.222
aF0.222
aF0.222
aF0.222
aF0.222
aF0.222
aF0.222
aF0.222
aF0.222
aF0.222
aF0.222
aF0.222
aF0.222
aF0.222
aF0.222
aF0.222
aF0.222
aF0.222
aF0.222
aF0.222
aF0.222
aF0.222
aF0.222
aF0.222
aF0.222
aF0.222
aF0.222
aF0.222
aF0.222
aF0.222
aF0.222
aF0.222
aF0.222
aF0.222
aF0.222
aF0.222
aF0.222
aF0.222
aF0.222
aF0.222
aF0.222
aF0.222
aF0.222
aF0.222
aF0.222
aF0.222
aF0.222
aF0.222
aF0.222
aF0.222
aF0.222
aF0.222
aF0.222
aF0.222
aF0.222
aF0.222
aF0.222
aF0.222
aF0.222
aF0.222
aF0.222
aF0.222
aF0.222
aF0.222
aF0.222
aF0.222
aF0.222
aF0.222
aF0.222
aF0.222
aF0.222
aF0.222
aF0.222
aF0.222
aF0.222
aF0.222
aF0.222
aF0.222
aF0.222
aF0.222
aF0.222
aF0.222
aF0.222
aF0.222
aF0.222
aF0.222
aF0.222
aF0.222
aF0.222
aF0.222
aF0.222
aF0.222
aF0.222
aF0.222
aF0.222
aF0.222
aF0.222
aF0.222
aF0.222
aF0.222
aF0.222
aF0.222
aF0.222
aF0.222
aF0.222
aF0.222
aF0.222
aF0.222
aF0.222
aF0.222
aF0.222
aF0.222
aF0.222
aF0.222
aF0.222
aF0.222
aF0.222
aF0.222
aF0.222
aF0.222
aF0.222
aF0.222
aF0.222
aF0.222
aF0.222
aF0.222
aF0.222
aF0.222
aF0.222
aF0.222
aF0.222
aF0.222
aF0.222
aF0.222
aF0.222
aF0.222
aF0.222
aF0.222
aF0.222
aF0.222
aF0.222
aF0.222
aF0.222
aF0.222
aF0.222
aF0.222
aF0.222
aF0.222
aF0.222
aF0.222
aF0.222
aF0.222
aF0.222
aF0.222
aF0.222
aF0.222
aF0.222
aF0.222
aF0.222
aF0.222
aF0.222
aF0.222
aF0.222
aF0.222
aF0.222
aF0.222
aF0.222
aF0.222
aF0.222
aF0.222
aF0.222
aF0.222
aF0.222
aF0.222
aF0.222
aF0.222
aF0.222
aF0.222
aF0.222
aF0.222
aF0.222
aF0.222
aF0.222
aF0.222
aF0.222
aF0.222
aF0.222
aF0.222
aF0.222
aF0.222
aF0.222
aF0.222
aF0.222
aF0.222
aF0.222
aF0.222
aF0.222
aF0.222
aF0.222
aF0.222
aF0.222
aF0.222
aF0.222
aF0.222
aF0.222
aF0.222
aF0.222
aF0.222
aF0.222
aF0.222
aF0.222
aF0.222
aF0.222
aF0.222
aF0.222
aF0.222
aF0.222
aF0.222
aF0.222
aF0.222
aF0.222
aF0.222
aF0.222
aF0.222
aF0.222
aF0.222
aF0.222
aF0.222
aF0.222
aF0.222
aF0.222
aF0.222
aF0.222
aF0.222
aF0.222
aF0.222
aF0.222
aF0.222
aF0.222
aF0.222
aF0.222
aF0.222
aF0.222
aF0.222
aF0.222
aF0.222
aF0.222
aF0.222
aF0.222
aF0.222
aF0.222
aF0.222
aF0.222
aF0.222
aF0.222
aF0.222
aF0.222
aF0.222
aF0.222
aF0.222
aF0.222
aF0.222
aF0.222
aF0.222
aF0.222
aF0.222
aF0.222
aF0.222
aF0.222
aF0.222
aF0.222
aF0.222
aF0.222
aF0.222
aF0.222
aF0.222
aF0.222
aF0.222
aF0.222
aF0.222
aF0.222
aF0.222
aF0.222
aF0.222
aF0.222
aF0.222
aF0.222
aF0.222
aF0.222
aF0.222
aF0.222
aF0.222
aF0.222
aF0.222
aF0.222
aF0.222
aF0.222
aF0.222
aF0.222
aF0.222
aF0.222
aF0.222
aF0.222
aF0.222
aF0.222
aF0.222
aF0.222
aF0.222
aF0.222
aF0.222
aF0.222
aF0.222
asF0.025
(lp6
F0.222
aF0.222
aF0.222
aF0.222
aF0.222
aF0.222
aF0.222
aF0.222
aF0.222
aF0.222
aF0.222
aF0.222
aF0.222
aF0.222
aF0.222
aF0.222
aF0.222
aF0.222
aF0.222
aF0.222
aF0.222
aF0.222
aF0.222
aF0.222
aF0.222
aF0.222
aF0.222
aF0.222
aF0.222
aF0.222
aF0.222
aF0.222
aF0.222
aF0.222
aF0.222
aF0.222
aF0.222
aF0.222
aF0.222
aF0.222
aF0.222
aF0.222
aF0.222
aF0.222
aF0.222
aF0.222
aF0.222
aF0.222
aF0.222
aF0.222
aF0.222
aF0.222
aF0.222
aF0.222
aF0.222
aF0.222
aF0.222
aF0.222
aF0.222
aF0.222
aF0.222
aF0.222
aF0.222
aF0.222
aF0.222
aF0.222
aF0.222
aF0.222
aF0.222
aF0.222
aF0.222
aF0.222
aF0.222
aF0.222
aF0.222
aF0.222
aF0.222
aF0.222
aF0.222
aF0.222
aF0.222
aF0.222
aF0.222
aF0.222
aF0.222
aF0.222
aF0.222
aF0.222
aF0.222
aF0.222
aF0.222
aF0.222
aF0.222
aF0.222
aF0.222
aF0.222
aF0.222
aF0.222
aF0.222
aF0.222
aF0.222
aF0.222
aF0.222
aF0.222
aF0.222
aF0.222
aF0.222
aF0.222
aF0.222
aF0.222
aF0.222
aF0.222
aF0.222
aF0.222
aF0.222
aF0.222
aF0.222
aF0.222
aF0.222
aF0.222
aF0.222
aF0.222
aF0.222
aF0.222
aF0.222
aF0.222
aF0.222
aF0.222
aF0.222
aF0.222
aF0.222
aF0.222
aF0.222
aF0.222
aF0.222
aF0.222
aF0.222
aF0.222
aF0.222
aF0.222
aF0.222
aF0.222
aF0.222
aF0.222
aF0.222
aF0.222
aF0.222
aF0.222
aF0.222
aF0.222
aF0.222
aF0.222
aF0.222
aF0.222
aF0.222
aF0.222
aF0.222
aF0.222
aF0.222
aF0.222
aF0.222
aF0.222
aF0.222
aF0.222
aF0.222
aF0.222
aF0.222
aF0.222
aF0.222
aF0.222
aF0.222
aF0.222
aF0.222
aF0.222
aF0.222
aF0.222
aF0.222
aF0.222
aF0.222
aF0.222
aF0.222
aF0.222
aF0.222
aF0.222
aF0.222
aF0.222
aF0.222
aF0.222
aF0.222
aF0.222
aF0.222
aF0.222
aF0.222
aF0.222
aF0.222
aF0.222
aF0.222
aF0.222
aF0.222
aF0.222
aF0.222
aF0.222
aF0.222
aF0.222
aF0.222
aF0.222
aF0.222
aF0.222
aF0.222
aF0.222
aF0.222
aF0.222
aF0.222
aF0.222
aF0.222
aF0.222
aF0.222
aF0.222
aF0.222
aF0.222
aF0.222
aF0.222
aF0.222
aF0.222
aF0.222
aF0.222
aF0.222
aF0.222
aF0.222
aF0.222
aF0.222
aF0.222
aF0.222
aF0.222
aF0.222
aF0.222
aF0.222
aF0.222
aF0.222
aF0.222
aF0.222
aF0.222
aF0.222
aF0.222
aF0.222
aF0.222
aF0.222
aF0.222
aF0.222
aF0.222
aF0.222
aF0.222
aF0.222
aF0.222
aF0.222
aF0.222
aF0.222
aF0.222
aF0.222
aF0.222
aF0.222
aF0.222
aF0.222
aF0.222
aF0.222
aF0.222
aF0.222
aF0.222
aF0.222
aF0.222
aF0.222
aF0.222
aF0.222
aF0.222
aF0.222
aF0.222
aF0.222
aF0.222
aF0.222
aF0.222
aF0.222
aF0.222
aF0.222
aF0.222
aF0.222
aF0.222
aF0.222
aF0.222
aF0.222
aF0.222
aF0.222
aF0.222
aF0.222
aF0.222
aF0.222
aF0.222
aF0.222
aF0.222
aF0.222
aF0.222
aF0.222
aF0.222
aF0.222
aF0.222
aF0.222
aF0.222
aF0.222
aF0.222
aF0.222
aF0.222
aF0.222
aF0.222
aF0.222
aF0.222
aF0.222
aF0.222
aF0.222
aF0.222
aF0.222
aF0.222
aF0.222
aF0.222
aF0.222
aF0.222
aF0.222
aF0.222
aF0.222
aF0.222
aF0.222
aF0.222
aF0.222
aF0.222
aF0.222
aF0.222
aF0.222
aF0.222
aF0.222
aF0.222
aF0.222
aF0.222
aF0.222
aF0.222
aF0.222
aF0.222
aF0.222
aF0.222
aF0.222
aF0.222
aF0.222
aF0.222
aF0.222
aF0.222
aF0.222
aF0.222
aF0.222
aF0.222
aF0.222
aF0.222
aF0.222
aF0.222
aF0.222
aF0.222
aF0.222
aF0.222
aF0.222
aF0.222
aF0.222
aF0.222
aF0.222
aF0.222
aF0.222
aF0.222
aF0.222
aF0.222
aF0.222
aF0.222
aF0.222
aF0.222
aF0.222
aF0.222
aF0.222
aF0.222
aF0.222
aF0.222
aF0.222
aF0.222
aF0.222
aF0.222
aF0.222
aF0.222
aF0.222
aF0.222
aF0.222
aF0.222
aF0.222
aF0.222
aF0.222
aF0.222
aF0.222
aF0.222
aF0.222
aF0.222
aF0.222
aF0.222
aF0.222
aF0.222
aF0.222
aF0.222
aF0.222
aF0.222
aF0.222
aF0.222
aF0.222
aF0.222
aF0.222
aF0.222
aF0.222
aF0.222
aF0.222
aF0.222
aF0.222
aF0.222
aF0.222
aF0.222
aF0.222
aF0.222
aF0.222
aF0.222
aF0.222
aF0.222
aF0.222
aF0.222
aF0.222
aF0.222
aF0.222
aF0.222
aF0.222
aF0.222
aF0.222
aF0.222
aF0.222
aF0.222
aF0.222
aF0.222
aF0.222
aF0.222
aF0.222
aF0.222
aF0.222
aF0.222
aF0.222
aF0.222
aF0.222
aF0.222
aF0.222
aF0.222
aF0.222
aF0.222
aF0.222
aF0.222
aF0.222
aF0.222
aF0.222
aF0.222
aF0.222
aF0.222
aF0.222
aF0.222
aF0.222
aF0.222
aF0.222
aF0.222
aF0.222
aF0.222
aF0.222
aF0.222
aF0.222
aF0.222
aF0.222
aF0.222
aF0.222
aF0.222
aF0.222
aF0.222
aF0.222
aF0.222
aF0.222
aF0.222
aF0.222
aF0.222
aF0.222
aF0.222
aF0.222
aF0.222
aF0.222
aF0.222
aF0.222
aF0.222
aF0.222
aF0.222
aF0.222
aF0.222
aF0.222
aF0.222
aF0.222
aF0.222
aF0.222
aF0.222
aF0.222
aF0.222
aF0.222
aF0.222
aF0.222
aF0.222
aF0.222
aF0.222
aF0.222
aF0.222
aF0.222
aF0.222
aF0.222
aF0.222
aF0.222
aF0.222
aF0.222
aF0.222
aF0.222
aF0.222
aF0.222
aF0.222
aF0.222
aF0.222
aF0.222
aF0.222
aF0.222
aF0.222
aF0.222
aF0.222
aF0.222
aF0.222
aF0.222
aF0.222
aF0.222
aF0.222
aF0.222
aF0.222
aF0.222
aF0.222
aF0.222
aF0.222
aF0.222
aF0.222
aF0.222
aF0.222
aF0.222
aF0.222
aF0.222
aF0.222
aF0.222
aF0.222
aF0.222
aF0.222
aF0.222
aF0.222
aF0.222
aF0.222
aF0.222
aF0.222
aF0.222
aF0.222
aF0.222
aF0.222
aF0.222
aF0.222
aF0.222
aF0.222
aF0.222
aF0.222
aF0.222
aF0.222
aF0.222
aF0.222
aF0.222
aF0.222
aF0.222
aF0.222
aF0.222
aF0.222
aF0.222
aF0.222
aF0.222
aF0.222
aF0.222
aF0.222
aF0.222
aF0.222
aF0.222
aF0.222
aF0.222
aF0.222
aF0.222
aF0.222
aF0.222
aF0.222
aF0.222
aF0.222
aF0.222
aF0.222
aF0.222
aF0.222
aF0.222
aF0.222
aF0.222
aF0.222
aF0.222
aF0.222
aF0.222
aF0.222
aF0.222
aF0.222
aF0.222
aF0.222
aF0.222
aF0.222
aF0.222
aF0.222
aF0.222
aF0.222
aF0.222
aF0.222
aF0.222
aF0.222
aF0.222
aF0.222
aF0.222
aF0.222
aF0.222
aF0.222
aF0.222
aF0.222
aF0.222
aF0.222
aF0.222
aF0.222
aF0.222
aF0.222
aF0.222
aF0.222
aF0.222
aF0.222
aF0.222
aF0.222
aF0.222
aF0.222
aF0.222
aF0.222
aF0.222
aF0.222
aF0.222
aF0.222
aF0.222
aF0.222
aF0.222
aF0.222
aF0.222
aF0.222
aF0.222
aF0.222
aF0.222
aF0.222
aF0.222
aF0.222
aF0.222
aF0.222
aF0.222
aF0.222
aF0.222
aF0.222
aF0.222
aF0.222
aF0.222
aF0.222
aF0.222
aF0.222
aF0.222
aF0.222
aF0.222
aF0.222
aF0.222
aF0.222
aF0.222
aF0.222
aF0.222
aF0.222
aF0.222
aF0.222
aF0.222
aF0.222
aF0.222
aF0.222
aF0.222
aF0.222
aF0.222
aF0.222
aF0.222
aF0.222
aF0.222
aF0.222
aF0.222
aF0.222
aF0.222
aF0.222
aF0.222
aF0.222
aF0.222
aF0.222
aF0.222
aF0.222
aF0.222
aF0.222
aF0.222
aF0.222
aF0.222
aF0.222
aF0.222
aF0.222
aF0.222
aF0.222
aF0.222
aF0.222
aF0.222
aF0.222
aF0.222
aF0.222
aF0.222
aF0.222
aF0.222
aF0.222
aF0.222
aF0.222
aF0.222
aF0.222
aF0.222
aF0.222
aF0.222
aF0.222
aF0.222
aF0.222
aF0.222
aF0.222
aF0.222
aF0.222
aF0.222
aF0.222
aF0.222
aF0.222
aF0.222
aF0.222
aF0.222
aF0.222
aF0.222
aF0.222
aF0.222
aF0.222
aF0.222
aF0.222
aF0.222
aF0.222
aF0.222
aF0.222
aF0.222
aF0.222
aF0.222
aF0.222
aF0.222
aF0.222
aF0.222
aF0.222
aF0.222
aF0.222
aF0.222
aF0.222
aF0.222
aF0.222
aF0.222
aF0.222
aF0.222
aF0.222
aF0.222
aF0.222
aF0.222
aF0.222
aF0.222
aF0.222
aF0.222
aF0.222
aF0.222
aF0.222
aF0.222
aF0.222
aF0.222
aF0.222
aF0.222
aF0.222
aF0.222
aF0.222
aF0.222
aF0.222
aF0.222
aF0.222
aF0.222
aF0.222
aF0.222
aF0.222
aF0.222
aF0.222
aF0.222
aF0.222
aF0.222
aF0.222
aF0.222
aF0.222
aF0.222
aF0.222
aF0.222
aF0.222
aF0.222
aF0.222
aF0.222
aF0.222
aF0.222
aF0.222
aF0.222
aF0.222
aF0.222
aF0.222
aF0.222
aF0.222
aF0.222
aF0.222
aF0.222
aF0.222
aF0.222
aF0.222
aF0.222
aF0.222
aF0.222
aF0.222
aF0.222
aF0.222
aF0.222
aF0.222
aF0.222
aF0.222
aF0.222
aF0.222
aF0.222
aF0.222
aF0.222
aF0.222
aF0.222
aF0.222
aF0.222
aF0.222
aF0.222
aF0.222
aF0.222
aF0.222
aF0.222
aF0.222
aF0.222
aF0.222
aF0.222
aF0.222
aF0.222
aF0.222
aF0.222
aF0.222
aF0.222
aF0.222
aF0.222
aF0.222
aF0.222
aF0.222
aF0.222
aF0.222
aF0.222
aF0.222
aF0.222
aF0.222
aF0.222
aF0.222
aF0.222
aF0.222
aF0.222
aF0.222
aF0.222
aF0.222
aF0.222
aF0.222
aF0.222
aF0.222
aF0.222
aF0.222
aF0.222
aF0.222
aF0.222
aF0.222
aF0.222
aF0.222
aF0.222
aF0.222
aF0.222
aF0.222
aF0.222
aF0.222
aF0.222
aF0.222
aF0.222
aF0.222
aF0.222
aF0.222
aF0.222
aF0.222
aF0.222
aF0.222
aF0.222
aF0.222
aF0.222
aF0.222
aF0.222
aF0.222
aF0.222
aF0.222
aF0.222
aF0.222
aF0.222
aF0.222
aF0.222
aF0.222
aF0.222
aF0.222
aF0.222
aF0.222
aF0.222
aF0.222
aF0.222
aF0.222
aF0.222
aF0.222
aF0.222
aF0.222
aF0.222
aF0.222
aF0.222
aF0.222
aF0.222
aF0.222
aF0.222
aF0.222
aF0.222
aF0.222
aF0.222
aF0.222
aF0.222
aF0.222
aF0.222
aF0.222
aF0.222
aF0.222
aF0.222
aF0.222
aF0.222
aF0.222
aF0.222
aF0.222
aF0.222
aF0.222
aF0.222
aF0.222
aF0.222
aF0.222
aF0.222
aF0.222
aF0.222
aF0.222
aF0.222
aF0.222
aF0.222
aF0.222
aF0.222
aF0.222
aF0.222
aF0.222
aF0.222
aF0.222
aF0.222
aF0.222
aF0.222
aF0.222
assF0.1
(lp7
F233.766
aF232.344
aF300.699
aF230.131
aF221.332
aF228.154
aF222.777
aF236.83
aF220.872
aF228.176
aF211.858
aF263.736
aF222.777
aF262.737
aF228.15
aF223.038
aF222.201
aF227.772
aF279.793
aF258.741
aF221.778
asF0.05
(lp8
F233.766
aF232.344
aF222.816
aF230.131
aF221.332
aF227.986
aF222.777
aF236.83
aF220.872
aF228.176
aF211.858
aF215.461
aF222.777
aF219.447
aF228.15
aF223.038
aF222.201
aF227.772
aF222.935
aF220.324
aF221.778
asS'time'
p9
F34376.104856967926
sF0.2
(lp10
F233.766
aF359.64
aF300.699
aF332.667
aF378.621
aF336.663
aF222.777
aF369.63
aF260.861
aF372.814
aF350.649
aF263.736
aF222.777
aF262.737
aF378.621
aF223.038
aF330.71
aF227.772
aF223.081
aF258.741
aF221.778
asF0.025
(lp11
F206.541
aF212.086
aF222.816
aF230.131
aF221.23
aF227.986
aF222.777
aF218.721
aF220.872
aF228.176
aF211.858
aF220.887
aF222.777
aF218.119
aF228.15
aF223.038
aF222.201
aF221.668
aF222.935
aF220.798
aF221.778
as.