(dp0
F0.1
(dp1
I0
F0.359
sI1
F0.359
sI2
F0.359
sI3
F0.359
sI4
F0.062
sI5
F0.062
sI6
F0.062
sI7
F0.062
sI8
F0.062
sI9
F0.062
sI10
F0.062
sI11
F0.062
sI12
F0.062
sI13
F0.062
sI14
F0.062
sI15
F0.062
sI16
F0.062
sI17
F0.062
sI18
F0.062
sI19
F0.062
sI20
F0.062
sI21
F0.062
sI22
F0.062
sI23
F0.062
sI24
F0.062
sI25
F0.062
sI26
F0.062
sI27
F0.062
sI28
F0.062
sI29
F0.062
sI30
F0.062
sI31
F0.062
sI32
F0.062
sI33
F0.062
sI34
F0.062
sI35
F0.062
sI36
F0.062
sI37
F0.062
sI38
F0.062
sI39
F0.062
sI40
F0.062
sI41
F0.062
sI42
F0.062
sI43
F0.062
sI44
F0.062
sI45
F0.062
sI46
F0.062
sI47
F0.062
sI48
F0.062
sI49
F0.062
sI50
F0.062
sI51
F0.062
sI52
F0.062
sI53
F0.062
sI54
F0.062
sI55
F0.062
sI56
F0.062
sI57
F0.062
sI58
F0.062
sI59
F0.062
sI60
F0.062
sI61
F0.062
sI62
F0.062
sI63
F0.062
sI64
F0.062
sI65
F0.062
sI66
F0.062
sI67
F0.062
sI68
F0.062
sI69
F0.062
sI70
F0.062
sI71
F0.062
sI72
F0.062
sI73
F0.062
sI74
F0.062
sI75
F0.062
sI76
F0.062
sI77
F0.062
sI78
F0.062
sI79
F0.062
sI80
F0.062
sI81
F0.062
sI82
F0.062
sI83
F0.062
sI84
F0.062
sI85
F0.062
sI86
F0.062
sI87
F0.062
sI88
F0.062
sI89
F0.062
sI90
F0.062
sI91
F0.062
sI92
F0.062
sI93
F0.062
sI94
F0.062
sI95
F0.062
sI96
F0.062
sI97
F0.062
sI98
F0.062
sI99
F0.062
sI100
F0.062
sI101
F0.062
sI102
F0.062
sI103
F0.062
sI104
F0.062
sI105
F0.062
sI106
F0.062
sI107
F0.062
sI108
F0.062
sI109
F0.062
sI110
F0.062
sI111
F0.062
sI112
F0.062
sI113
F0.062
sI114
F0.062
sI115
F0.062
sI116
F0.062
sI117
F0.062
sI118
F0.062
sI119
F0.062
sI120
F0.062
sI121
F0.062
sI122
F0.062
sI123
F0.062
sI124
F0.062
sI125
F0.062
sI126
F0.062
sI127
F0.062
sI128
F0.062
sI129
F0.062
sI130
F0.062
sI131
F0.062
sI132
F0.062
sI133
F0.062
sI134
F0.062
sI135
F0.062
sI136
F0.062
sI137
F0.062
sI138
F0.062
sI139
F0.062
sI140
F0.062
sI141
F0.062
sI142
F0.062
sI143
F0.062
sI144
F0.062
sI145
F0.062
sI146
F0.062
sI147
F0.062
sI148
F0.062
sI149
F0.062
sI150
F0.062
sI151
F0.062
sI152
F0.062
sI153
F0.062
sI154
F0.062
sI155
F0.062
sI156
F0.062
sI157
F0.062
sI158
F0.062
sI159
F0.062
sI160
F0.062
sI161
F0.062
sI162
F0.062
sI163
F0.062
sI164
F0.062
sI165
F0.062
sI166
F0.062
sI167
F0.062
sI168
F0.062
sI169
F0.062
sI170
F0.062
sI171
F0.062
sI172
F0.062
sI173
F0.062
sI174
F0.062
sI175
F0.062
sI176
F0.062
sI177
F0.062
sI178
F0.062
sI179
F0.062
sI180
F0.062
sI181
F0.062
sI182
F0.062
sI183
F0.062
sI184
F0.062
sI185
F0.062
sI186
F0.062
sI187
F0.062
sI188
F0.062
sI189
F0.062
sI190
F0.062
sI191
F0.062
sI192
F0.062
sI193
F0.062
sI194
F0.062
sI195
F0.062
sI196
F0.062
sI197
F0.062
sI198
F0.062
sI199
F0.062
sI200
F0.062
sI201
F0.062
sI202
F0.062
sI203
F0.062
sI204
F0.062
sI205
F0.062
sI206
F0.062
sI207
F0.062
sI208
F0.062
sI209
F0.062
sI210
F0.062
sI211
F0.062
sI212
F0.062
sI213
F0.062
sI214
F0.062
sI215
F0.062
sI216
F0.062
sI217
F0.062
sI218
F0.062
sI219
F0.062
sI220
F0.062
sI221
F0.062
sI222
F0.062
sI223
F0.062
sI224
F0.062
sI225
F0.062
sI226
F0.062
sI227
F0.062
sI228
F0.062
sI229
F0.062
sI230
F0.062
sI231
F0.062
sI232
F0.062
sI233
F0.062
sI234
F0.062
sI235
F0.062
sI236
F0.062
sI237
F0.062
sI238
F0.062
sI239
F0.062
sI240
F0.062
sI241
F0.062
sI242
F0.062
sI243
F0.062
sI244
F0.062
sI245
F0.062
sI246
F0.062
sI247
F0.062
sI248
F0.062
sI249
F0.062
sI250
F0.062
sI251
F0.062
sI252
F0.062
sI253
F0.062
sI254
F0.062
sI255
F0.062
sI256
F0.062
sI257
F0.062
sI258
F0.062
sI259
F0.062
sI260
F0.062
sI261
F0.062
sI262
F0.062
sI263
F0.062
sI264
F0.062
sI265
F0.062
sI266
F0.062
sI267
F0.062
sI268
F0.062
sI269
F0.062
sI270
F0.062
sI271
F0.062
sI272
F0.062
sI273
F0.062
sI274
F0.062
sI275
F0.062
sI276
F0.062
sI277
F0.062
sI278
F0.062
sI279
F0.062
sI280
F0.062
sI281
F0.062
sI282
F0.062
sI283
F0.062
sI284
F0.062
sI285
F0.062
sI286
F0.062
sI287
F0.062
sI288
F0.062
sI289
F0.062
sI290
F0.062
sI291
F0.062
sI292
F0.062
sI293
F0.062
sI294
F0.062
sI295
F0.062
sI296
F0.062
sI297
F0.062
sI298
F0.062
sI299
F0.062
sI300
F0.062
sI301
F0.062
sI302
F0.062
sI303
F0.062
sI304
F0.062
sI305
F0.062
sI306
F0.062
sI307
F0.062
sI308
F0.062
sI309
F0.062
sI310
F0.062
sI311
F0.062
sI312
F0.062
sI313
F0.062
sI314
F0.062
sI315
F0.062
sI316
F0.062
sI317
F0.062
sI318
F0.062
sI319
F0.062
sI320
F0.062
sI321
F0.062
sI322
F0.062
sI323
F0.062
sI324
F0.062
sI325
F0.062
sI326
F0.062
sI327
F0.062
sI328
F0.062
sI329
F0.062
sI330
F0.062
sI331
F0.062
sI332
F0.062
sI333
F0.062
sI334
F0.062
sI335
F0.062
sI336
F0.062
sI337
F0.062
sI338
F0.062
sI339
F0.062
sI340
F0.062
sI341
F0.062
sI342
F0.062
sI343
F0.062
sI344
F0.062
sI345
F0.062
sI346
F0.062
sI347
F0.062
sI348
F0.062
sI349
F0.062
sI350
F0.062
sI351
F0.062
sI352
F0.062
sI353
F0.062
sI354
F0.062
sI355
F0.062
sI356
F0.062
sI357
F0.062
sI358
F0.062
sI359
F0.062
sI360
F0.062
sI361
F0.062
sI362
F0.062
sI363
F0.062
sI364
F0.062
sI365
F0.062
sI366
F0.062
sI367
F0.062
sI368
F0.062
sI369
F0.062
sI370
F0.062
sI371
F0.062
sI372
F0.062
sI373
F0.062
sI374
F0.062
sI375
F0.062
sI376
F0.062
sI377
F0.062
sI378
F0.062
sI379
F0.062
sI380
F0.062
sI381
F0.062
sI382
F0.062
sI383
F0.062
sI384
F0.062
sI385
F0.062
sI386
F0.062
sI387
F0.062
sI388
F0.062
sI389
F0.062
sI390
F0.062
sI391
F0.062
sI392
F0.062
sI393
F0.062
sI394
F0.062
sI395
F0.062
sI396
F0.062
sI397
F0.062
sI398
F0.062
sI399
F0.062
sI400
F0.062
sI401
F0.062
sI402
F0.062
sI403
F0.062
sI404
F0.062
sI405
F0.062
sI406
F0.062
sI407
F0.062
sI408
F0.062
sI409
F0.062
sI410
F0.062
sI411
F0.062
sI412
F0.062
sI413
F0.062
sI414
F0.062
sI415
F0.062
sI416
F0.062
sI417
F0.062
sI418
F0.062
sI419
F0.062
sI420
F0.062
sI421
F0.062
sI422
F0.062
sI423
F0.062
sI424
F0.062
sI425
F0.062
sI426
F0.062
sI427
F0.062
sI428
F0.062
sI429
F0.062
sI430
F0.062
sI431
F0.062
sI432
F0.062
sI433
F0.062
sI434
F0.062
sI435
F0.062
sI436
F0.062
sI437
F0.062
sI438
F0.062
sI439
F0.062
sI440
F0.062
sI441
F0.062
sI442
F0.062
sI443
F0.062
sI444
F0.062
sI445
F0.062
sI446
F0.062
sI447
F0.062
sI448
F0.062
sI449
F0.062
sI450
F0.062
sI451
F0.062
sI452
F0.062
sI453
F0.062
sI454
F0.062
sI455
F0.062
sI456
F0.062
sI457
F0.062
sI458
F0.062
sI459
F0.062
sI460
F0.062
sI461
F0.062
sI462
F0.062
sI463
F0.062
sI464
F0.062
sI465
F0.062
sI466
F0.062
sI467
F0.062
sI468
F0.062
sI469
F0.062
sI470
F0.062
sI471
F0.062
sI472
F0.062
sI473
F0.062
sI474
F0.062
sI475
F0.062
sI476
F0.062
sI477
F0.062
sI478
F0.062
sI479
F0.062
sI480
F0.062
sI481
F0.062
sI482
F0.062
sI483
F0.062
sI484
F0.062
sI485
F0.062
sI486
F0.062
sI487
F0.062
sI488
F0.062
sI489
F0.062
sI490
F0.062
sI491
F0.062
sI492
F0.062
sI493
F0.062
sI494
F0.062
sI495
F0.062
sI496
F0.062
sI497
F0.062
sI498
F0.062
sI499
F0.062
sI500
F0.062
sI501
F0.062
sI502
F0.062
sI503
F0.062
sI504
F0.062
sI505
F0.062
sI506
F0.062
sI507
F0.062
sI508
F0.062
sI509
F0.062
sI510
F0.062
sI511
F0.062
sI512
F0.062
sI513
F0.062
sI514
F0.062
sI515
F0.062
sI516
F0.062
sI517
F0.062
sI518
F0.062
sI519
F0.062
sI520
F0.062
sI521
F0.062
sI522
F0.062
sI523
F0.062
sI524
F0.062
sI525
F0.062
sI526
F0.062
sI527
F0.062
sI528
F0.062
sI529
F0.062
sI530
F0.062
sI531
F0.062
sI532
F0.062
sI533
F0.062
sI534
F0.062
sI535
F0.062
sI536
F0.062
sI537
F0.062
sI538
F0.062
sI539
F0.062
sI540
F0.062
sI541
F0.062
sI542
F0.062
sI543
F0.062
sI544
F0.062
sI545
F0.062
sI546
F0.062
sI547
F0.062
sI548
F0.062
sI549
F0.062
sI550
F0.062
sI551
F0.062
sI552
F0.062
sI553
F0.062
sI554
F0.062
sI555
F0.062
sI556
F0.062
sI557
F0.062
sI558
F0.062
sI559
F0.062
sI560
F0.062
sI561
F0.062
sI562
F0.062
sI563
F0.062
sI564
F0.062
sI565
F0.062
sI566
F0.062
sI567
F0.062
sI568
F0.062
sI569
F0.062
sI570
F0.062
sI571
F0.062
sI572
F0.062
sI573
F0.062
sI574
F0.062
sI575
F0.062
sI576
F0.062
sI577
F0.062
sI578
F0.062
sI579
F0.062
sI580
F0.062
sI581
F0.062
sI582
F0.062
sI583
F0.062
sI584
F0.062
sI585
F0.062
sI586
F0.062
sI587
F0.062
sI588
F0.062
sI589
F0.062
sI590
F0.062
sI591
F0.062
sI592
F0.062
sI593
F0.062
sI594
F0.062
sI595
F0.062
sI596
F0.062
sI597
F0.062
sI598
F0.062
sI599
F0.062
sI600
F0.062
sI601
F0.062
sI602
F0.062
sI603
F0.062
sI604
F0.062
sI605
F0.062
sI606
F0.062
sI607
F0.062
sI608
F0.062
sI609
F0.062
sI610
F0.062
sI611
F0.062
sI612
F0.062
sI613
F0.062
sI614
F0.062
sI615
F0.062
sI616
F0.062
sI617
F0.062
sI618
F0.062
sI619
F0.062
sI620
F0.062
sI621
F0.062
sI622
F0.062
sI623
F0.062
sI624
F0.062
sI625
F0.062
sI626
F0.062
sI627
F0.062
sI628
F0.062
sI629
F0.062
sI630
F0.062
sI631
F0.062
sI632
F0.062
sI633
F0.062
sI634
F0.062
sI635
F0.062
sI636
F0.062
sI637
F0.062
sI638
F0.062
sI639
F0.062
sI640
F0.062
sI641
F0.062
sI642
F0.062
sI643
F0.062
sI644
F0.062
sI645
F0.062
sI646
F0.062
sI647
F0.062
sI648
F0.062
sI649
F0.062
sI650
F0.062
sI651
F0.062
sI652
F0.062
sI653
F0.062
sI654
F0.062
sI655
F0.062
sI656
F0.062
sI657
F0.062
sI658
F0.062
sI659
F0.062
sI660
F0.062
sI661
F0.062
sI662
F0.062
sI663
F0.062
sI664
F0.062
sI665
F0.062
sI666
F0.062
sI667
F0.062
sI668
F0.062
sI669
F0.062
sI670
F0.062
sI671
F0.062
sI672
F0.062
sI673
F0.062
sI674
F0.062
sI675
F0.062
sI676
F0.062
sI677
F0.062
sI678
F0.062
sI679
F0.062
sI680
F0.062
sI681
F0.062
sI682
F0.062
sI683
F0.062
sI684
F0.062
sI685
F0.062
sI686
F0.062
sI687
F0.062
sI688
F0.062
sI689
F0.062
sI690
F0.062
sI691
F0.062
sI692
F0.062
sI693
F0.062
sI694
F0.062
sI695
F0.062
sI696
F0.062
sI697
F0.062
sI698
F0.062
sI699
F0.062
sI700
F0.062
sI701
F0.062
sI702
F0.062
sI703
F0.062
sI704
F0.062
sI705
F0.062
sI706
F0.062
sI707
F0.062
sI708
F0.062
sI709
F0.062
sI710
F0.062
sI711
F0.062
sI712
F0.062
sI713
F0.062
sI714
F0.062
sI715
F0.062
sI716
F0.062
sI717
F0.062
sI718
F0.062
sI719
F0.062
sI720
F0.062
sI721
F0.062
sI722
F0.062
sI723
F0.062
sI724
F0.062
sI725
F0.062
sI726
F0.062
sI727
F0.062
sI728
F0.062
sI729
F0.062
sI730
F0.062
sI731
F0.062
sI732
F0.062
sI733
F0.062
sI734
F0.062
sI735
F0.062
sI736
F0.062
sI737
F0.062
sI738
F0.062
sI739
F0.062
sI740
F0.062
sI741
F0.062
sI742
F0.062
sI743
F0.062
sI744
F0.062
sI745
F0.062
sI746
F0.062
sI747
F0.062
sI748
F0.062
sI749
F0.062
sI750
F0.062
sI751
F0.062
sI752
F0.062
sI753
F0.062
sI754
F0.062
sI755
F0.062
sI756
F0.062
sI757
F0.062
sI758
F0.062
sI759
F0.062
sI760
F0.062
sI761
F0.062
sI762
F0.062
sI763
F0.062
sI764
F0.062
sI765
F0.062
sI766
F0.062
sI767
F0.062
sI768
F0.062
sI769
F0.062
sI770
F0.062
sI771
F0.062
sI772
F0.062
sI773
F0.062
sI774
F0.062
sI775
F0.062
sI776
F0.062
sI777
F0.062
sI778
F0.062
sI779
F0.062
sI780
F0.062
sI781
F0.062
sI782
F0.062
sI783
F0.062
sI784
F0.062
sI785
F0.062
sI786
F0.062
sI787
F0.062
sI788
F0.062
sI789
F0.062
sI790
F0.062
sI791
F0.062
sI792
F0.062
sI793
F0.062
sI794
F0.062
sI795
F0.062
sI796
F0.062
sI797
F0.062
sI798
F0.062
sI799
F0.062
sI800
F0.062
sI801
F0.062
sI802
F0.062
sI803
F0.062
sI804
F0.062
sI805
F0.062
sI806
F0.062
sI807
F0.062
sI808
F0.062
sI809
F0.062
sI810
F0.062
sI811
F0.062
sI812
F0.062
sI813
F0.062
sI814
F0.062
sI815
F0.062
sI816
F0.062
sI817
F0.062
sI818
F0.062
sI819
F0.062
sI820
F0.062
sI821
F0.062
sI822
F0.062
sI823
F0.062
sI824
F0.062
sI825
F0.062
sI826
F0.062
sI827
F0.062
sI828
F0.062
sI829
F0.062
sI830
F0.062
sI831
F0.062
sI832
F0.062
sI833
F0.062
sI834
F0.062
sI835
F0.062
sI836
F0.062
sI837
F0.062
sI838
F0.062
sI839
F0.062
sI840
F0.062
sI841
F0.062
sI842
F0.062
sI843
F0.062
sI844
F0.062
sI845
F0.062
sI846
F0.062
sI847
F0.062
sI848
F0.062
sI849
F0.062
sI850
F0.062
sI851
F0.062
sI852
F0.062
sI853
F0.062
sI854
F0.062
sI855
F0.062
sI856
F0.062
sI857
F0.062
sI858
F0.062
sI859
F0.062
sI860
F0.062
sI861
F0.062
sI862
F0.062
sI863
F0.062
sI864
F0.062
sI865
F0.062
sI866
F0.062
sI867
F0.062
sI868
F0.062
sI869
F0.062
sI870
F0.062
sI871
F0.062
sI872
F0.062
sI873
F0.062
sI874
F0.062
sI875
F0.062
sI876
F0.062
sI877
F0.062
sI878
F0.062
sI879
F0.062
sI880
F0.062
sI881
F0.062
sI882
F0.062
sI883
F0.062
sI884
F0.062
sI885
F0.062
sI886
F0.062
sI887
F0.062
sI888
F0.062
sI889
F0.062
sI890
F0.062
sI891
F0.062
sI892
F0.062
sI893
F0.062
sI894
F0.062
sI895
F0.062
sI896
F0.062
sI897
F0.062
sI898
F0.062
sI899
F0.062
sI900
F0.062
sI901
F0.062
sI902
F0.062
sI903
F0.062
sI904
F0.062
sI905
F0.062
sI906
F0.062
sI907
F0.062
sI908
F0.062
sI909
F0.062
sI910
F0.062
sI911
F0.062
sI912
F0.062
sI913
F0.062
sI914
F0.062
sI915
F0.062
sI916
F0.062
sI917
F0.062
sI918
F0.062
sI919
F0.062
sI920
F0.062
sI921
F0.062
sI922
F0.062
sI923
F0.062
sI924
F0.062
sI925
F0.062
sI926
F0.062
sI927
F0.062
sI928
F0.062
sI929
F0.062
sI930
F0.062
sI931
F0.062
sI932
F0.062
sI933
F0.062
sI934
F0.062
sI935
F0.062
sI936
F0.062
sI937
F0.062
sI938
F0.062
sI939
F0.062
sI940
F0.062
sI941
F0.062
sI942
F0.062
sI943
F0.062
sI944
F0.062
sI945
F0.062
sI946
F0.062
sI947
F0.062
sI948
F0.062
sI949
F0.062
sI950
F0.062
sI951
F0.062
sI952
F0.062
sI953
F0.062
sI954
F0.062
sI955
F0.062
sI956
F0.062
sI957
F0.062
sI958
F0.062
sI959
F0.062
sI960
F0.062
sI961
F0.062
sI962
F0.062
sI963
F0.062
sI964
F0.062
sI965
F0.062
sI966
F0.062
sI967
F0.062
sI968
F0.062
sI969
F0.062
sI970
F0.062
sI971
F0.062
sI972
F0.062
sI973
F0.062
sI974
F0.062
sI975
F0.062
sI976
F0.062
sI977
F0.062
sI978
F0.062
sI979
F0.062
sI980
F0.062
sI981
F0.062
sI982
F0.062
sI983
F0.062
sI984
F0.062
sI985
F0.062
sI986
F0.062
sI987
F0.062
sI988
F0.062
sI989
F0.062
sI990
F0.062
sI991
F0.062
sI992
F0.062
sI993
F0.062
sI994
F0.062
sI995
F0.062
sI996
F0.062
sI997
F0.062
sI998
F0.062
sI999
F0.062
ssF0.2
(dp2
I0
F0.711
sI1
F0.711
sI2
F0.711
sI3
F0.711
sI4
F0.359
sI5
F0.359
sI6
F0.062
sI7
F0.062
sI8
F0.062
sI9
F0.062
sI10
F0.062
sI11
F0.062
sI12
F0.062
sI13
F0.062
sI14
F0.062
sI15
F0.062
sI16
F0.062
sI17
F0.062
sI18
F0.062
sI19
F0.062
sI20
F0.062
sI21
F0.062
sI22
F0.062
sI23
F0.062
sI24
F0.062
sI25
F0.062
sI26
F0.062
sI27
F0.062
sI28
F0.062
sI29
F0.062
sI30
F0.062
sI31
F0.062
sI32
F0.062
sI33
F0.062
sI34
F0.062
sI35
F0.062
sI36
F0.062
sI37
F0.062
sI38
F0.062
sI39
F0.062
sI40
F0.062
sI41
F0.062
sI42
F0.062
sI43
F0.062
sI44
F0.062
sI45
F0.062
sI46
F0.062
sI47
F0.062
sI48
F0.062
sI49
F0.062
sI50
F0.062
sI51
F0.062
sI52
F0.062
sI53
F0.062
sI54
F0.062
sI55
F0.062
sI56
F0.062
sI57
F0.062
sI58
F0.062
sI59
F0.062
sI60
F0.062
sI61
F0.062
sI62
F0.062
sI63
F0.062
sI64
F0.062
sI65
F0.062
sI66
F0.062
sI67
F0.062
sI68
F0.062
sI69
F0.062
sI70
F0.062
sI71
F0.062
sI72
F0.062
sI73
F0.062
sI74
F0.062
sI75
F0.062
sI76
F0.062
sI77
F0.062
sI78
F0.062
sI79
F0.062
sI80
F0.062
sI81
F0.062
sI82
F0.062
sI83
F0.062
sI84
F0.062
sI85
F0.062
sI86
F0.062
sI87
F0.062
sI88
F0.062
sI89
F0.062
sI90
F0.062
sI91
F0.062
sI92
F0.062
sI93
F0.062
sI94
F0.062
sI95
F0.062
sI96
F0.062
sI97
F0.062
sI98
F0.062
sI99
F0.062
sI100
F0.062
sI101
F0.062
sI102
F0.062
sI103
F0.062
sI104
F0.062
sI105
F0.062
sI106
F0.062
sI107
F0.062
sI108
F0.062
sI109
F0.062
sI110
F0.062
sI111
F0.062
sI112
F0.062
sI113
F0.062
sI114
F0.062
sI115
F0.062
sI116
F0.062
sI117
F0.062
sI118
F0.062
sI119
F0.062
sI120
F0.062
sI121
F0.062
sI122
F0.062
sI123
F0.062
sI124
F0.062
sI125
F0.062
sI126
F0.062
sI127
F0.062
sI128
F0.062
sI129
F0.062
sI130
F0.062
sI131
F0.062
sI132
F0.062
sI133
F0.062
sI134
F0.062
sI135
F0.062
sI136
F0.062
sI137
F0.062
sI138
F0.062
sI139
F0.062
sI140
F0.062
sI141
F0.062
sI142
F0.062
sI143
F0.062
sI144
F0.062
sI145
F0.062
sI146
F0.062
sI147
F0.062
sI148
F0.062
sI149
F0.062
sI150
F0.062
sI151
F0.062
sI152
F0.062
sI153
F0.062
sI154
F0.062
sI155
F0.062
sI156
F0.062
sI157
F0.062
sI158
F0.062
sI159
F0.062
sI160
F0.062
sI161
F0.062
sI162
F0.062
sI163
F0.062
sI164
F0.062
sI165
F0.062
sI166
F0.062
sI167
F0.062
sI168
F0.062
sI169
F0.062
sI170
F0.062
sI171
F0.062
sI172
F0.062
sI173
F0.062
sI174
F0.062
sI175
F0.062
sI176
F0.062
sI177
F0.062
sI178
F0.062
sI179
F0.062
sI180
F0.062
sI181
F0.062
sI182
F0.062
sI183
F0.062
sI184
F0.062
sI185
F0.062
sI186
F0.062
sI187
F0.062
sI188
F0.062
sI189
F0.062
sI190
F0.062
sI191
F0.062
sI192
F0.062
sI193
F0.062
sI194
F0.062
sI195
F0.062
sI196
F0.062
sI197
F0.062
sI198
F0.062
sI199
F0.062
sI200
F0.062
sI201
F0.062
sI202
F0.062
sI203
F0.062
sI204
F0.062
sI205
F0.062
sI206
F0.062
sI207
F0.062
sI208
F0.062
sI209
F0.062
sI210
F0.062
sI211
F0.062
sI212
F0.062
sI213
F0.062
sI214
F0.062
sI215
F0.062
sI216
F0.062
sI217
F0.062
sI218
F0.062
sI219
F0.062
sI220
F0.062
sI221
F0.062
sI222
F0.062
sI223
F0.062
sI224
F0.062
sI225
F0.062
sI226
F0.062
sI227
F0.062
sI228
F0.062
sI229
F0.062
sI230
F0.062
sI231
F0.062
sI232
F0.062
sI233
F0.062
sI234
F0.062
sI235
F0.062
sI236
F0.062
sI237
F0.062
sI238
F0.062
sI239
F0.062
sI240
F0.062
sI241
F0.062
sI242
F0.062
sI243
F0.062
sI244
F0.062
sI245
F0.062
sI246
F0.062
sI247
F0.062
sI248
F0.062
sI249
F0.062
sI250
F0.062
sI251
F0.062
sI252
F0.062
sI253
F0.062
sI254
F0.062
sI255
F0.062
sI256
F0.062
sI257
F0.062
sI258
F0.062
sI259
F0.062
sI260
F0.062
sI261
F0.062
sI262
F0.062
sI263
F0.062
sI264
F0.062
sI265
F0.062
sI266
F0.062
sI267
F0.062
sI268
F0.062
sI269
F0.062
sI270
F0.062
sI271
F0.062
sI272
F0.062
sI273
F0.062
sI274
F0.062
sI275
F0.062
sI276
F0.062
sI277
F0.062
sI278
F0.062
sI279
F0.062
sI280
F0.062
sI281
F0.062
sI282
F0.062
sI283
F0.062
sI284
F0.062
sI285
F0.062
sI286
F0.062
sI287
F0.062
sI288
F0.062
sI289
F0.062
sI290
F0.062
sI291
F0.062
sI292
F0.062
sI293
F0.062
sI294
F0.062
sI295
F0.062
sI296
F0.062
sI297
F0.062
sI298
F0.062
sI299
F0.062
sI300
F0.062
sI301
F0.062
sI302
F0.062
sI303
F0.062
sI304
F0.062
sI305
F0.062
sI306
F0.062
sI307
F0.062
sI308
F0.062
sI309
F0.062
sI310
F0.062
sI311
F0.062
sI312
F0.062
sI313
F0.062
sI314
F0.062
sI315
F0.062
sI316
F0.062
sI317
F0.062
sI318
F0.062
sI319
F0.062
sI320
F0.062
sI321
F0.062
sI322
F0.062
sI323
F0.062
sI324
F0.062
sI325
F0.062
sI326
F0.062
sI327
F0.062
sI328
F0.062
sI329
F0.062
sI330
F0.062
sI331
F0.062
sI332
F0.062
sI333
F0.062
sI334
F0.062
sI335
F0.062
sI336
F0.062
sI337
F0.062
sI338
F0.062
sI339
F0.062
sI340
F0.062
sI341
F0.062
sI342
F0.062
sI343
F0.062
sI344
F0.062
sI345
F0.062
sI346
F0.062
sI347
F0.062
sI348
F0.062
sI349
F0.062
sI350
F0.062
sI351
F0.062
sI352
F0.062
sI353
F0.062
sI354
F0.062
sI355
F0.062
sI356
F0.062
sI357
F0.062
sI358
F0.062
sI359
F0.062
sI360
F0.062
sI361
F0.062
sI362
F0.062
sI363
F0.062
sI364
F0.062
sI365
F0.062
sI366
F0.062
sI367
F0.062
sI368
F0.062
sI369
F0.062
sI370
F0.062
sI371
F0.062
sI372
F0.062
sI373
F0.062
sI374
F0.062
sI375
F0.062
sI376
F0.062
sI377
F0.062
sI378
F0.062
sI379
F0.062
sI380
F0.062
sI381
F0.062
sI382
F0.062
sI383
F0.062
sI384
F0.062
sI385
F0.062
sI386
F0.062
sI387
F0.062
sI388
F0.062
sI389
F0.062
sI390
F0.062
sI391
F0.062
sI392
F0.062
sI393
F0.062
sI394
F0.062
sI395
F0.062
sI396
F0.062
sI397
F0.062
sI398
F0.062
sI399
F0.062
sI400
F0.062
sI401
F0.062
sI402
F0.062
sI403
F0.062
sI404
F0.062
sI405
F0.062
sI406
F0.062
sI407
F0.062
sI408
F0.062
sI409
F0.062
sI410
F0.062
sI411
F0.062
sI412
F0.062
sI413
F0.062
sI414
F0.062
sI415
F0.062
sI416
F0.062
sI417
F0.062
sI418
F0.062
sI419
F0.062
sI420
F0.062
sI421
F0.062
sI422
F0.062
sI423
F0.062
sI424
F0.062
sI425
F0.062
sI426
F0.062
sI427
F0.062
sI428
F0.062
sI429
F0.062
sI430
F0.062
sI431
F0.062
sI432
F0.062
sI433
F0.062
sI434
F0.062
sI435
F0.062
sI436
F0.062
sI437
F0.062
sI438
F0.062
sI439
F0.062
sI440
F0.062
sI441
F0.062
sI442
F0.062
sI443
F0.062
sI444
F0.062
sI445
F0.062
sI446
F0.062
sI447
F0.062
sI448
F0.062
sI449
F0.062
sI450
F0.062
sI451
F0.062
sI452
F0.062
sI453
F0.062
sI454
F0.062
sI455
F0.062
sI456
F0.062
sI457
F0.062
sI458
F0.062
sI459
F0.062
sI460
F0.062
sI461
F0.062
sI462
F0.062
sI463
F0.062
sI464
F0.062
sI465
F0.062
sI466
F0.062
sI467
F0.062
sI468
F0.062
sI469
F0.062
sI470
F0.062
sI471
F0.062
sI472
F0.062
sI473
F0.062
sI474
F0.062
sI475
F0.062
sI476
F0.062
sI477
F0.062
sI478
F0.062
sI479
F0.062
sI480
F0.062
sI481
F0.062
sI482
F0.062
sI483
F0.062
sI484
F0.062
sI485
F0.062
sI486
F0.062
sI487
F0.062
sI488
F0.062
sI489
F0.062
sI490
F0.062
sI491
F0.062
sI492
F0.062
sI493
F0.062
sI494
F0.062
sI495
F0.062
sI496
F0.062
sI497
F0.062
sI498
F0.062
sI499
F0.062
sI500
F0.062
sI501
F0.062
sI502
F0.062
sI503
F0.062
sI504
F0.062
sI505
F0.062
sI506
F0.062
sI507
F0.062
sI508
F0.062
sI509
F0.062
sI510
F0.062
sI511
F0.062
sI512
F0.062
sI513
F0.062
sI514
F0.062
sI515
F0.062
sI516
F0.062
sI517
F0.062
sI518
F0.062
sI519
F0.062
sI520
F0.062
sI521
F0.062
sI522
F0.062
sI523
F0.062
sI524
F0.062
sI525
F0.062
sI526
F0.062
sI527
F0.062
sI528
F0.062
sI529
F0.062
sI530
F0.062
sI531
F0.062
sI532
F0.062
sI533
F0.062
sI534
F0.062
sI535
F0.062
sI536
F0.062
sI537
F0.062
sI538
F0.062
sI539
F0.062
sI540
F0.062
sI541
F0.062
sI542
F0.062
sI543
F0.062
sI544
F0.062
sI545
F0.062
sI546
F0.062
sI547
F0.062
sI548
F0.062
sI549
F0.062
sI550
F0.062
sI551
F0.062
sI552
F0.062
sI553
F0.062
sI554
F0.062
sI555
F0.062
sI556
F0.062
sI557
F0.062
sI558
F0.062
sI559
F0.062
sI560
F0.062
sI561
F0.062
sI562
F0.062
sI563
F0.062
sI564
F0.062
sI565
F0.062
sI566
F0.062
sI567
F0.062
sI568
F0.062
sI569
F0.062
sI570
F0.062
sI571
F0.062
sI572
F0.062
sI573
F0.062
sI574
F0.062
sI575
F0.062
sI576
F0.062
sI577
F0.062
sI578
F0.062
sI579
F0.062
sI580
F0.062
sI581
F0.062
sI582
F0.062
sI583
F0.062
sI584
F0.062
sI585
F0.062
sI586
F0.062
sI587
F0.062
sI588
F0.062
sI589
F0.062
sI590
F0.062
sI591
F0.062
sI592
F0.062
sI593
F0.062
sI594
F0.062
sI595
F0.062
sI596
F0.062
sI597
F0.062
sI598
F0.062
sI599
F0.062
sI600
F0.062
sI601
F0.062
sI602
F0.062
sI603
F0.062
sI604
F0.062
sI605
F0.062
sI606
F0.062
sI607
F0.062
sI608
F0.062
sI609
F0.062
sI610
F0.062
sI611
F0.062
sI612
F0.062
sI613
F0.062
sI614
F0.062
sI615
F0.062
sI616
F0.062
sI617
F0.062
sI618
F0.062
sI619
F0.062
sI620
F0.062
sI621
F0.062
sI622
F0.062
sI623
F0.062
sI624
F0.062
sI625
F0.062
sI626
F0.062
sI627
F0.062
sI628
F0.062
sI629
F0.062
sI630
F0.062
sI631
F0.062
sI632
F0.062
sI633
F0.062
sI634
F0.062
sI635
F0.062
sI636
F0.062
sI637
F0.062
sI638
F0.062
sI639
F0.062
sI640
F0.062
sI641
F0.062
sI642
F0.062
sI643
F0.062
sI644
F0.062
sI645
F0.062
sI646
F0.062
sI647
F0.062
sI648
F0.062
sI649
F0.062
sI650
F0.062
sI651
F0.062
sI652
F0.062
sI653
F0.062
sI654
F0.062
sI655
F0.062
sI656
F0.062
sI657
F0.062
sI658
F0.062
sI659
F0.062
sI660
F0.062
sI661
F0.062
sI662
F0.062
sI663
F0.062
sI664
F0.062
sI665
F0.062
sI666
F0.062
sI667
F0.062
sI668
F0.062
sI669
F0.062
sI670
F0.062
sI671
F0.062
sI672
F0.062
sI673
F0.062
sI674
F0.062
sI675
F0.062
sI676
F0.062
sI677
F0.062
sI678
F0.062
sI679
F0.062
sI680
F0.062
sI681
F0.062
sI682
F0.062
sI683
F0.062
sI684
F0.062
sI685
F0.062
sI686
F0.062
sI687
F0.062
sI688
F0.062
sI689
F0.062
sI690
F0.062
sI691
F0.062
sI692
F0.062
sI693
F0.062
sI694
F0.062
sI695
F0.062
sI696
F0.062
sI697
F0.062
sI698
F0.062
sI699
F0.062
sI700
F0.062
sI701
F0.062
sI702
F0.062
sI703
F0.062
sI704
F0.062
sI705
F0.062
sI706
F0.062
sI707
F0.062
sI708
F0.062
sI709
F0.062
sI710
F0.062
sI711
F0.062
sI712
F0.062
sI713
F0.062
sI714
F0.062
sI715
F0.062
sI716
F0.062
sI717
F0.062
sI718
F0.062
sI719
F0.062
sI720
F0.062
sI721
F0.062
sI722
F0.062
sI723
F0.062
sI724
F0.062
sI725
F0.062
sI726
F0.062
sI727
F0.062
sI728
F0.062
sI729
F0.062
sI730
F0.062
sI731
F0.062
sI732
F0.062
sI733
F0.062
sI734
F0.062
sI735
F0.062
sI736
F0.062
sI737
F0.062
sI738
F0.062
sI739
F0.062
sI740
F0.062
sI741
F0.062
sI742
F0.062
sI743
F0.062
sI744
F0.062
sI745
F0.062
sI746
F0.062
sI747
F0.062
sI748
F0.062
sI749
F0.062
sI750
F0.062
sI751
F0.062
sI752
F0.062
sI753
F0.062
sI754
F0.062
sI755
F0.062
sI756
F0.062
sI757
F0.062
sI758
F0.062
sI759
F0.062
sI760
F0.062
sI761
F0.062
sI762
F0.062
sI763
F0.062
sI764
F0.062
sI765
F0.062
sI766
F0.062
sI767
F0.062
sI768
F0.062
sI769
F0.062
sI770
F0.062
sI771
F0.062
sI772
F0.062
sI773
F0.062
sI774
F0.062
sI775
F0.062
sI776
F0.062
sI777
F0.062
sI778
F0.062
sI779
F0.062
sI780
F0.062
sI781
F0.062
sI782
F0.062
sI783
F0.062
sI784
F0.062
sI785
F0.062
sI786
F0.062
sI787
F0.062
sI788
F0.062
sI789
F0.062
sI790
F0.062
sI791
F0.062
sI792
F0.062
sI793
F0.062
sI794
F0.062
sI795
F0.062
sI796
F0.062
sI797
F0.062
sI798
F0.062
sI799
F0.062
sI800
F0.062
sI801
F0.062
sI802
F0.062
sI803
F0.062
sI804
F0.062
sI805
F0.062
sI806
F0.062
sI807
F0.062
sI808
F0.062
sI809
F0.062
sI810
F0.062
sI811
F0.062
sI812
F0.062
sI813
F0.062
sI814
F0.062
sI815
F0.062
sI816
F0.062
sI817
F0.062
sI818
F0.062
sI819
F0.062
sI820
F0.062
sI821
F0.062
sI822
F0.062
sI823
F0.062
sI824
F0.062
sI825
F0.062
sI826
F0.062
sI827
F0.062
sI828
F0.062
sI829
F0.062
sI830
F0.062
sI831
F0.062
sI832
F0.062
sI833
F0.062
sI834
F0.062
sI835
F0.062
sI836
F0.062
sI837
F0.062
sI838
F0.062
sI839
F0.062
sI840
F0.062
sI841
F0.062
sI842
F0.062
sI843
F0.062
sI844
F0.062
sI845
F0.062
sI846
F0.062
sI847
F0.062
sI848
F0.062
sI849
F0.062
sI850
F0.062
sI851
F0.062
sI852
F0.062
sI853
F0.062
sI854
F0.062
sI855
F0.062
sI856
F0.062
sI857
F0.062
sI858
F0.062
sI859
F0.062
sI860
F0.062
sI861
F0.062
sI862
F0.062
sI863
F0.062
sI864
F0.062
sI865
F0.062
sI866
F0.062
sI867
F0.062
sI868
F0.062
sI869
F0.062
sI870
F0.062
sI871
F0.062
sI872
F0.062
sI873
F0.062
sI874
F0.062
sI875
F0.062
sI876
F0.062
sI877
F0.062
sI878
F0.062
sI879
F0.062
sI880
F0.062
sI881
F0.062
sI882
F0.062
sI883
F0.062
sI884
F0.062
sI885
F0.062
sI886
F0.062
sI887
F0.062
sI888
F0.062
sI889
F0.062
sI890
F0.062
sI891
F0.062
sI892
F0.062
sI893
F0.062
sI894
F0.062
sI895
F0.062
sI896
F0.062
sI897
F0.062
sI898
F0.062
sI899
F0.062
sI900
F0.062
sI901
F0.062
sI902
F0.062
sI903
F0.062
sI904
F0.062
sI905
F0.062
sI906
F0.062
sI907
F0.062
sI908
F0.062
sI909
F0.062
sI910
F0.062
sI911
F0.062
sI912
F0.062
sI913
F0.062
sI914
F0.062
sI915
F0.062
sI916
F0.062
sI917
F0.062
sI918
F0.062
sI919
F0.062
sI920
F0.062
sI921
F0.062
sI922
F0.062
sI923
F0.062
sI924
F0.062
sI925
F0.062
sI926
F0.062
sI927
F0.062
sI928
F0.062
sI929
F0.062
sI930
F0.062
sI931
F0.062
sI932
F0.062
sI933
F0.062
sI934
F0.062
sI935
F0.062
sI936
F0.062
sI937
F0.062
sI938
F0.062
sI939
F0.062
sI940
F0.062
sI941
F0.062
sI942
F0.062
sI943
F0.062
sI944
F0.062
sI945
F0.062
sI946
F0.062
sI947
F0.062
sI948
F0.062
sI949
F0.062
sI950
F0.062
sI951
F0.062
sI952
F0.062
sI953
F0.062
sI954
F0.062
sI955
F0.062
sI956
F0.062
sI957
F0.062
sI958
F0.062
sI959
F0.062
sI960
F0.062
sI961
F0.062
sI962
F0.062
sI963
F0.062
sI964
F0.062
sI965
F0.062
sI966
F0.062
sI967
F0.062
sI968
F0.062
sI969
F0.062
sI970
F0.062
sI971
F0.062
sI972
F0.062
sI973
F0.062
sI974
F0.062
sI975
F0.062
sI976
F0.062
sI977
F0.062
sI978
F0.062
sI979
F0.062
sI980
F0.062
sI981
F0.062
sI982
F0.062
sI983
F0.062
sI984
F0.062
sI985
F0.062
sI986
F0.062
sI987
F0.062
sI988
F0.062
sI989
F0.062
sI990
F0.062
sI991
F0.062
sI992
F0.062
sI993
F0.062
sI994
F0.062
sI995
F0.062
sI996
F0.062
sI997
F0.062
sI998
F0.062
sI999
F0.062
ssF0.05
(dp3
I0
F0.357
sI1
F0.357
sI2
F0.357
sI3
F0.357
sI4
F0.357
sI5
F0.357
sI6
F0.357
sI7
F0.357
sI8
F0.357
sI9
F0.357
sI10
F0.357
sI11
F0.357
sI12
F0.357
sI13
F0.062
sI14
F0.062
sI15
F0.062
sI16
F0.062
sI17
F0.062
sI18
F0.062
sI19
F0.062
sI20
F0.062
sI21
F0.062
sI22
F0.062
sI23
F0.062
sI24
F0.062
sI25
F0.062
sI26
F0.062
sI27
F0.062
sI28
F0.062
sI29
F0.062
sI30
F0.062
sI31
F0.062
sI32
F0.062
sI33
F0.062
sI34
F0.062
sI35
F0.062
sI36
F0.062
sI37
F0.062
sI38
F0.062
sI39
F0.062
sI40
F0.062
sI41
F0.062
sI42
F0.062
sI43
F0.062
sI44
F0.062
sI45
F0.062
sI46
F0.062
sI47
F0.062
sI48
F0.062
sI49
F0.062
sI50
F0.062
sI51
F0.062
sI52
F0.062
sI53
F0.062
sI54
F0.062
sI55
F0.062
sI56
F0.062
sI57
F0.062
sI58
F0.062
sI59
F0.062
sI60
F0.062
sI61
F0.062
sI62
F0.062
sI63
F0.062
sI64
F0.062
sI65
F0.062
sI66
F0.062
sI67
F0.062
sI68
F0.062
sI69
F0.062
sI70
F0.062
sI71
F0.062
sI72
F0.062
sI73
F0.062
sI74
F0.062
sI75
F0.062
sI76
F0.062
sI77
F0.062
sI78
F0.062
sI79
F0.062
sI80
F0.062
sI81
F0.062
sI82
F0.062
sI83
F0.062
sI84
F0.062
sI85
F0.062
sI86
F0.062
sI87
F0.062
sI88
F0.062
sI89
F0.062
sI90
F0.062
sI91
F0.062
sI92
F0.062
sI93
F0.062
sI94
F0.062
sI95
F0.062
sI96
F0.062
sI97
F0.062
sI98
F0.062
sI99
F0.062
sI100
F0.062
sI101
F0.062
sI102
F0.062
sI103
F0.062
sI104
F0.062
sI105
F0.062
sI106
F0.062
sI107
F0.062
sI108
F0.062
sI109
F0.062
sI110
F0.062
sI111
F0.062
sI112
F0.062
sI113
F0.062
sI114
F0.062
sI115
F0.062
sI116
F0.062
sI117
F0.062
sI118
F0.062
sI119
F0.062
sI120
F0.062
sI121
F0.062
sI122
F0.062
sI123
F0.062
sI124
F0.062
sI125
F0.062
sI126
F0.062
sI127
F0.062
sI128
F0.062
sI129
F0.062
sI130
F0.062
sI131
F0.062
sI132
F0.062
sI133
F0.062
sI134
F0.062
sI135
F0.062
sI136
F0.062
sI137
F0.062
sI138
F0.062
sI139
F0.062
sI140
F0.062
sI141
F0.062
sI142
F0.062
sI143
F0.062
sI144
F0.062
sI145
F0.062
sI146
F0.062
sI147
F0.062
sI148
F0.062
sI149
F0.062
sI150
F0.062
sI151
F0.062
sI152
F0.062
sI153
F0.062
sI154
F0.062
sI155
F0.062
sI156
F0.062
sI157
F0.062
sI158
F0.062
sI159
F0.062
sI160
F0.062
sI161
F0.062
sI162
F0.062
sI163
F0.062
sI164
F0.062
sI165
F0.062
sI166
F0.062
sI167
F0.062
sI168
F0.062
sI169
F0.062
sI170
F0.062
sI171
F0.062
sI172
F0.062
sI173
F0.062
sI174
F0.062
sI175
F0.062
sI176
F0.062
sI177
F0.062
sI178
F0.062
sI179
F0.062
sI180
F0.062
sI181
F0.062
sI182
F0.062
sI183
F0.062
sI184
F0.062
sI185
F0.062
sI186
F0.062
sI187
F0.062
sI188
F0.062
sI189
F0.062
sI190
F0.062
sI191
F0.062
sI192
F0.062
sI193
F0.062
sI194
F0.062
sI195
F0.062
sI196
F0.062
sI197
F0.062
sI198
F0.062
sI199
F0.062
sI200
F0.062
sI201
F0.062
sI202
F0.062
sI203
F0.062
sI204
F0.062
sI205
F0.062
sI206
F0.062
sI207
F0.062
sI208
F0.062
sI209
F0.062
sI210
F0.062
sI211
F0.062
sI212
F0.062
sI213
F0.062
sI214
F0.062
sI215
F0.062
sI216
F0.062
sI217
F0.062
sI218
F0.062
sI219
F0.062
sI220
F0.062
sI221
F0.062
sI222
F0.062
sI223
F0.062
sI224
F0.062
sI225
F0.062
sI226
F0.062
sI227
F0.062
sI228
F0.062
sI229
F0.062
sI230
F0.062
sI231
F0.062
sI232
F0.062
sI233
F0.062
sI234
F0.062
sI235
F0.062
sI236
F0.062
sI237
F0.062
sI238
F0.062
sI239
F0.062
sI240
F0.062
sI241
F0.062
sI242
F0.062
sI243
F0.062
sI244
F0.062
sI245
F0.062
sI246
F0.062
sI247
F0.062
sI248
F0.062
sI249
F0.062
sI250
F0.062
sI251
F0.062
sI252
F0.062
sI253
F0.062
sI254
F0.062
sI255
F0.062
sI256
F0.062
sI257
F0.062
sI258
F0.062
sI259
F0.062
sI260
F0.062
sI261
F0.062
sI262
F0.062
sI263
F0.062
sI264
F0.062
sI265
F0.062
sI266
F0.062
sI267
F0.062
sI268
F0.062
sI269
F0.062
sI270
F0.062
sI271
F0.062
sI272
F0.062
sI273
F0.062
sI274
F0.062
sI275
F0.062
sI276
F0.062
sI277
F0.062
sI278
F0.062
sI279
F0.062
sI280
F0.062
sI281
F0.062
sI282
F0.062
sI283
F0.062
sI284
F0.062
sI285
F0.062
sI286
F0.062
sI287
F0.062
sI288
F0.062
sI289
F0.062
sI290
F0.062
sI291
F0.062
sI292
F0.062
sI293
F0.062
sI294
F0.062
sI295
F0.062
sI296
F0.062
sI297
F0.062
sI298
F0.062
sI299
F0.062
sI300
F0.062
sI301
F0.062
sI302
F0.062
sI303
F0.062
sI304
F0.062
sI305
F0.062
sI306
F0.062
sI307
F0.062
sI308
F0.062
sI309
F0.062
sI310
F0.062
sI311
F0.062
sI312
F0.062
sI313
F0.062
sI314
F0.062
sI315
F0.062
sI316
F0.062
sI317
F0.062
sI318
F0.062
sI319
F0.062
sI320
F0.062
sI321
F0.062
sI322
F0.062
sI323
F0.062
sI324
F0.062
sI325
F0.062
sI326
F0.062
sI327
F0.062
sI328
F0.062
sI329
F0.062
sI330
F0.062
sI331
F0.062
sI332
F0.062
sI333
F0.062
sI334
F0.062
sI335
F0.062
sI336
F0.062
sI337
F0.062
sI338
F0.062
sI339
F0.062
sI340
F0.062
sI341
F0.062
sI342
F0.062
sI343
F0.062
sI344
F0.062
sI345
F0.062
sI346
F0.062
sI347
F0.062
sI348
F0.062
sI349
F0.062
sI350
F0.062
sI351
F0.062
sI352
F0.062
sI353
F0.062
sI354
F0.062
sI355
F0.062
sI356
F0.062
sI357
F0.062
sI358
F0.062
sI359
F0.062
sI360
F0.062
sI361
F0.062
sI362
F0.062
sI363
F0.062
sI364
F0.062
sI365
F0.062
sI366
F0.062
sI367
F0.062
sI368
F0.062
sI369
F0.062
sI370
F0.062
sI371
F0.062
sI372
F0.062
sI373
F0.062
sI374
F0.062
sI375
F0.062
sI376
F0.062
sI377
F0.062
sI378
F0.062
sI379
F0.062
sI380
F0.062
sI381
F0.062
sI382
F0.062
sI383
F0.062
sI384
F0.062
sI385
F0.062
sI386
F0.062
sI387
F0.062
sI388
F0.062
sI389
F0.062
sI390
F0.062
sI391
F0.062
sI392
F0.062
sI393
F0.062
sI394
F0.062
sI395
F0.062
sI396
F0.062
sI397
F0.062
sI398
F0.062
sI399
F0.062
sI400
F0.062
sI401
F0.062
sI402
F0.062
sI403
F0.062
sI404
F0.062
sI405
F0.062
sI406
F0.062
sI407
F0.062
sI408
F0.062
sI409
F0.062
sI410
F0.062
sI411
F0.062
sI412
F0.062
sI413
F0.062
sI414
F0.062
sI415
F0.062
sI416
F0.062
sI417
F0.062
sI418
F0.062
sI419
F0.062
sI420
F0.062
sI421
F0.062
sI422
F0.062
sI423
F0.062
sI424
F0.062
sI425
F0.062
sI426
F0.062
sI427
F0.062
sI428
F0.062
sI429
F0.062
sI430
F0.062
sI431
F0.062
sI432
F0.062
sI433
F0.062
sI434
F0.062
sI435
F0.062
sI436
F0.062
sI437
F0.062
sI438
F0.062
sI439
F0.062
sI440
F0.062
sI441
F0.062
sI442
F0.062
sI443
F0.062
sI444
F0.062
sI445
F0.062
sI446
F0.062
sI447
F0.062
sI448
F0.062
sI449
F0.062
sI450
F0.062
sI451
F0.062
sI452
F0.062
sI453
F0.062
sI454
F0.062
sI455
F0.062
sI456
F0.062
sI457
F0.062
sI458
F0.062
sI459
F0.062
sI460
F0.062
sI461
F0.062
sI462
F0.062
sI463
F0.062
sI464
F0.062
sI465
F0.062
sI466
F0.062
sI467
F0.062
sI468
F0.062
sI469
F0.062
sI470
F0.062
sI471
F0.062
sI472
F0.062
sI473
F0.062
sI474
F0.062
sI475
F0.062
sI476
F0.062
sI477
F0.062
sI478
F0.062
sI479
F0.062
sI480
F0.062
sI481
F0.062
sI482
F0.062
sI483
F0.062
sI484
F0.062
sI485
F0.062
sI486
F0.062
sI487
F0.062
sI488
F0.062
sI489
F0.062
sI490
F0.062
sI491
F0.062
sI492
F0.062
sI493
F0.062
sI494
F0.062
sI495
F0.062
sI496
F0.062
sI497
F0.062
sI498
F0.062
sI499
F0.062
sI500
F0.062
sI501
F0.062
sI502
F0.062
sI503
F0.062
sI504
F0.062
sI505
F0.062
sI506
F0.062
sI507
F0.062
sI508
F0.062
sI509
F0.062
sI510
F0.062
sI511
F0.062
sI512
F0.062
sI513
F0.062
sI514
F0.062
sI515
F0.062
sI516
F0.062
sI517
F0.062
sI518
F0.062
sI519
F0.062
sI520
F0.062
sI521
F0.062
sI522
F0.062
sI523
F0.062
sI524
F0.062
sI525
F0.062
sI526
F0.062
sI527
F0.062
sI528
F0.062
sI529
F0.062
sI530
F0.062
sI531
F0.062
sI532
F0.062
sI533
F0.062
sI534
F0.062
sI535
F0.062
sI536
F0.062
sI537
F0.062
sI538
F0.062
sI539
F0.062
sI540
F0.062
sI541
F0.062
sI542
F0.062
sI543
F0.062
sI544
F0.062
sI545
F0.062
sI546
F0.062
sI547
F0.062
sI548
F0.062
sI549
F0.062
sI550
F0.062
sI551
F0.062
sI552
F0.062
sI553
F0.062
sI554
F0.062
sI555
F0.062
sI556
F0.062
sI557
F0.062
sI558
F0.062
sI559
F0.062
sI560
F0.062
sI561
F0.062
sI562
F0.062
sI563
F0.062
sI564
F0.062
sI565
F0.062
sI566
F0.062
sI567
F0.062
sI568
F0.062
sI569
F0.062
sI570
F0.062
sI571
F0.062
sI572
F0.062
sI573
F0.062
sI574
F0.062
sI575
F0.062
sI576
F0.062
sI577
F0.062
sI578
F0.062
sI579
F0.062
sI580
F0.062
sI581
F0.062
sI582
F0.062
sI583
F0.062
sI584
F0.062
sI585
F0.062
sI586
F0.062
sI587
F0.062
sI588
F0.062
sI589
F0.062
sI590
F0.062
sI591
F0.062
sI592
F0.062
sI593
F0.062
sI594
F0.062
sI595
F0.062
sI596
F0.062
sI597
F0.062
sI598
F0.062
sI599
F0.062
sI600
F0.062
sI601
F0.062
sI602
F0.062
sI603
F0.062
sI604
F0.062
sI605
F0.062
sI606
F0.062
sI607
F0.062
sI608
F0.062
sI609
F0.062
sI610
F0.062
sI611
F0.062
sI612
F0.062
sI613
F0.062
sI614
F0.062
sI615
F0.062
sI616
F0.062
sI617
F0.062
sI618
F0.062
sI619
F0.062
sI620
F0.062
sI621
F0.062
sI622
F0.062
sI623
F0.062
sI624
F0.062
sI625
F0.062
sI626
F0.062
sI627
F0.062
sI628
F0.062
sI629
F0.062
sI630
F0.062
sI631
F0.062
sI632
F0.062
sI633
F0.062
sI634
F0.062
sI635
F0.062
sI636
F0.062
sI637
F0.062
sI638
F0.062
sI639
F0.062
sI640
F0.062
sI641
F0.062
sI642
F0.062
sI643
F0.062
sI644
F0.062
sI645
F0.062
sI646
F0.062
sI647
F0.062
sI648
F0.062
sI649
F0.062
sI650
F0.062
sI651
F0.062
sI652
F0.062
sI653
F0.062
sI654
F0.062
sI655
F0.062
sI656
F0.062
sI657
F0.062
sI658
F0.062
sI659
F0.062
sI660
F0.062
sI661
F0.062
sI662
F0.062
sI663
F0.062
sI664
F0.062
sI665
F0.062
sI666
F0.062
sI667
F0.062
sI668
F0.062
sI669
F0.062
sI670
F0.062
sI671
F0.062
sI672
F0.062
sI673
F0.062
sI674
F0.062
sI675
F0.062
sI676
F0.062
sI677
F0.062
sI678
F0.062
sI679
F0.062
sI680
F0.062
sI681
F0.062
sI682
F0.062
sI683
F0.062
sI684
F0.062
sI685
F0.062
sI686
F0.062
sI687
F0.062
sI688
F0.062
sI689
F0.062
sI690
F0.062
sI691
F0.062
sI692
F0.062
sI693
F0.062
sI694
F0.062
sI695
F0.062
sI696
F0.062
sI697
F0.062
sI698
F0.062
sI699
F0.062
sI700
F0.062
sI701
F0.062
sI702
F0.062
sI703
F0.062
sI704
F0.062
sI705
F0.062
sI706
F0.062
sI707
F0.062
sI708
F0.062
sI709
F0.062
sI710
F0.062
sI711
F0.062
sI712
F0.062
sI713
F0.062
sI714
F0.062
sI715
F0.062
sI716
F0.062
sI717
F0.062
sI718
F0.062
sI719
F0.062
sI720
F0.062
sI721
F0.062
sI722
F0.062
sI723
F0.062
sI724
F0.062
sI725
F0.062
sI726
F0.062
sI727
F0.062
sI728
F0.062
sI729
F0.062
sI730
F0.062
sI731
F0.062
sI732
F0.062
sI733
F0.062
sI734
F0.062
sI735
F0.062
sI736
F0.062
sI737
F0.062
sI738
F0.062
sI739
F0.062
sI740
F0.062
sI741
F0.062
sI742
F0.062
sI743
F0.062
sI744
F0.062
sI745
F0.062
sI746
F0.062
sI747
F0.062
sI748
F0.062
sI749
F0.062
sI750
F0.062
sI751
F0.062
sI752
F0.062
sI753
F0.062
sI754
F0.062
sI755
F0.062
sI756
F0.062
sI757
F0.062
sI758
F0.062
sI759
F0.062
sI760
F0.062
sI761
F0.062
sI762
F0.062
sI763
F0.062
sI764
F0.062
sI765
F0.062
sI766
F0.062
sI767
F0.062
sI768
F0.062
sI769
F0.062
sI770
F0.062
sI771
F0.062
sI772
F0.062
sI773
F0.062
sI774
F0.062
sI775
F0.062
sI776
F0.062
sI777
F0.062
sI778
F0.062
sI779
F0.062
sI780
F0.062
sI781
F0.062
sI782
F0.062
sI783
F0.062
sI784
F0.062
sI785
F0.062
sI786
F0.062
sI787
F0.062
sI788
F0.062
sI789
F0.062
sI790
F0.062
sI791
F0.062
sI792
F0.062
sI793
F0.062
sI794
F0.062
sI795
F0.062
sI796
F0.062
sI797
F0.062
sI798
F0.062
sI799
F0.062
sI800
F0.062
sI801
F0.062
sI802
F0.062
sI803
F0.062
sI804
F0.062
sI805
F0.062
sI806
F0.062
sI807
F0.062
sI808
F0.062
sI809
F0.062
sI810
F0.062
sI811
F0.062
sI812
F0.062
sI813
F0.062
sI814
F0.062
sI815
F0.062
sI816
F0.062
sI817
F0.062
sI818
F0.062
sI819
F0.062
sI820
F0.062
sI821
F0.062
sI822
F0.062
sI823
F0.062
sI824
F0.062
sI825
F0.062
sI826
F0.062
sI827
F0.062
sI828
F0.062
sI829
F0.062
sI830
F0.062
sI831
F0.062
sI832
F0.062
sI833
F0.062
sI834
F0.062
sI835
F0.062
sI836
F0.062
sI837
F0.062
sI838
F0.062
sI839
F0.062
sI840
F0.062
sI841
F0.062
sI842
F0.062
sI843
F0.062
sI844
F0.062
sI845
F0.062
sI846
F0.062
sI847
F0.062
sI848
F0.062
sI849
F0.062
sI850
F0.062
sI851
F0.062
sI852
F0.062
sI853
F0.062
sI854
F0.062
sI855
F0.062
sI856
F0.062
sI857
F0.062
sI858
F0.062
sI859
F0.062
sI860
F0.062
sI861
F0.062
sI862
F0.062
sI863
F0.062
sI864
F0.062
sI865
F0.062
sI866
F0.062
sI867
F0.062
sI868
F0.062
sI869
F0.062
sI870
F0.062
sI871
F0.062
sI872
F0.062
sI873
F0.062
sI874
F0.062
sI875
F0.062
sI876
F0.062
sI877
F0.062
sI878
F0.062
sI879
F0.062
sI880
F0.062
sI881
F0.062
sI882
F0.062
sI883
F0.062
sI884
F0.062
sI885
F0.062
sI886
F0.062
sI887
F0.062
sI888
F0.062
sI889
F0.062
sI890
F0.062
sI891
F0.062
sI892
F0.062
sI893
F0.062
sI894
F0.062
sI895
F0.062
sI896
F0.062
sI897
F0.062
sI898
F0.062
sI899
F0.062
sI900
F0.062
sI901
F0.062
sI902
F0.062
sI903
F0.062
sI904
F0.062
sI905
F0.062
sI906
F0.062
sI907
F0.062
sI908
F0.062
sI909
F0.062
sI910
F0.062
sI911
F0.062
sI912
F0.062
sI913
F0.062
sI914
F0.062
sI915
F0.062
sI916
F0.062
sI917
F0.062
sI918
F0.062
sI919
F0.062
sI920
F0.062
sI921
F0.062
sI922
F0.062
sI923
F0.062
sI924
F0.062
sI925
F0.062
sI926
F0.062
sI927
F0.062
sI928
F0.062
sI929
F0.062
sI930
F0.062
sI931
F0.062
sI932
F0.062
sI933
F0.062
sI934
F0.062
sI935
F0.062
sI936
F0.062
sI937
F0.062
sI938
F0.062
sI939
F0.062
sI940
F0.062
sI941
F0.062
sI942
F0.062
sI943
F0.062
sI944
F0.062
sI945
F0.062
sI946
F0.062
sI947
F0.062
sI948
F0.062
sI949
F0.062
sI950
F0.062
sI951
F0.062
sI952
F0.062
sI953
F0.062
sI954
F0.062
sI955
F0.062
sI956
F0.062
sI957
F0.062
sI958
F0.062
sI959
F0.062
sI960
F0.062
sI961
F0.062
sI962
F0.062
sI963
F0.062
sI964
F0.062
sI965
F0.062
sI966
F0.062
sI967
F0.062
sI968
F0.062
sI969
F0.062
sI970
F0.062
sI971
F0.062
sI972
F0.062
sI973
F0.062
sI974
F0.062
sI975
F0.062
sI976
F0.062
sI977
F0.062
sI978
F0.062
sI979
F0.062
sI980
F0.062
sI981
F0.062
sI982
F0.062
sI983
F0.062
sI984
F0.062
sI985
F0.062
sI986
F0.062
sI987
F0.062
sI988
F0.062
sI989
F0.062
sI990
F0.062
sI991
F0.062
sI992
F0.062
sI993
F0.062
sI994
F0.062
sI995
F0.062
sI996
F0.062
sI997
F0.062
sI998
F0.062
sI999
F0.062
ssF0.025
(dp4
I0
F0.711
sI1
F0.711
sI2
F0.711
sI3
F0.711
sI4
F0.711
sI5
F0.359
sI6
F0.359
sI7
F0.359
sI8
F0.359
sI9
F0.359
sI10
F0.359
sI11
F0.359
sI12
F0.359
sI13
F0.359
sI14
F0.359
sI15
F0.359
sI16
F0.359
sI17
F0.359
sI18
F0.359
sI19
F0.359
sI20
F0.359
sI21
F0.359
sI22
F0.359
sI23
F0.359
sI24
F0.359
sI25
F0.359
sI26
F0.359
sI27
F0.359
sI28
F0.359
sI29
F0.359
sI30
F0.359
sI31
F0.359
sI32
F0.359
sI33
F0.047
sI34
F0.047
sI35
F0.047
sI36
F0.047
sI37
F0.047
sI38
F0.047
sI39
F0.047
sI40
F0.047
sI41
F0.047
sI42
F0.047
sI43
F0.047
sI44
F0.047
sI45
F0.047
sI46
F0.047
sI47
F0.047
sI48
F0.047
sI49
F0.047
sI50
F0.047
sI51
F0.047
sI52
F0.047
sI53
F0.047
sI54
F0.047
sI55
F0.047
sI56
F0.047
sI57
F0.047
sI58
F0.047
sI59
F0.047
sI60
F0.047
sI61
F0.047
sI62
F0.047
sI63
F0.047
sI64
F0.047
sI65
F0.047
sI66
F0.047
sI67
F0.047
sI68
F0.047
sI69
F0.047
sI70
F0.047
sI71
F0.047
sI72
F0.047
sI73
F0.047
sI74
F0.047
sI75
F0.047
sI76
F0.047
sI77
F0.047
sI78
F0.047
sI79
F0.047
sI80
F0.047
sI81
F0.047
sI82
F0.047
sI83
F0.047
sI84
F0.047
sI85
F0.047
sI86
F0.047
sI87
F0.047
sI88
F0.047
sI89
F0.047
sI90
F0.047
sI91
F0.047
sI92
F0.047
sI93
F0.047
sI94
F0.047
sI95
F0.047
sI96
F0.047
sI97
F0.047
sI98
F0.047
sI99
F0.047
sI100
F0.047
sI101
F0.047
sI102
F0.047
sI103
F0.047
sI104
F0.047
sI105
F0.047
sI106
F0.047
sI107
F0.047
sI108
F0.047
sI109
F0.047
sI110
F0.047
sI111
F0.047
sI112
F0.047
sI113
F0.047
sI114
F0.047
sI115
F0.047
sI116
F0.047
sI117
F0.047
sI118
F0.047
sI119
F0.047
sI120
F0.047
sI121
F0.047
sI122
F0.047
sI123
F0.047
sI124
F0.047
sI125
F0.047
sI126
F0.047
sI127
F0.047
sI128
F0.047
sI129
F0.047
sI130
F0.047
sI131
F0.047
sI132
F0.047
sI133
F0.047
sI134
F0.047
sI135
F0.047
sI136
F0.047
sI137
F0.047
sI138
F0.047
sI139
F0.047
sI140
F0.047
sI141
F0.047
sI142
F0.047
sI143
F0.047
sI144
F0.047
sI145
F0.047
sI146
F0.047
sI147
F0.047
sI148
F0.047
sI149
F0.047
sI150
F0.047
sI151
F0.047
sI152
F0.047
sI153
F0.047
sI154
F0.047
sI155
F0.047
sI156
F0.047
sI157
F0.047
sI158
F0.047
sI159
F0.047
sI160
F0.047
sI161
F0.047
sI162
F0.047
sI163
F0.047
sI164
F0.047
sI165
F0.047
sI166
F0.047
sI167
F0.047
sI168
F0.047
sI169
F0.047
sI170
F0.047
sI171
F0.047
sI172
F0.047
sI173
F0.047
sI174
F0.047
sI175
F0.047
sI176
F0.047
sI177
F0.047
sI178
F0.047
sI179
F0.047
sI180
F0.047
sI181
F0.047
sI182
F0.047
sI183
F0.047
sI184
F0.047
sI185
F0.047
sI186
F0.047
sI187
F0.047
sI188
F0.047
sI189
F0.047
sI190
F0.047
sI191
F0.047
sI192
F0.047
sI193
F0.047
sI194
F0.047
sI195
F0.047
sI196
F0.047
sI197
F0.047
sI198
F0.047
sI199
F0.047
sI200
F0.047
sI201
F0.047
sI202
F0.047
sI203
F0.047
sI204
F0.047
sI205
F0.047
sI206
F0.047
sI207
F0.047
sI208
F0.047
sI209
F0.047
sI210
F0.047
sI211
F0.047
sI212
F0.047
sI213
F0.047
sI214
F0.047
sI215
F0.047
sI216
F0.047
sI217
F0.047
sI218
F0.047
sI219
F0.047
sI220
F0.047
sI221
F0.047
sI222
F0.047
sI223
F0.047
sI224
F0.047
sI225
F0.047
sI226
F0.047
sI227
F0.047
sI228
F0.047
sI229
F0.047
sI230
F0.047
sI231
F0.047
sI232
F0.047
sI233
F0.047
sI234
F0.047
sI235
F0.047
sI236
F0.047
sI237
F0.047
sI238
F0.047
sI239
F0.047
sI240
F0.047
sI241
F0.047
sI242
F0.047
sI243
F0.047
sI244
F0.047
sI245
F0.047
sI246
F0.047
sI247
F0.047
sI248
F0.047
sI249
F0.047
sI250
F0.047
sI251
F0.047
sI252
F0.047
sI253
F0.047
sI254
F0.047
sI255
F0.047
sI256
F0.047
sI257
F0.047
sI258
F0.047
sI259
F0.047
sI260
F0.047
sI261
F0.047
sI262
F0.047
sI263
F0.047
sI264
F0.047
sI265
F0.047
sI266
F0.047
sI267
F0.047
sI268
F0.047
sI269
F0.047
sI270
F0.047
sI271
F0.047
sI272
F0.047
sI273
F0.047
sI274
F0.047
sI275
F0.047
sI276
F0.047
sI277
F0.047
sI278
F0.047
sI279
F0.047
sI280
F0.047
sI281
F0.047
sI282
F0.047
sI283
F0.047
sI284
F0.047
sI285
F0.047
sI286
F0.047
sI287
F0.047
sI288
F0.047
sI289
F0.047
sI290
F0.047
sI291
F0.047
sI292
F0.047
sI293
F0.047
sI294
F0.047
sI295
F0.047
sI296
F0.047
sI297
F0.047
sI298
F0.047
sI299
F0.047
sI300
F0.047
sI301
F0.047
sI302
F0.047
sI303
F0.047
sI304
F0.047
sI305
F0.047
sI306
F0.047
sI307
F0.047
sI308
F0.047
sI309
F0.047
sI310
F0.047
sI311
F0.047
sI312
F0.047
sI313
F0.047
sI314
F0.047
sI315
F0.047
sI316
F0.047
sI317
F0.047
sI318
F0.047
sI319
F0.047
sI320
F0.047
sI321
F0.047
sI322
F0.047
sI323
F0.047
sI324
F0.047
sI325
F0.047
sI326
F0.047
sI327
F0.047
sI328
F0.047
sI329
F0.047
sI330
F0.047
sI331
F0.047
sI332
F0.047
sI333
F0.047
sI334
F0.047
sI335
F0.047
sI336
F0.047
sI337
F0.047
sI338
F0.047
sI339
F0.047
sI340
F0.047
sI341
F0.047
sI342
F0.047
sI343
F0.047
sI344
F0.047
sI345
F0.047
sI346
F0.047
sI347
F0.047
sI348
F0.047
sI349
F0.047
sI350
F0.047
sI351
F0.047
sI352
F0.047
sI353
F0.047
sI354
F0.047
sI355
F0.047
sI356
F0.047
sI357
F0.047
sI358
F0.047
sI359
F0.047
sI360
F0.047
sI361
F0.047
sI362
F0.047
sI363
F0.047
sI364
F0.047
sI365
F0.047
sI366
F0.047
sI367
F0.047
sI368
F0.047
sI369
F0.047
sI370
F0.047
sI371
F0.047
sI372
F0.047
sI373
F0.047
sI374
F0.047
sI375
F0.047
sI376
F0.047
sI377
F0.047
sI378
F0.047
sI379
F0.047
sI380
F0.047
sI381
F0.047
sI382
F0.047
sI383
F0.047
sI384
F0.047
sI385
F0.047
sI386
F0.047
sI387
F0.047
sI388
F0.047
sI389
F0.047
sI390
F0.047
sI391
F0.047
sI392
F0.047
sI393
F0.047
sI394
F0.047
sI395
F0.047
sI396
F0.047
sI397
F0.047
sI398
F0.047
sI399
F0.047
sI400
F0.047
sI401
F0.047
sI402
F0.047
sI403
F0.047
sI404
F0.047
sI405
F0.047
sI406
F0.047
sI407
F0.047
sI408
F0.047
sI409
F0.047
sI410
F0.047
sI411
F0.047
sI412
F0.047
sI413
F0.047
sI414
F0.047
sI415
F0.047
sI416
F0.047
sI417
F0.047
sI418
F0.047
sI419
F0.047
sI420
F0.047
sI421
F0.047
sI422
F0.047
sI423
F0.047
sI424
F0.047
sI425
F0.047
sI426
F0.047
sI427
F0.047
sI428
F0.047
sI429
F0.047
sI430
F0.047
sI431
F0.047
sI432
F0.047
sI433
F0.047
sI434
F0.047
sI435
F0.047
sI436
F0.047
sI437
F0.047
sI438
F0.047
sI439
F0.047
sI440
F0.047
sI441
F0.047
sI442
F0.047
sI443
F0.047
sI444
F0.047
sI445
F0.047
sI446
F0.047
sI447
F0.047
sI448
F0.047
sI449
F0.047
sI450
F0.047
sI451
F0.047
sI452
F0.047
sI453
F0.047
sI454
F0.047
sI455
F0.047
sI456
F0.047
sI457
F0.047
sI458
F0.047
sI459
F0.047
sI460
F0.047
sI461
F0.047
sI462
F0.047
sI463
F0.047
sI464
F0.047
sI465
F0.047
sI466
F0.047
sI467
F0.047
sI468
F0.047
sI469
F0.047
sI470
F0.047
sI471
F0.047
sI472
F0.047
sI473
F0.047
sI474
F0.047
sI475
F0.047
sI476
F0.047
sI477
F0.047
sI478
F0.047
sI479
F0.047
sI480
F0.047
sI481
F0.047
sI482
F0.047
sI483
F0.047
sI484
F0.047
sI485
F0.047
sI486
F0.047
sI487
F0.047
sI488
F0.047
sI489
F0.047
sI490
F0.047
sI491
F0.047
sI492
F0.047
sI493
F0.047
sI494
F0.047
sI495
F0.047
sI496
F0.047
sI497
F0.047
sI498
F0.047
sI499
F0.047
sI500
F0.047
sI501
F0.047
sI502
F0.047
sI503
F0.047
sI504
F0.047
sI505
F0.047
sI506
F0.047
sI507
F0.047
sI508
F0.047
sI509
F0.047
sI510
F0.047
sI511
F0.047
sI512
F0.047
sI513
F0.047
sI514
F0.047
sI515
F0.047
sI516
F0.047
sI517
F0.047
sI518
F0.047
sI519
F0.047
sI520
F0.047
sI521
F0.047
sI522
F0.047
sI523
F0.047
sI524
F0.047
sI525
F0.047
sI526
F0.047
sI527
F0.047
sI528
F0.047
sI529
F0.047
sI530
F0.047
sI531
F0.047
sI532
F0.047
sI533
F0.047
sI534
F0.047
sI535
F0.047
sI536
F0.047
sI537
F0.047
sI538
F0.047
sI539
F0.047
sI540
F0.047
sI541
F0.047
sI542
F0.047
sI543
F0.047
sI544
F0.047
sI545
F0.047
sI546
F0.047
sI547
F0.047
sI548
F0.047
sI549
F0.047
sI550
F0.047
sI551
F0.047
sI552
F0.047
sI553
F0.047
sI554
F0.047
sI555
F0.047
sI556
F0.047
sI557
F0.047
sI558
F0.047
sI559
F0.047
sI560
F0.047
sI561
F0.047
sI562
F0.047
sI563
F0.047
sI564
F0.047
sI565
F0.047
sI566
F0.047
sI567
F0.047
sI568
F0.047
sI569
F0.047
sI570
F0.047
sI571
F0.047
sI572
F0.047
sI573
F0.047
sI574
F0.047
sI575
F0.047
sI576
F0.047
sI577
F0.047
sI578
F0.047
sI579
F0.047
sI580
F0.047
sI581
F0.047
sI582
F0.047
sI583
F0.047
sI584
F0.047
sI585
F0.047
sI586
F0.047
sI587
F0.047
sI588
F0.047
sI589
F0.047
sI590
F0.047
sI591
F0.047
sI592
F0.047
sI593
F0.047
sI594
F0.047
sI595
F0.047
sI596
F0.047
sI597
F0.047
sI598
F0.047
sI599
F0.047
sI600
F0.047
sI601
F0.047
sI602
F0.047
sI603
F0.047
sI604
F0.047
sI605
F0.047
sI606
F0.047
sI607
F0.047
sI608
F0.047
sI609
F0.047
sI610
F0.047
sI611
F0.047
sI612
F0.047
sI613
F0.047
sI614
F0.047
sI615
F0.047
sI616
F0.047
sI617
F0.047
sI618
F0.047
sI619
F0.047
sI620
F0.047
sI621
F0.047
sI622
F0.047
sI623
F0.047
sI624
F0.047
sI625
F0.047
sI626
F0.047
sI627
F0.047
sI628
F0.047
sI629
F0.047
sI630
F0.047
sI631
F0.047
sI632
F0.047
sI633
F0.047
sI634
F0.047
sI635
F0.047
sI636
F0.047
sI637
F0.047
sI638
F0.047
sI639
F0.047
sI640
F0.047
sI641
F0.047
sI642
F0.047
sI643
F0.047
sI644
F0.047
sI645
F0.047
sI646
F0.047
sI647
F0.047
sI648
F0.047
sI649
F0.047
sI650
F0.047
sI651
F0.047
sI652
F0.047
sI653
F0.047
sI654
F0.047
sI655
F0.047
sI656
F0.047
sI657
F0.047
sI658
F0.047
sI659
F0.047
sI660
F0.047
sI661
F0.047
sI662
F0.047
sI663
F0.047
sI664
F0.047
sI665
F0.047
sI666
F0.047
sI667
F0.047
sI668
F0.047
sI669
F0.047
sI670
F0.047
sI671
F0.047
sI672
F0.047
sI673
F0.047
sI674
F0.047
sI675
F0.047
sI676
F0.047
sI677
F0.047
sI678
F0.047
sI679
F0.047
sI680
F0.047
sI681
F0.047
sI682
F0.047
sI683
F0.047
sI684
F0.047
sI685
F0.047
sI686
F0.047
sI687
F0.047
sI688
F0.047
sI689
F0.047
sI690
F0.047
sI691
F0.047
sI692
F0.047
sI693
F0.047
sI694
F0.047
sI695
F0.047
sI696
F0.047
sI697
F0.047
sI698
F0.047
sI699
F0.047
sI700
F0.047
sI701
F0.047
sI702
F0.047
sI703
F0.047
sI704
F0.047
sI705
F0.047
sI706
F0.047
sI707
F0.047
sI708
F0.047
sI709
F0.047
sI710
F0.047
sI711
F0.047
sI712
F0.047
sI713
F0.047
sI714
F0.047
sI715
F0.047
sI716
F0.047
sI717
F0.047
sI718
F0.047
sI719
F0.047
sI720
F0.047
sI721
F0.047
sI722
F0.047
sI723
F0.047
sI724
F0.047
sI725
F0.047
sI726
F0.047
sI727
F0.047
sI728
F0.047
sI729
F0.047
sI730
F0.047
sI731
F0.047
sI732
F0.047
sI733
F0.047
sI734
F0.047
sI735
F0.047
sI736
F0.047
sI737
F0.047
sI738
F0.047
sI739
F0.047
sI740
F0.047
sI741
F0.047
sI742
F0.047
sI743
F0.047
sI744
F0.047
sI745
F0.047
sI746
F0.047
sI747
F0.047
sI748
F0.047
sI749
F0.047
sI750
F0.047
sI751
F0.047
sI752
F0.047
sI753
F0.047
sI754
F0.047
sI755
F0.047
sI756
F0.047
sI757
F0.047
sI758
F0.047
sI759
F0.047
sI760
F0.047
sI761
F0.047
sI762
F0.047
sI763
F0.047
sI764
F0.047
sI765
F0.047
sI766
F0.047
sI767
F0.047
sI768
F0.047
sI769
F0.047
sI770
F0.047
sI771
F0.047
sI772
F0.047
sI773
F0.047
sI774
F0.047
sI775
F0.047
sI776
F0.047
sI777
F0.047
sI778
F0.047
sI779
F0.047
sI780
F0.047
sI781
F0.047
sI782
F0.047
sI783
F0.047
sI784
F0.047
sI785
F0.047
sI786
F0.047
sI787
F0.047
sI788
F0.047
sI789
F0.047
sI790
F0.047
sI791
F0.047
sI792
F0.047
sI793
F0.047
sI794
F0.047
sI795
F0.047
sI796
F0.047
sI797
F0.047
sI798
F0.047
sI799
F0.047
sI800
F0.047
sI801
F0.047
sI802
F0.047
sI803
F0.047
sI804
F0.047
sI805
F0.047
sI806
F0.047
sI807
F0.047
sI808
F0.047
sI809
F0.047
sI810
F0.047
sI811
F0.047
sI812
F0.047
sI813
F0.047
sI814
F0.047
sI815
F0.047
sI816
F0.047
sI817
F0.047
sI818
F0.047
sI819
F0.047
sI820
F0.047
sI821
F0.047
sI822
F0.047
sI823
F0.047
sI824
F0.047
sI825
F0.047
sI826
F0.047
sI827
F0.047
sI828
F0.047
sI829
F0.047
sI830
F0.047
sI831
F0.047
sI832
F0.047
sI833
F0.047
sI834
F0.047
sI835
F0.047
sI836
F0.047
sI837
F0.047
sI838
F0.047
sI839
F0.047
sI840
F0.047
sI841
F0.047
sI842
F0.047
sI843
F0.047
sI844
F0.047
sI845
F0.047
sI846
F0.047
sI847
F0.047
sI848
F0.047
sI849
F0.047
sI850
F0.047
sI851
F0.047
sI852
F0.047
sI853
F0.047
sI854
F0.047
sI855
F0.047
sI856
F0.047
sI857
F0.047
sI858
F0.047
sI859
F0.047
sI860
F0.047
sI861
F0.047
sI862
F0.047
sI863
F0.047
sI864
F0.047
sI865
F0.047
sI866
F0.047
sI867
F0.047
sI868
F0.047
sI869
F0.047
sI870
F0.047
sI871
F0.047
sI872
F0.047
sI873
F0.047
sI874
F0.047
sI875
F0.047
sI876
F0.047
sI877
F0.047
sI878
F0.047
sI879
F0.047
sI880
F0.047
sI881
F0.047
sI882
F0.047
sI883
F0.047
sI884
F0.047
sI885
F0.047
sI886
F0.047
sI887
F0.047
sI888
F0.047
sI889
F0.047
sI890
F0.047
sI891
F0.047
sI892
F0.047
sI893
F0.047
sI894
F0.047
sI895
F0.047
sI896
F0.047
sI897
F0.047
sI898
F0.047
sI899
F0.047
sI900
F0.047
sI901
F0.047
sI902
F0.047
sI903
F0.047
sI904
F0.047
sI905
F0.047
sI906
F0.047
sI907
F0.047
sI908
F0.047
sI909
F0.047
sI910
F0.047
sI911
F0.047
sI912
F0.047
sI913
F0.047
sI914
F0.047
sI915
F0.047
sI916
F0.047
sI917
F0.047
sI918
F0.047
sI919
F0.047
sI920
F0.047
sI921
F0.047
sI922
F0.047
sI923
F0.047
sI924
F0.047
sI925
F0.047
sI926
F0.047
sI927
F0.047
sI928
F0.047
sI929
F0.047
sI930
F0.047
sI931
F0.047
sI932
F0.047
sI933
F0.047
sI934
F0.047
sI935
F0.047
sI936
F0.047
sI937
F0.047
sI938
F0.047
sI939
F0.047
sI940
F0.047
sI941
F0.047
sI942
F0.047
sI943
F0.047
sI944
F0.047
sI945
F0.047
sI946
F0.047
sI947
F0.047
sI948
F0.047
sI949
F0.047
sI950
F0.047
sI951
F0.047
sI952
F0.047
sI953
F0.047
sI954
F0.047
sI955
F0.047
sI956
F0.047
sI957
F0.047
sI958
F0.047
sI959
F0.047
sI960
F0.047
sI961
F0.047
sI962
F0.047
sI963
F0.047
sI964
F0.047
sI965
F0.047
sI966
F0.047
sI967
F0.047
sI968
F0.047
sI969
F0.047
sI970
F0.047
sI971
F0.047
sI972
F0.047
sI973
F0.047
sI974
F0.047
sI975
F0.047
sI976
F0.047
sI977
F0.047
sI978
F0.047
sI979
F0.047
sI980
F0.047
sI981
F0.047
sI982
F0.047
sI983
F0.047
sI984
F0.047
sI985
F0.047
sI986
F0.047
sI987
F0.047
sI988
F0.047
sI989
F0.047
sI990
F0.047
sI991
F0.047
sI992
F0.047
sI993
F0.047
sI994
F0.047
sI995
F0.047
sI996
F0.047
sI997
F0.047
sI998
F0.047
sI999
F0.047
ss.