(dp0
F0.1
(dp1
I0
F0.293
sI1
F0.293
sI2
F0.192
sI3
F0.192
sI4
F0.192
sI5
F0.192
sI6
F0.192
sI7
F0.192
sI8
F0.192
sI9
F0.192
sI10
F0.192
sI11
F0.192
sI12
F0.192
sI13
F0.192
sI14
F0.192
sI15
F0.192
sI16
F0.192
sI17
F0.192
sI18
F0.192
sI19
F0.192
sI20
F0.192
sI21
F0.192
sI22
F0.192
sI23
F0.192
sI24
F0.192
sI25
F0.192
sI26
F0.192
sI27
F0.192
sI28
F0.192
sI29
F0.192
sI30
F0.192
sI31
F0.192
sI32
F0.192
sI33
F0.192
sI34
F0.192
sI35
F0.192
sI36
F0.192
sI37
F0.192
sI38
F0.192
sI39
F0.192
sI40
F0.192
sI41
F0.192
sI42
F0.192
sI43
F0.192
sI44
F0.192
sI45
F0.192
sI46
F0.192
sI47
F0.192
sI48
F0.192
sI49
F0.192
sI50
F0.192
sI51
F0.192
sI52
F0.192
sI53
F0.192
sI54
F0.192
sI55
F0.192
sI56
F0.192
sI57
F0.192
sI58
F0.192
sI59
F0.192
sI60
F0.192
sI61
F0.192
sI62
F0.192
sI63
F0.192
sI64
F0.192
sI65
F0.192
sI66
F0.192
sI67
F0.192
sI68
F0.192
sI69
F0.192
sI70
F0.192
sI71
F0.192
sI72
F0.192
sI73
F0.192
sI74
F0.192
sI75
F0.192
sI76
F0.192
sI77
F0.192
sI78
F0.192
sI79
F0.192
sI80
F0.192
sI81
F0.192
sI82
F0.192
sI83
F0.192
sI84
F0.192
sI85
F0.192
sI86
F0.192
sI87
F0.192
sI88
F0.192
sI89
F0.192
sI90
F0.192
sI91
F0.192
sI92
F0.192
sI93
F0.192
sI94
F0.192
sI95
F0.192
sI96
F0.192
sI97
F0.192
sI98
F0.192
sI99
F0.192
sI100
F0.192
sI101
F0.192
sI102
F0.192
sI103
F0.192
sI104
F0.192
sI105
F0.192
sI106
F0.192
sI107
F0.192
sI108
F0.192
sI109
F0.192
sI110
F0.192
sI111
F0.192
sI112
F0.192
sI113
F0.192
sI114
F0.192
sI115
F0.192
sI116
F0.192
sI117
F0.192
sI118
F0.192
sI119
F0.192
sI120
F0.192
sI121
F0.192
sI122
F0.192
sI123
F0.192
sI124
F0.192
sI125
F0.192
sI126
F0.192
sI127
F0.192
sI128
F0.192
sI129
F0.192
sI130
F0.192
sI131
F0.192
sI132
F0.192
sI133
F0.192
sI134
F0.192
sI135
F0.192
sI136
F0.192
sI137
F0.192
sI138
F0.192
sI139
F0.192
sI140
F0.192
sI141
F0.192
sI142
F0.192
sI143
F0.192
sI144
F0.192
sI145
F0.192
sI146
F0.192
sI147
F0.192
sI148
F0.192
sI149
F0.192
sI150
F0.192
sI151
F0.192
sI152
F0.192
sI153
F0.192
sI154
F0.192
sI155
F0.192
sI156
F0.192
sI157
F0.192
sI158
F0.192
sI159
F0.192
sI160
F0.192
sI161
F0.192
sI162
F0.192
sI163
F0.192
sI164
F0.192
sI165
F0.192
sI166
F0.192
sI167
F0.192
sI168
F0.192
sI169
F0.192
sI170
F0.192
sI171
F0.192
sI172
F0.192
sI173
F0.192
sI174
F0.192
sI175
F0.192
sI176
F0.192
sI177
F0.192
sI178
F0.192
sI179
F0.192
sI180
F0.192
sI181
F0.192
sI182
F0.192
sI183
F0.192
sI184
F0.192
sI185
F0.192
sI186
F0.192
sI187
F0.192
sI188
F0.192
sI189
F0.192
sI190
F0.192
sI191
F0.192
sI192
F0.192
sI193
F0.192
sI194
F0.192
sI195
F0.192
sI196
F0.192
sI197
F0.192
sI198
F0.192
sI199
F0.192
sI200
F0.192
sI201
F0.192
sI202
F0.192
sI203
F0.192
sI204
F0.192
sI205
F0.192
sI206
F0.192
sI207
F0.192
sI208
F0.192
sI209
F0.192
sI210
F0.192
sI211
F0.192
sI212
F0.192
sI213
F0.192
sI214
F0.192
sI215
F0.192
sI216
F0.192
sI217
F0.192
sI218
F0.192
sI219
F0.192
sI220
F0.192
sI221
F0.192
sI222
F0.192
sI223
F0.192
sI224
F0.192
sI225
F0.192
sI226
F0.192
sI227
F0.192
sI228
F0.192
sI229
F0.192
sI230
F0.192
sI231
F0.192
sI232
F0.192
sI233
F0.192
sI234
F0.192
sI235
F0.192
sI236
F0.192
sI237
F0.192
sI238
F0.192
sI239
F0.192
sI240
F0.192
sI241
F0.192
sI242
F0.192
sI243
F0.192
sI244
F0.192
sI245
F0.192
sI246
F0.192
sI247
F0.192
sI248
F0.192
sI249
F0.192
sI250
F0.192
sI251
F0.192
sI252
F0.192
sI253
F0.192
sI254
F0.192
sI255
F0.192
sI256
F0.192
sI257
F0.192
sI258
F0.192
sI259
F0.192
sI260
F0.192
sI261
F0.192
sI262
F0.192
sI263
F0.192
sI264
F0.192
sI265
F0.192
sI266
F0.192
sI267
F0.192
sI268
F0.192
sI269
F0.192
sI270
F0.192
sI271
F0.192
sI272
F0.192
sI273
F0.192
sI274
F0.192
sI275
F0.192
sI276
F0.192
sI277
F0.192
sI278
F0.192
sI279
F0.192
sI280
F0.192
sI281
F0.192
sI282
F0.192
sI283
F0.192
sI284
F0.192
sI285
F0.192
sI286
F0.192
sI287
F0.192
sI288
F0.192
sI289
F0.192
sI290
F0.192
sI291
F0.192
sI292
F0.192
sI293
F0.192
sI294
F0.192
sI295
F0.192
sI296
F0.192
sI297
F0.192
sI298
F0.192
sI299
F0.192
sI300
F0.192
sI301
F0.192
sI302
F0.192
sI303
F0.192
sI304
F0.192
sI305
F0.192
sI306
F0.192
sI307
F0.192
sI308
F0.192
sI309
F0.192
sI310
F0.192
sI311
F0.192
sI312
F0.192
sI313
F0.192
sI314
F0.192
sI315
F0.192
sI316
F0.192
sI317
F0.192
sI318
F0.192
sI319
F0.192
sI320
F0.192
sI321
F0.192
sI322
F0.192
sI323
F0.192
sI324
F0.192
sI325
F0.192
sI326
F0.192
sI327
F0.192
sI328
F0.192
sI329
F0.192
sI330
F0.192
sI331
F0.192
sI332
F0.192
sI333
F0.192
sI334
F0.192
sI335
F0.192
sI336
F0.192
sI337
F0.192
sI338
F0.192
sI339
F0.192
sI340
F0.192
sI341
F0.192
sI342
F0.192
sI343
F0.192
sI344
F0.192
sI345
F0.192
sI346
F0.192
sI347
F0.192
sI348
F0.192
sI349
F0.192
sI350
F0.192
sI351
F0.192
sI352
F0.192
sI353
F0.192
sI354
F0.192
sI355
F0.192
sI356
F0.192
sI357
F0.192
sI358
F0.192
sI359
F0.192
sI360
F0.192
sI361
F0.192
sI362
F0.192
sI363
F0.192
sI364
F0.192
sI365
F0.192
sI366
F0.192
sI367
F0.192
sI368
F0.192
sI369
F0.192
sI370
F0.192
sI371
F0.192
sI372
F0.192
sI373
F0.192
sI374
F0.192
sI375
F0.192
sI376
F0.192
sI377
F0.192
sI378
F0.192
sI379
F0.192
sI380
F0.192
sI381
F0.192
sI382
F0.192
sI383
F0.192
sI384
F0.192
sI385
F0.192
sI386
F0.192
sI387
F0.192
sI388
F0.192
sI389
F0.192
sI390
F0.192
sI391
F0.192
sI392
F0.192
sI393
F0.192
sI394
F0.192
sI395
F0.192
sI396
F0.192
sI397
F0.192
sI398
F0.192
sI399
F0.192
sI400
F0.192
sI401
F0.192
sI402
F0.192
sI403
F0.192
sI404
F0.192
sI405
F0.192
sI406
F0.192
sI407
F0.192
sI408
F0.192
sI409
F0.192
sI410
F0.192
sI411
F0.192
sI412
F0.192
sI413
F0.192
sI414
F0.192
sI415
F0.192
sI416
F0.192
sI417
F0.192
sI418
F0.192
sI419
F0.192
sI420
F0.192
sI421
F0.192
sI422
F0.192
sI423
F0.192
sI424
F0.192
sI425
F0.192
sI426
F0.192
sI427
F0.192
sI428
F0.192
sI429
F0.192
sI430
F0.192
sI431
F0.192
sI432
F0.192
sI433
F0.192
sI434
F0.192
sI435
F0.192
sI436
F0.192
sI437
F0.192
sI438
F0.192
sI439
F0.192
sI440
F0.192
sI441
F0.192
sI442
F0.192
sI443
F0.192
sI444
F0.192
sI445
F0.192
sI446
F0.192
sI447
F0.192
sI448
F0.192
sI449
F0.192
sI450
F0.192
sI451
F0.192
sI452
F0.192
sI453
F0.192
sI454
F0.192
sI455
F0.192
sI456
F0.192
sI457
F0.192
sI458
F0.192
sI459
F0.192
sI460
F0.192
sI461
F0.192
sI462
F0.192
sI463
F0.192
sI464
F0.192
sI465
F0.192
sI466
F0.192
sI467
F0.192
sI468
F0.192
sI469
F0.192
sI470
F0.192
sI471
F0.192
sI472
F0.192
sI473
F0.192
sI474
F0.192
sI475
F0.192
sI476
F0.192
sI477
F0.192
sI478
F0.192
sI479
F0.192
sI480
F0.192
sI481
F0.192
sI482
F0.192
sI483
F0.192
sI484
F0.192
sI485
F0.192
sI486
F0.192
sI487
F0.192
sI488
F0.192
sI489
F0.192
sI490
F0.192
sI491
F0.192
sI492
F0.192
sI493
F0.192
sI494
F0.192
sI495
F0.192
sI496
F0.192
sI497
F0.192
sI498
F0.192
sI499
F0.192
sI500
F0.192
sI501
F0.192
sI502
F0.192
sI503
F0.192
sI504
F0.192
sI505
F0.192
sI506
F0.192
sI507
F0.192
sI508
F0.192
sI509
F0.192
sI510
F0.192
sI511
F0.192
sI512
F0.192
sI513
F0.192
sI514
F0.192
sI515
F0.192
sI516
F0.192
sI517
F0.192
sI518
F0.192
sI519
F0.192
sI520
F0.192
sI521
F0.192
sI522
F0.192
sI523
F0.192
sI524
F0.192
sI525
F0.192
sI526
F0.192
sI527
F0.192
sI528
F0.192
sI529
F0.192
sI530
F0.192
sI531
F0.192
sI532
F0.192
sI533
F0.192
sI534
F0.192
sI535
F0.192
sI536
F0.192
sI537
F0.192
sI538
F0.192
sI539
F0.192
sI540
F0.192
sI541
F0.192
sI542
F0.192
sI543
F0.192
sI544
F0.192
sI545
F0.192
sI546
F0.192
sI547
F0.192
sI548
F0.192
sI549
F0.192
sI550
F0.192
sI551
F0.192
sI552
F0.192
sI553
F0.192
sI554
F0.192
sI555
F0.192
sI556
F0.192
sI557
F0.192
sI558
F0.192
sI559
F0.192
sI560
F0.192
sI561
F0.192
sI562
F0.192
sI563
F0.192
sI564
F0.192
sI565
F0.192
sI566
F0.192
sI567
F0.192
sI568
F0.192
sI569
F0.192
sI570
F0.192
sI571
F0.192
sI572
F0.192
sI573
F0.192
sI574
F0.192
sI575
F0.192
sI576
F0.192
sI577
F0.192
sI578
F0.192
sI579
F0.192
sI580
F0.192
sI581
F0.192
sI582
F0.192
sI583
F0.192
sI584
F0.192
sI585
F0.192
sI586
F0.192
sI587
F0.192
sI588
F0.192
sI589
F0.192
sI590
F0.192
sI591
F0.192
sI592
F0.192
sI593
F0.192
sI594
F0.192
sI595
F0.192
sI596
F0.192
sI597
F0.192
sI598
F0.192
sI599
F0.192
sI600
F0.192
sI601
F0.192
sI602
F0.192
sI603
F0.192
sI604
F0.192
sI605
F0.192
sI606
F0.192
sI607
F0.192
sI608
F0.192
sI609
F0.192
sI610
F0.192
sI611
F0.192
sI612
F0.192
sI613
F0.192
sI614
F0.192
sI615
F0.192
sI616
F0.192
sI617
F0.192
sI618
F0.192
sI619
F0.192
sI620
F0.192
sI621
F0.192
sI622
F0.192
sI623
F0.192
sI624
F0.192
sI625
F0.192
sI626
F0.192
sI627
F0.192
sI628
F0.192
sI629
F0.192
sI630
F0.192
sI631
F0.192
sI632
F0.192
sI633
F0.192
sI634
F0.192
sI635
F0.192
sI636
F0.192
sI637
F0.192
sI638
F0.192
sI639
F0.192
sI640
F0.192
sI641
F0.192
sI642
F0.192
sI643
F0.192
sI644
F0.192
sI645
F0.192
sI646
F0.192
sI647
F0.192
sI648
F0.192
sI649
F0.192
sI650
F0.192
sI651
F0.192
sI652
F0.192
sI653
F0.192
sI654
F0.192
sI655
F0.192
sI656
F0.192
sI657
F0.192
sI658
F0.192
sI659
F0.192
sI660
F0.192
sI661
F0.192
sI662
F0.192
sI663
F0.192
sI664
F0.192
sI665
F0.192
sI666
F0.192
sI667
F0.192
sI668
F0.192
sI669
F0.192
sI670
F0.192
sI671
F0.192
sI672
F0.192
sI673
F0.192
sI674
F0.192
sI675
F0.192
sI676
F0.192
sI677
F0.192
sI678
F0.192
sI679
F0.192
sI680
F0.192
sI681
F0.192
sI682
F0.192
sI683
F0.192
sI684
F0.192
sI685
F0.192
sI686
F0.192
sI687
F0.192
sI688
F0.192
sI689
F0.192
sI690
F0.192
sI691
F0.192
sI692
F0.192
sI693
F0.192
sI694
F0.192
sI695
F0.192
sI696
F0.192
sI697
F0.192
sI698
F0.192
sI699
F0.192
sI700
F0.192
sI701
F0.192
sI702
F0.192
sI703
F0.192
sI704
F0.192
sI705
F0.192
sI706
F0.192
sI707
F0.192
sI708
F0.192
sI709
F0.192
sI710
F0.192
sI711
F0.192
sI712
F0.192
sI713
F0.192
sI714
F0.192
sI715
F0.192
sI716
F0.192
sI717
F0.192
sI718
F0.192
sI719
F0.192
sI720
F0.192
sI721
F0.192
sI722
F0.192
sI723
F0.192
sI724
F0.192
sI725
F0.192
sI726
F0.192
sI727
F0.192
sI728
F0.192
sI729
F0.192
sI730
F0.192
sI731
F0.192
sI732
F0.192
sI733
F0.192
sI734
F0.192
sI735
F0.192
sI736
F0.192
sI737
F0.192
sI738
F0.192
sI739
F0.192
sI740
F0.192
sI741
F0.192
sI742
F0.192
sI743
F0.192
sI744
F0.192
sI745
F0.192
sI746
F0.192
sI747
F0.192
sI748
F0.192
sI749
F0.192
sI750
F0.192
sI751
F0.192
sI752
F0.192
sI753
F0.192
sI754
F0.192
sI755
F0.192
sI756
F0.192
sI757
F0.192
sI758
F0.192
sI759
F0.192
sI760
F0.192
sI761
F0.192
sI762
F0.192
sI763
F0.192
sI764
F0.192
sI765
F0.192
sI766
F0.192
sI767
F0.192
sI768
F0.192
sI769
F0.192
sI770
F0.192
sI771
F0.192
sI772
F0.192
sI773
F0.192
sI774
F0.192
sI775
F0.192
sI776
F0.192
sI777
F0.192
sI778
F0.192
sI779
F0.192
sI780
F0.192
sI781
F0.192
sI782
F0.192
sI783
F0.192
sI784
F0.192
sI785
F0.192
sI786
F0.192
sI787
F0.192
sI788
F0.192
sI789
F0.192
sI790
F0.192
sI791
F0.192
sI792
F0.192
sI793
F0.192
sI794
F0.192
sI795
F0.192
sI796
F0.192
sI797
F0.192
sI798
F0.192
sI799
F0.192
sI800
F0.192
sI801
F0.192
sI802
F0.192
sI803
F0.192
sI804
F0.192
sI805
F0.192
sI806
F0.192
sI807
F0.192
sI808
F0.192
sI809
F0.192
sI810
F0.192
sI811
F0.192
sI812
F0.192
sI813
F0.192
sI814
F0.192
sI815
F0.192
sI816
F0.192
sI817
F0.192
sI818
F0.192
sI819
F0.192
sI820
F0.192
sI821
F0.192
sI822
F0.192
sI823
F0.192
sI824
F0.192
sI825
F0.192
sI826
F0.192
sI827
F0.192
sI828
F0.192
sI829
F0.192
sI830
F0.192
sI831
F0.192
sI832
F0.192
sI833
F0.192
sI834
F0.192
sI835
F0.192
sI836
F0.192
sI837
F0.192
sI838
F0.192
sI839
F0.192
sI840
F0.192
sI841
F0.192
sI842
F0.192
sI843
F0.192
sI844
F0.192
sI845
F0.192
sI846
F0.192
sI847
F0.192
sI848
F0.192
sI849
F0.192
sI850
F0.192
sI851
F0.192
sI852
F0.192
sI853
F0.192
sI854
F0.192
sI855
F0.192
sI856
F0.192
sI857
F0.192
sI858
F0.192
sI859
F0.192
sI860
F0.192
sI861
F0.192
sI862
F0.192
sI863
F0.192
sI864
F0.192
sI865
F0.192
sI866
F0.192
sI867
F0.192
sI868
F0.192
sI869
F0.192
sI870
F0.192
sI871
F0.192
sI872
F0.192
sI873
F0.192
sI874
F0.192
sI875
F0.192
sI876
F0.192
sI877
F0.192
sI878
F0.192
sI879
F0.192
sI880
F0.192
sI881
F0.192
sI882
F0.192
sI883
F0.192
sI884
F0.192
sI885
F0.192
sI886
F0.192
sI887
F0.192
sI888
F0.192
sI889
F0.192
sI890
F0.192
sI891
F0.192
sI892
F0.192
sI893
F0.192
sI894
F0.192
sI895
F0.192
sI896
F0.192
sI897
F0.192
sI898
F0.192
sI899
F0.192
sI900
F0.192
sI901
F0.192
sI902
F0.192
sI903
F0.192
sI904
F0.192
sI905
F0.192
sI906
F0.192
sI907
F0.192
sI908
F0.192
sI909
F0.192
sI910
F0.192
sI911
F0.192
sI912
F0.192
sI913
F0.192
sI914
F0.192
sI915
F0.192
sI916
F0.192
sI917
F0.192
sI918
F0.192
sI919
F0.192
sI920
F0.192
sI921
F0.192
sI922
F0.192
sI923
F0.192
sI924
F0.192
sI925
F0.192
sI926
F0.192
sI927
F0.192
sI928
F0.192
sI929
F0.192
sI930
F0.192
sI931
F0.192
sI932
F0.192
sI933
F0.192
sI934
F0.192
sI935
F0.192
sI936
F0.192
sI937
F0.192
sI938
F0.192
sI939
F0.192
sI940
F0.192
sI941
F0.192
sI942
F0.192
sI943
F0.192
sI944
F0.192
sI945
F0.192
sI946
F0.192
sI947
F0.192
sI948
F0.192
sI949
F0.192
sI950
F0.192
sI951
F0.192
sI952
F0.192
sI953
F0.192
sI954
F0.192
sI955
F0.192
sI956
F0.192
sI957
F0.192
sI958
F0.192
sI959
F0.192
sI960
F0.192
sI961
F0.192
sI962
F0.192
sI963
F0.192
sI964
F0.192
sI965
F0.192
sI966
F0.192
sI967
F0.192
sI968
F0.192
sI969
F0.192
sI970
F0.192
sI971
F0.192
sI972
F0.192
sI973
F0.192
sI974
F0.192
sI975
F0.192
sI976
F0.192
sI977
F0.192
sI978
F0.192
sI979
F0.192
sI980
F0.192
sI981
F0.192
sI982
F0.192
sI983
F0.192
sI984
F0.192
sI985
F0.192
sI986
F0.192
sI987
F0.192
sI988
F0.192
sI989
F0.192
sI990
F0.192
sI991
F0.192
sI992
F0.192
sI993
F0.192
sI994
F0.192
sI995
F0.192
sI996
F0.192
sI997
F0.192
sI998
F0.192
sI999
F0.192
ssF0.2
(dp2
I0
F0.407
sI1
F0.407
sI2
F0.407
sI3
F0.407
sI4
F0.407
sI5
F0.407
sI6
F0.407
sI7
F0.407
sI8
F0.407
sI9
F0.407
sI10
F0.407
sI11
F0.407
sI12
F0.188
sI13
F0.188
sI14
F0.188
sI15
F0.188
sI16
F0.188
sI17
F0.188
sI18
F0.188
sI19
F0.188
sI20
F0.188
sI21
F0.188
sI22
F0.188
sI23
F0.188
sI24
F0.188
sI25
F0.188
sI26
F0.188
sI27
F0.188
sI28
F0.188
sI29
F0.188
sI30
F0.188
sI31
F0.188
sI32
F0.188
sI33
F0.188
sI34
F0.188
sI35
F0.188
sI36
F0.188
sI37
F0.188
sI38
F0.188
sI39
F0.188
sI40
F0.188
sI41
F0.188
sI42
F0.188
sI43
F0.188
sI44
F0.188
sI45
F0.188
sI46
F0.188
sI47
F0.188
sI48
F0.188
sI49
F0.188
sI50
F0.188
sI51
F0.188
sI52
F0.188
sI53
F0.188
sI54
F0.188
sI55
F0.188
sI56
F0.188
sI57
F0.188
sI58
F0.188
sI59
F0.188
sI60
F0.188
sI61
F0.188
sI62
F0.188
sI63
F0.188
sI64
F0.188
sI65
F0.188
sI66
F0.188
sI67
F0.188
sI68
F0.188
sI69
F0.188
sI70
F0.188
sI71
F0.188
sI72
F0.188
sI73
F0.188
sI74
F0.188
sI75
F0.188
sI76
F0.188
sI77
F0.188
sI78
F0.188
sI79
F0.188
sI80
F0.188
sI81
F0.188
sI82
F0.188
sI83
F0.188
sI84
F0.188
sI85
F0.188
sI86
F0.188
sI87
F0.188
sI88
F0.188
sI89
F0.188
sI90
F0.188
sI91
F0.188
sI92
F0.188
sI93
F0.188
sI94
F0.188
sI95
F0.188
sI96
F0.188
sI97
F0.188
sI98
F0.188
sI99
F0.188
sI100
F0.188
sI101
F0.188
sI102
F0.188
sI103
F0.188
sI104
F0.188
sI105
F0.188
sI106
F0.188
sI107
F0.188
sI108
F0.188
sI109
F0.188
sI110
F0.188
sI111
F0.188
sI112
F0.188
sI113
F0.188
sI114
F0.188
sI115
F0.188
sI116
F0.188
sI117
F0.188
sI118
F0.188
sI119
F0.188
sI120
F0.188
sI121
F0.188
sI122
F0.188
sI123
F0.188
sI124
F0.188
sI125
F0.188
sI126
F0.188
sI127
F0.188
sI128
F0.188
sI129
F0.188
sI130
F0.188
sI131
F0.188
sI132
F0.188
sI133
F0.188
sI134
F0.188
sI135
F0.188
sI136
F0.188
sI137
F0.188
sI138
F0.188
sI139
F0.188
sI140
F0.188
sI141
F0.188
sI142
F0.188
sI143
F0.188
sI144
F0.188
sI145
F0.188
sI146
F0.188
sI147
F0.188
sI148
F0.188
sI149
F0.188
sI150
F0.188
sI151
F0.188
sI152
F0.188
sI153
F0.188
sI154
F0.188
sI155
F0.188
sI156
F0.188
sI157
F0.188
sI158
F0.188
sI159
F0.188
sI160
F0.188
sI161
F0.188
sI162
F0.188
sI163
F0.188
sI164
F0.188
sI165
F0.188
sI166
F0.188
sI167
F0.188
sI168
F0.188
sI169
F0.188
sI170
F0.188
sI171
F0.188
sI172
F0.188
sI173
F0.188
sI174
F0.188
sI175
F0.188
sI176
F0.188
sI177
F0.188
sI178
F0.188
sI179
F0.188
sI180
F0.188
sI181
F0.188
sI182
F0.188
sI183
F0.188
sI184
F0.188
sI185
F0.188
sI186
F0.188
sI187
F0.188
sI188
F0.188
sI189
F0.188
sI190
F0.188
sI191
F0.188
sI192
F0.188
sI193
F0.188
sI194
F0.188
sI195
F0.188
sI196
F0.188
sI197
F0.188
sI198
F0.188
sI199
F0.188
sI200
F0.188
sI201
F0.188
sI202
F0.188
sI203
F0.188
sI204
F0.188
sI205
F0.188
sI206
F0.188
sI207
F0.188
sI208
F0.188
sI209
F0.188
sI210
F0.188
sI211
F0.188
sI212
F0.188
sI213
F0.188
sI214
F0.188
sI215
F0.188
sI216
F0.188
sI217
F0.188
sI218
F0.188
sI219
F0.188
sI220
F0.188
sI221
F0.188
sI222
F0.188
sI223
F0.188
sI224
F0.188
sI225
F0.188
sI226
F0.188
sI227
F0.188
sI228
F0.188
sI229
F0.188
sI230
F0.188
sI231
F0.188
sI232
F0.188
sI233
F0.188
sI234
F0.188
sI235
F0.188
sI236
F0.188
sI237
F0.188
sI238
F0.188
sI239
F0.188
sI240
F0.188
sI241
F0.188
sI242
F0.188
sI243
F0.188
sI244
F0.188
sI245
F0.188
sI246
F0.188
sI247
F0.188
sI248
F0.188
sI249
F0.188
sI250
F0.188
sI251
F0.188
sI252
F0.188
sI253
F0.188
sI254
F0.188
sI255
F0.188
sI256
F0.188
sI257
F0.188
sI258
F0.188
sI259
F0.188
sI260
F0.188
sI261
F0.188
sI262
F0.188
sI263
F0.188
sI264
F0.188
sI265
F0.188
sI266
F0.188
sI267
F0.188
sI268
F0.188
sI269
F0.188
sI270
F0.188
sI271
F0.188
sI272
F0.188
sI273
F0.188
sI274
F0.188
sI275
F0.188
sI276
F0.188
sI277
F0.188
sI278
F0.188
sI279
F0.188
sI280
F0.188
sI281
F0.188
sI282
F0.188
sI283
F0.188
sI284
F0.188
sI285
F0.188
sI286
F0.188
sI287
F0.188
sI288
F0.188
sI289
F0.188
sI290
F0.188
sI291
F0.188
sI292
F0.188
sI293
F0.188
sI294
F0.188
sI295
F0.188
sI296
F0.188
sI297
F0.188
sI298
F0.188
sI299
F0.188
sI300
F0.188
sI301
F0.188
sI302
F0.188
sI303
F0.188
sI304
F0.188
sI305
F0.188
sI306
F0.188
sI307
F0.188
sI308
F0.188
sI309
F0.188
sI310
F0.188
sI311
F0.188
sI312
F0.188
sI313
F0.188
sI314
F0.188
sI315
F0.188
sI316
F0.188
sI317
F0.188
sI318
F0.188
sI319
F0.188
sI320
F0.188
sI321
F0.188
sI322
F0.188
sI323
F0.188
sI324
F0.188
sI325
F0.188
sI326
F0.188
sI327
F0.188
sI328
F0.188
sI329
F0.188
sI330
F0.188
sI331
F0.188
sI332
F0.188
sI333
F0.188
sI334
F0.188
sI335
F0.188
sI336
F0.188
sI337
F0.188
sI338
F0.188
sI339
F0.188
sI340
F0.188
sI341
F0.188
sI342
F0.188
sI343
F0.188
sI344
F0.188
sI345
F0.188
sI346
F0.188
sI347
F0.188
sI348
F0.188
sI349
F0.188
sI350
F0.188
sI351
F0.188
sI352
F0.188
sI353
F0.188
sI354
F0.188
sI355
F0.188
sI356
F0.188
sI357
F0.188
sI358
F0.188
sI359
F0.188
sI360
F0.188
sI361
F0.188
sI362
F0.188
sI363
F0.188
sI364
F0.188
sI365
F0.188
sI366
F0.188
sI367
F0.188
sI368
F0.188
sI369
F0.188
sI370
F0.188
sI371
F0.188
sI372
F0.188
sI373
F0.188
sI374
F0.188
sI375
F0.188
sI376
F0.188
sI377
F0.188
sI378
F0.188
sI379
F0.188
sI380
F0.188
sI381
F0.188
sI382
F0.188
sI383
F0.188
sI384
F0.188
sI385
F0.188
sI386
F0.188
sI387
F0.188
sI388
F0.188
sI389
F0.188
sI390
F0.188
sI391
F0.188
sI392
F0.188
sI393
F0.188
sI394
F0.188
sI395
F0.188
sI396
F0.188
sI397
F0.188
sI398
F0.188
sI399
F0.188
sI400
F0.188
sI401
F0.188
sI402
F0.188
sI403
F0.188
sI404
F0.188
sI405
F0.188
sI406
F0.188
sI407
F0.188
sI408
F0.188
sI409
F0.188
sI410
F0.188
sI411
F0.188
sI412
F0.188
sI413
F0.188
sI414
F0.188
sI415
F0.188
sI416
F0.188
sI417
F0.188
sI418
F0.188
sI419
F0.188
sI420
F0.188
sI421
F0.188
sI422
F0.188
sI423
F0.188
sI424
F0.188
sI425
F0.188
sI426
F0.188
sI427
F0.188
sI428
F0.188
sI429
F0.188
sI430
F0.188
sI431
F0.188
sI432
F0.188
sI433
F0.188
sI434
F0.188
sI435
F0.188
sI436
F0.188
sI437
F0.188
sI438
F0.188
sI439
F0.188
sI440
F0.188
sI441
F0.188
sI442
F0.188
sI443
F0.188
sI444
F0.188
sI445
F0.188
sI446
F0.188
sI447
F0.188
sI448
F0.188
sI449
F0.188
sI450
F0.188
sI451
F0.188
sI452
F0.188
sI453
F0.188
sI454
F0.188
sI455
F0.188
sI456
F0.188
sI457
F0.188
sI458
F0.188
sI459
F0.188
sI460
F0.188
sI461
F0.188
sI462
F0.188
sI463
F0.188
sI464
F0.188
sI465
F0.188
sI466
F0.188
sI467
F0.188
sI468
F0.188
sI469
F0.188
sI470
F0.188
sI471
F0.188
sI472
F0.188
sI473
F0.188
sI474
F0.188
sI475
F0.188
sI476
F0.188
sI477
F0.188
sI478
F0.188
sI479
F0.188
sI480
F0.188
sI481
F0.188
sI482
F0.188
sI483
F0.188
sI484
F0.188
sI485
F0.188
sI486
F0.188
sI487
F0.188
sI488
F0.188
sI489
F0.188
sI490
F0.188
sI491
F0.188
sI492
F0.188
sI493
F0.188
sI494
F0.188
sI495
F0.188
sI496
F0.188
sI497
F0.188
sI498
F0.188
sI499
F0.188
sI500
F0.188
sI501
F0.188
sI502
F0.188
sI503
F0.188
sI504
F0.188
sI505
F0.188
sI506
F0.188
sI507
F0.188
sI508
F0.188
sI509
F0.188
sI510
F0.188
sI511
F0.188
sI512
F0.188
sI513
F0.188
sI514
F0.188
sI515
F0.188
sI516
F0.188
sI517
F0.188
sI518
F0.188
sI519
F0.188
sI520
F0.188
sI521
F0.188
sI522
F0.188
sI523
F0.188
sI524
F0.188
sI525
F0.188
sI526
F0.188
sI527
F0.188
sI528
F0.188
sI529
F0.188
sI530
F0.188
sI531
F0.188
sI532
F0.188
sI533
F0.188
sI534
F0.188
sI535
F0.188
sI536
F0.188
sI537
F0.188
sI538
F0.188
sI539
F0.188
sI540
F0.188
sI541
F0.188
sI542
F0.188
sI543
F0.188
sI544
F0.188
sI545
F0.188
sI546
F0.188
sI547
F0.188
sI548
F0.188
sI549
F0.188
sI550
F0.188
sI551
F0.188
sI552
F0.188
sI553
F0.188
sI554
F0.188
sI555
F0.188
sI556
F0.188
sI557
F0.188
sI558
F0.188
sI559
F0.188
sI560
F0.188
sI561
F0.188
sI562
F0.188
sI563
F0.188
sI564
F0.188
sI565
F0.188
sI566
F0.188
sI567
F0.188
sI568
F0.188
sI569
F0.188
sI570
F0.188
sI571
F0.188
sI572
F0.188
sI573
F0.188
sI574
F0.188
sI575
F0.188
sI576
F0.188
sI577
F0.188
sI578
F0.188
sI579
F0.188
sI580
F0.188
sI581
F0.188
sI582
F0.188
sI583
F0.188
sI584
F0.188
sI585
F0.188
sI586
F0.188
sI587
F0.188
sI588
F0.188
sI589
F0.188
sI590
F0.188
sI591
F0.188
sI592
F0.188
sI593
F0.188
sI594
F0.188
sI595
F0.188
sI596
F0.188
sI597
F0.188
sI598
F0.188
sI599
F0.188
sI600
F0.188
sI601
F0.188
sI602
F0.188
sI603
F0.188
sI604
F0.188
sI605
F0.188
sI606
F0.188
sI607
F0.188
sI608
F0.188
sI609
F0.188
sI610
F0.188
sI611
F0.188
sI612
F0.188
sI613
F0.188
sI614
F0.188
sI615
F0.188
sI616
F0.188
sI617
F0.188
sI618
F0.188
sI619
F0.188
sI620
F0.188
sI621
F0.188
sI622
F0.188
sI623
F0.188
sI624
F0.188
sI625
F0.188
sI626
F0.188
sI627
F0.188
sI628
F0.188
sI629
F0.188
sI630
F0.188
sI631
F0.188
sI632
F0.188
sI633
F0.188
sI634
F0.188
sI635
F0.188
sI636
F0.188
sI637
F0.188
sI638
F0.188
sI639
F0.188
sI640
F0.188
sI641
F0.188
sI642
F0.188
sI643
F0.188
sI644
F0.188
sI645
F0.188
sI646
F0.188
sI647
F0.188
sI648
F0.188
sI649
F0.188
sI650
F0.188
sI651
F0.188
sI652
F0.188
sI653
F0.188
sI654
F0.188
sI655
F0.188
sI656
F0.188
sI657
F0.188
sI658
F0.188
sI659
F0.188
sI660
F0.188
sI661
F0.188
sI662
F0.188
sI663
F0.188
sI664
F0.188
sI665
F0.188
sI666
F0.188
sI667
F0.188
sI668
F0.188
sI669
F0.188
sI670
F0.188
sI671
F0.188
sI672
F0.188
sI673
F0.188
sI674
F0.188
sI675
F0.188
sI676
F0.188
sI677
F0.188
sI678
F0.188
sI679
F0.188
sI680
F0.188
sI681
F0.188
sI682
F0.188
sI683
F0.188
sI684
F0.188
sI685
F0.188
sI686
F0.188
sI687
F0.188
sI688
F0.188
sI689
F0.188
sI690
F0.188
sI691
F0.188
sI692
F0.188
sI693
F0.188
sI694
F0.188
sI695
F0.188
sI696
F0.188
sI697
F0.188
sI698
F0.188
sI699
F0.188
sI700
F0.188
sI701
F0.188
sI702
F0.188
sI703
F0.188
sI704
F0.188
sI705
F0.188
sI706
F0.188
sI707
F0.188
sI708
F0.188
sI709
F0.188
sI710
F0.188
sI711
F0.188
sI712
F0.188
sI713
F0.188
sI714
F0.188
sI715
F0.188
sI716
F0.188
sI717
F0.188
sI718
F0.188
sI719
F0.188
sI720
F0.188
sI721
F0.188
sI722
F0.188
sI723
F0.188
sI724
F0.188
sI725
F0.188
sI726
F0.188
sI727
F0.188
sI728
F0.188
sI729
F0.188
sI730
F0.188
sI731
F0.188
sI732
F0.188
sI733
F0.188
sI734
F0.188
sI735
F0.188
sI736
F0.188
sI737
F0.188
sI738
F0.188
sI739
F0.188
sI740
F0.188
sI741
F0.188
sI742
F0.188
sI743
F0.188
sI744
F0.188
sI745
F0.188
sI746
F0.188
sI747
F0.188
sI748
F0.188
sI749
F0.188
sI750
F0.188
sI751
F0.188
sI752
F0.188
sI753
F0.188
sI754
F0.188
sI755
F0.188
sI756
F0.188
sI757
F0.188
sI758
F0.188
sI759
F0.188
sI760
F0.188
sI761
F0.188
sI762
F0.188
sI763
F0.188
sI764
F0.188
sI765
F0.188
sI766
F0.188
sI767
F0.188
sI768
F0.188
sI769
F0.188
sI770
F0.188
sI771
F0.188
sI772
F0.188
sI773
F0.188
sI774
F0.188
sI775
F0.188
sI776
F0.188
sI777
F0.188
sI778
F0.188
sI779
F0.188
sI780
F0.188
sI781
F0.188
sI782
F0.188
sI783
F0.188
sI784
F0.188
sI785
F0.188
sI786
F0.188
sI787
F0.188
sI788
F0.188
sI789
F0.188
sI790
F0.188
sI791
F0.188
sI792
F0.188
sI793
F0.188
sI794
F0.188
sI795
F0.188
sI796
F0.188
sI797
F0.188
sI798
F0.188
sI799
F0.188
sI800
F0.188
sI801
F0.188
sI802
F0.188
sI803
F0.188
sI804
F0.188
sI805
F0.188
sI806
F0.188
sI807
F0.188
sI808
F0.188
sI809
F0.188
sI810
F0.188
sI811
F0.188
sI812
F0.188
sI813
F0.188
sI814
F0.188
sI815
F0.188
sI816
F0.188
sI817
F0.188
sI818
F0.188
sI819
F0.188
sI820
F0.188
sI821
F0.188
sI822
F0.188
sI823
F0.188
sI824
F0.188
sI825
F0.188
sI826
F0.188
sI827
F0.188
sI828
F0.188
sI829
F0.188
sI830
F0.188
sI831
F0.188
sI832
F0.188
sI833
F0.188
sI834
F0.188
sI835
F0.188
sI836
F0.188
sI837
F0.188
sI838
F0.188
sI839
F0.188
sI840
F0.188
sI841
F0.188
sI842
F0.188
sI843
F0.188
sI844
F0.188
sI845
F0.188
sI846
F0.188
sI847
F0.188
sI848
F0.188
sI849
F0.188
sI850
F0.188
sI851
F0.188
sI852
F0.188
sI853
F0.188
sI854
F0.188
sI855
F0.188
sI856
F0.188
sI857
F0.188
sI858
F0.188
sI859
F0.188
sI860
F0.188
sI861
F0.188
sI862
F0.188
sI863
F0.188
sI864
F0.188
sI865
F0.188
sI866
F0.188
sI867
F0.188
sI868
F0.188
sI869
F0.188
sI870
F0.188
sI871
F0.188
sI872
F0.188
sI873
F0.188
sI874
F0.188
sI875
F0.188
sI876
F0.188
sI877
F0.188
sI878
F0.188
sI879
F0.188
sI880
F0.188
sI881
F0.188
sI882
F0.188
sI883
F0.188
sI884
F0.188
sI885
F0.188
sI886
F0.188
sI887
F0.188
sI888
F0.188
sI889
F0.188
sI890
F0.188
sI891
F0.188
sI892
F0.188
sI893
F0.188
sI894
F0.188
sI895
F0.188
sI896
F0.188
sI897
F0.188
sI898
F0.188
sI899
F0.188
sI900
F0.188
sI901
F0.188
sI902
F0.188
sI903
F0.188
sI904
F0.188
sI905
F0.188
sI906
F0.188
sI907
F0.188
sI908
F0.188
sI909
F0.188
sI910
F0.188
sI911
F0.188
sI912
F0.188
sI913
F0.188
sI914
F0.188
sI915
F0.188
sI916
F0.188
sI917
F0.188
sI918
F0.188
sI919
F0.188
sI920
F0.188
sI921
F0.188
sI922
F0.188
sI923
F0.188
sI924
F0.188
sI925
F0.188
sI926
F0.188
sI927
F0.188
sI928
F0.188
sI929
F0.188
sI930
F0.188
sI931
F0.188
sI932
F0.188
sI933
F0.188
sI934
F0.188
sI935
F0.188
sI936
F0.188
sI937
F0.188
sI938
F0.188
sI939
F0.188
sI940
F0.188
sI941
F0.188
sI942
F0.188
sI943
F0.188
sI944
F0.188
sI945
F0.188
sI946
F0.188
sI947
F0.188
sI948
F0.188
sI949
F0.188
sI950
F0.188
sI951
F0.188
sI952
F0.188
sI953
F0.188
sI954
F0.188
sI955
F0.188
sI956
F0.188
sI957
F0.188
sI958
F0.188
sI959
F0.188
sI960
F0.188
sI961
F0.188
sI962
F0.188
sI963
F0.188
sI964
F0.188
sI965
F0.188
sI966
F0.188
sI967
F0.188
sI968
F0.188
sI969
F0.188
sI970
F0.188
sI971
F0.188
sI972
F0.188
sI973
F0.188
sI974
F0.188
sI975
F0.188
sI976
F0.188
sI977
F0.188
sI978
F0.188
sI979
F0.188
sI980
F0.188
sI981
F0.188
sI982
F0.188
sI983
F0.188
sI984
F0.188
sI985
F0.188
sI986
F0.188
sI987
F0.188
sI988
F0.188
sI989
F0.188
sI990
F0.188
sI991
F0.188
sI992
F0.188
sI993
F0.188
sI994
F0.188
sI995
F0.188
sI996
F0.188
sI997
F0.188
sI998
F0.188
sI999
F0.188
ssF0.05
(dp3
I0
F0.372
sI1
F0.372
sI2
F0.32
sI3
F0.32
sI4
F0.32
sI5
F0.32
sI6
F0.32
sI7
F0.32
sI8
F0.32
sI9
F0.32
sI10
F0.32
sI11
F0.32
sI12
F0.32
sI13
F0.32
sI14
F0.25
sI15
F0.25
sI16
F0.25
sI17
F0.25
sI18
F0.25
sI19
F0.25
sI20
F0.25
sI21
F0.25
sI22
F0.25
sI23
F0.188
sI24
F0.188
sI25
F0.188
sI26
F0.188
sI27
F0.188
sI28
F0.188
sI29
F0.188
sI30
F0.188
sI31
F0.188
sI32
F0.188
sI33
F0.188
sI34
F0.188
sI35
F0.188
sI36
F0.188
sI37
F0.188
sI38
F0.188
sI39
F0.188
sI40
F0.188
sI41
F0.188
sI42
F0.188
sI43
F0.188
sI44
F0.188
sI45
F0.188
sI46
F0.188
sI47
F0.188
sI48
F0.188
sI49
F0.188
sI50
F0.188
sI51
F0.188
sI52
F0.188
sI53
F0.188
sI54
F0.188
sI55
F0.188
sI56
F0.188
sI57
F0.188
sI58
F0.188
sI59
F0.188
sI60
F0.188
sI61
F0.188
sI62
F0.188
sI63
F0.188
sI64
F0.188
sI65
F0.188
sI66
F0.188
sI67
F0.188
sI68
F0.188
sI69
F0.188
sI70
F0.188
sI71
F0.188
sI72
F0.188
sI73
F0.188
sI74
F0.188
sI75
F0.188
sI76
F0.188
sI77
F0.188
sI78
F0.188
sI79
F0.188
sI80
F0.188
sI81
F0.188
sI82
F0.188
sI83
F0.188
sI84
F0.188
sI85
F0.188
sI86
F0.188
sI87
F0.188
sI88
F0.188
sI89
F0.188
sI90
F0.188
sI91
F0.188
sI92
F0.188
sI93
F0.188
sI94
F0.188
sI95
F0.188
sI96
F0.188
sI97
F0.188
sI98
F0.188
sI99
F0.188
sI100
F0.188
sI101
F0.188
sI102
F0.188
sI103
F0.188
sI104
F0.188
sI105
F0.188
sI106
F0.188
sI107
F0.188
sI108
F0.188
sI109
F0.188
sI110
F0.188
sI111
F0.188
sI112
F0.188
sI113
F0.188
sI114
F0.188
sI115
F0.188
sI116
F0.188
sI117
F0.188
sI118
F0.188
sI119
F0.188
sI120
F0.188
sI121
F0.188
sI122
F0.188
sI123
F0.188
sI124
F0.188
sI125
F0.188
sI126
F0.188
sI127
F0.188
sI128
F0.188
sI129
F0.188
sI130
F0.188
sI131
F0.188
sI132
F0.188
sI133
F0.188
sI134
F0.188
sI135
F0.188
sI136
F0.188
sI137
F0.188
sI138
F0.188
sI139
F0.188
sI140
F0.188
sI141
F0.188
sI142
F0.188
sI143
F0.188
sI144
F0.188
sI145
F0.188
sI146
F0.188
sI147
F0.188
sI148
F0.188
sI149
F0.188
sI150
F0.188
sI151
F0.188
sI152
F0.188
sI153
F0.188
sI154
F0.188
sI155
F0.188
sI156
F0.188
sI157
F0.188
sI158
F0.188
sI159
F0.188
sI160
F0.188
sI161
F0.188
sI162
F0.188
sI163
F0.188
sI164
F0.188
sI165
F0.188
sI166
F0.188
sI167
F0.188
sI168
F0.188
sI169
F0.188
sI170
F0.188
sI171
F0.188
sI172
F0.188
sI173
F0.188
sI174
F0.188
sI175
F0.188
sI176
F0.188
sI177
F0.188
sI178
F0.188
sI179
F0.188
sI180
F0.188
sI181
F0.188
sI182
F0.188
sI183
F0.188
sI184
F0.188
sI185
F0.188
sI186
F0.188
sI187
F0.188
sI188
F0.188
sI189
F0.188
sI190
F0.188
sI191
F0.188
sI192
F0.188
sI193
F0.188
sI194
F0.188
sI195
F0.188
sI196
F0.188
sI197
F0.188
sI198
F0.188
sI199
F0.188
sI200
F0.188
sI201
F0.188
sI202
F0.188
sI203
F0.188
sI204
F0.188
sI205
F0.188
sI206
F0.188
sI207
F0.188
sI208
F0.188
sI209
F0.188
sI210
F0.188
sI211
F0.188
sI212
F0.188
sI213
F0.188
sI214
F0.188
sI215
F0.188
sI216
F0.188
sI217
F0.188
sI218
F0.188
sI219
F0.188
sI220
F0.188
sI221
F0.188
sI222
F0.188
sI223
F0.188
sI224
F0.188
sI225
F0.188
sI226
F0.188
sI227
F0.188
sI228
F0.188
sI229
F0.188
sI230
F0.188
sI231
F0.188
sI232
F0.188
sI233
F0.188
sI234
F0.188
sI235
F0.188
sI236
F0.188
sI237
F0.188
sI238
F0.188
sI239
F0.188
sI240
F0.188
sI241
F0.188
sI242
F0.188
sI243
F0.188
sI244
F0.188
sI245
F0.188
sI246
F0.188
sI247
F0.188
sI248
F0.188
sI249
F0.188
sI250
F0.188
sI251
F0.188
sI252
F0.188
sI253
F0.188
sI254
F0.188
sI255
F0.188
sI256
F0.188
sI257
F0.188
sI258
F0.188
sI259
F0.188
sI260
F0.188
sI261
F0.188
sI262
F0.188
sI263
F0.188
sI264
F0.188
sI265
F0.188
sI266
F0.188
sI267
F0.188
sI268
F0.188
sI269
F0.188
sI270
F0.188
sI271
F0.188
sI272
F0.188
sI273
F0.188
sI274
F0.188
sI275
F0.188
sI276
F0.188
sI277
F0.188
sI278
F0.188
sI279
F0.188
sI280
F0.188
sI281
F0.188
sI282
F0.188
sI283
F0.188
sI284
F0.188
sI285
F0.188
sI286
F0.188
sI287
F0.188
sI288
F0.188
sI289
F0.188
sI290
F0.088
sI291
F0.088
sI292
F0.088
sI293
F0.088
sI294
F0.088
sI295
F0.088
sI296
F0.088
sI297
F0.088
sI298
F0.088
sI299
F0.088
sI300
F0.088
sI301
F0.088
sI302
F0.088
sI303
F0.088
sI304
F0.088
sI305
F0.088
sI306
F0.088
sI307
F0.088
sI308
F0.088
sI309
F0.088
sI310
F0.088
sI311
F0.088
sI312
F0.088
sI313
F0.088
sI314
F0.088
sI315
F0.088
sI316
F0.088
sI317
F0.088
sI318
F0.088
sI319
F0.088
sI320
F0.088
sI321
F0.088
sI322
F0.088
sI323
F0.088
sI324
F0.088
sI325
F0.088
sI326
F0.088
sI327
F0.088
sI328
F0.088
sI329
F0.088
sI330
F0.088
sI331
F0.088
sI332
F0.088
sI333
F0.088
sI334
F0.088
sI335
F0.088
sI336
F0.088
sI337
F0.088
sI338
F0.088
sI339
F0.088
sI340
F0.088
sI341
F0.088
sI342
F0.088
sI343
F0.088
sI344
F0.088
sI345
F0.088
sI346
F0.088
sI347
F0.088
sI348
F0.088
sI349
F0.088
sI350
F0.088
sI351
F0.088
sI352
F0.088
sI353
F0.088
sI354
F0.088
sI355
F0.088
sI356
F0.088
sI357
F0.088
sI358
F0.088
sI359
F0.088
sI360
F0.088
sI361
F0.088
sI362
F0.088
sI363
F0.088
sI364
F0.088
sI365
F0.088
sI366
F0.088
sI367
F0.088
sI368
F0.088
sI369
F0.088
sI370
F0.088
sI371
F0.088
sI372
F0.088
sI373
F0.088
sI374
F0.088
sI375
F0.088
sI376
F0.088
sI377
F0.088
sI378
F0.088
sI379
F0.088
sI380
F0.088
sI381
F0.088
sI382
F0.088
sI383
F0.088
sI384
F0.088
sI385
F0.088
sI386
F0.088
sI387
F0.088
sI388
F0.088
sI389
F0.088
sI390
F0.088
sI391
F0.088
sI392
F0.088
sI393
F0.088
sI394
F0.088
sI395
F0.088
sI396
F0.088
sI397
F0.088
sI398
F0.088
sI399
F0.088
sI400
F0.088
sI401
F0.088
sI402
F0.088
sI403
F0.088
sI404
F0.088
sI405
F0.088
sI406
F0.088
sI407
F0.088
sI408
F0.088
sI409
F0.088
sI410
F0.088
sI411
F0.088
sI412
F0.088
sI413
F0.088
sI414
F0.088
sI415
F0.088
sI416
F0.088
sI417
F0.088
sI418
F0.088
sI419
F0.088
sI420
F0.088
sI421
F0.088
sI422
F0.088
sI423
F0.088
sI424
F0.088
sI425
F0.088
sI426
F0.088
sI427
F0.088
sI428
F0.088
sI429
F0.088
sI430
F0.088
sI431
F0.088
sI432
F0.088
sI433
F0.088
sI434
F0.088
sI435
F0.088
sI436
F0.088
sI437
F0.088
sI438
F0.088
sI439
F0.088
sI440
F0.088
sI441
F0.088
sI442
F0.088
sI443
F0.088
sI444
F0.088
sI445
F0.088
sI446
F0.088
sI447
F0.088
sI448
F0.088
sI449
F0.088
sI450
F0.088
sI451
F0.088
sI452
F0.088
sI453
F0.088
sI454
F0.088
sI455
F0.088
sI456
F0.088
sI457
F0.088
sI458
F0.088
sI459
F0.088
sI460
F0.088
sI461
F0.088
sI462
F0.088
sI463
F0.088
sI464
F0.088
sI465
F0.088
sI466
F0.088
sI467
F0.088
sI468
F0.088
sI469
F0.088
sI470
F0.088
sI471
F0.088
sI472
F0.088
sI473
F0.088
sI474
F0.088
sI475
F0.088
sI476
F0.088
sI477
F0.088
sI478
F0.088
sI479
F0.088
sI480
F0.088
sI481
F0.088
sI482
F0.088
sI483
F0.088
sI484
F0.088
sI485
F0.088
sI486
F0.088
sI487
F0.088
sI488
F0.088
sI489
F0.088
sI490
F0.088
sI491
F0.088
sI492
F0.088
sI493
F0.088
sI494
F0.088
sI495
F0.088
sI496
F0.088
sI497
F0.088
sI498
F0.088
sI499
F0.088
sI500
F0.088
sI501
F0.088
sI502
F0.088
sI503
F0.088
sI504
F0.088
sI505
F0.088
sI506
F0.088
sI507
F0.088
sI508
F0.088
sI509
F0.088
sI510
F0.088
sI511
F0.088
sI512
F0.088
sI513
F0.088
sI514
F0.088
sI515
F0.088
sI516
F0.088
sI517
F0.088
sI518
F0.088
sI519
F0.088
sI520
F0.088
sI521
F0.088
sI522
F0.088
sI523
F0.088
sI524
F0.088
sI525
F0.088
sI526
F0.088
sI527
F0.088
sI528
F0.088
sI529
F0.088
sI530
F0.088
sI531
F0.088
sI532
F0.088
sI533
F0.088
sI534
F0.088
sI535
F0.088
sI536
F0.088
sI537
F0.088
sI538
F0.088
sI539
F0.088
sI540
F0.088
sI541
F0.088
sI542
F0.088
sI543
F0.088
sI544
F0.088
sI545
F0.088
sI546
F0.088
sI547
F0.088
sI548
F0.088
sI549
F0.088
sI550
F0.088
sI551
F0.088
sI552
F0.088
sI553
F0.088
sI554
F0.088
sI555
F0.088
sI556
F0.088
sI557
F0.088
sI558
F0.088
sI559
F0.088
sI560
F0.088
sI561
F0.088
sI562
F0.088
sI563
F0.088
sI564
F0.088
sI565
F0.088
sI566
F0.088
sI567
F0.088
sI568
F0.088
sI569
F0.088
sI570
F0.088
sI571
F0.088
sI572
F0.088
sI573
F0.088
sI574
F0.088
sI575
F0.088
sI576
F0.088
sI577
F0.088
sI578
F0.088
sI579
F0.088
sI580
F0.088
sI581
F0.088
sI582
F0.088
sI583
F0.088
sI584
F0.088
sI585
F0.088
sI586
F0.088
sI587
F0.088
sI588
F0.088
sI589
F0.088
sI590
F0.088
sI591
F0.088
sI592
F0.088
sI593
F0.088
sI594
F0.088
sI595
F0.088
sI596
F0.088
sI597
F0.088
sI598
F0.088
sI599
F0.088
sI600
F0.088
sI601
F0.088
sI602
F0.088
sI603
F0.088
sI604
F0.088
sI605
F0.088
sI606
F0.088
sI607
F0.088
sI608
F0.088
sI609
F0.088
sI610
F0.088
sI611
F0.088
sI612
F0.088
sI613
F0.088
sI614
F0.088
sI615
F0.088
sI616
F0.088
sI617
F0.088
sI618
F0.088
sI619
F0.088
sI620
F0.088
sI621
F0.088
sI622
F0.088
sI623
F0.088
sI624
F0.088
sI625
F0.088
sI626
F0.088
sI627
F0.088
sI628
F0.088
sI629
F0.088
sI630
F0.088
sI631
F0.088
sI632
F0.088
sI633
F0.088
sI634
F0.088
sI635
F0.088
sI636
F0.088
sI637
F0.088
sI638
F0.088
sI639
F0.088
sI640
F0.088
sI641
F0.088
sI642
F0.088
sI643
F0.088
sI644
F0.088
sI645
F0.088
sI646
F0.088
sI647
F0.088
sI648
F0.088
sI649
F0.088
sI650
F0.088
sI651
F0.088
sI652
F0.088
sI653
F0.088
sI654
F0.088
sI655
F0.088
sI656
F0.088
sI657
F0.088
sI658
F0.088
sI659
F0.088
sI660
F0.088
sI661
F0.088
sI662
F0.088
sI663
F0.088
sI664
F0.088
sI665
F0.088
sI666
F0.088
sI667
F0.088
sI668
F0.088
sI669
F0.088
sI670
F0.088
sI671
F0.088
sI672
F0.088
sI673
F0.088
sI674
F0.088
sI675
F0.088
sI676
F0.088
sI677
F0.088
sI678
F0.088
sI679
F0.088
sI680
F0.088
sI681
F0.088
sI682
F0.088
sI683
F0.088
sI684
F0.088
sI685
F0.088
sI686
F0.088
sI687
F0.088
sI688
F0.088
sI689
F0.088
sI690
F0.088
sI691
F0.088
sI692
F0.088
sI693
F0.088
sI694
F0.088
sI695
F0.088
sI696
F0.088
sI697
F0.088
sI698
F0.088
sI699
F0.088
sI700
F0.088
sI701
F0.088
sI702
F0.088
sI703
F0.088
sI704
F0.088
sI705
F0.088
sI706
F0.088
sI707
F0.088
sI708
F0.088
sI709
F0.088
sI710
F0.088
sI711
F0.088
sI712
F0.088
sI713
F0.088
sI714
F0.088
sI715
F0.088
sI716
F0.088
sI717
F0.088
sI718
F0.088
sI719
F0.088
sI720
F0.088
sI721
F0.088
sI722
F0.088
sI723
F0.088
sI724
F0.088
sI725
F0.088
sI726
F0.088
sI727
F0.088
sI728
F0.088
sI729
F0.088
sI730
F0.088
sI731
F0.088
sI732
F0.088
sI733
F0.088
sI734
F0.088
sI735
F0.088
sI736
F0.088
sI737
F0.088
sI738
F0.088
sI739
F0.088
sI740
F0.088
sI741
F0.088
sI742
F0.088
sI743
F0.088
sI744
F0.088
sI745
F0.088
sI746
F0.088
sI747
F0.088
sI748
F0.088
sI749
F0.088
sI750
F0.088
sI751
F0.088
sI752
F0.088
sI753
F0.088
sI754
F0.088
sI755
F0.088
sI756
F0.088
sI757
F0.088
sI758
F0.088
sI759
F0.088
sI760
F0.088
sI761
F0.088
sI762
F0.088
sI763
F0.088
sI764
F0.088
sI765
F0.088
sI766
F0.088
sI767
F0.088
sI768
F0.088
sI769
F0.088
sI770
F0.088
sI771
F0.088
sI772
F0.088
sI773
F0.088
sI774
F0.088
sI775
F0.088
sI776
F0.088
sI777
F0.088
sI778
F0.088
sI779
F0.088
sI780
F0.088
sI781
F0.088
sI782
F0.088
sI783
F0.088
sI784
F0.088
sI785
F0.088
sI786
F0.088
sI787
F0.088
sI788
F0.088
sI789
F0.088
sI790
F0.088
sI791
F0.088
sI792
F0.088
sI793
F0.088
sI794
F0.088
sI795
F0.088
sI796
F0.088
sI797
F0.088
sI798
F0.088
sI799
F0.088
sI800
F0.088
sI801
F0.088
sI802
F0.088
sI803
F0.088
sI804
F0.088
sI805
F0.088
sI806
F0.088
sI807
F0.088
sI808
F0.088
sI809
F0.088
sI810
F0.088
sI811
F0.088
sI812
F0.088
sI813
F0.088
sI814
F0.088
sI815
F0.088
sI816
F0.088
sI817
F0.088
sI818
F0.088
sI819
F0.088
sI820
F0.088
sI821
F0.088
sI822
F0.088
sI823
F0.088
sI824
F0.088
sI825
F0.088
sI826
F0.088
sI827
F0.088
sI828
F0.088
sI829
F0.088
sI830
F0.088
sI831
F0.088
sI832
F0.088
sI833
F0.088
sI834
F0.088
sI835
F0.088
sI836
F0.088
sI837
F0.088
sI838
F0.088
sI839
F0.088
sI840
F0.088
sI841
F0.088
sI842
F0.088
sI843
F0.088
sI844
F0.088
sI845
F0.088
sI846
F0.088
sI847
F0.088
sI848
F0.088
sI849
F0.088
sI850
F0.088
sI851
F0.088
sI852
F0.088
sI853
F0.088
sI854
F0.088
sI855
F0.088
sI856
F0.088
sI857
F0.088
sI858
F0.088
sI859
F0.088
sI860
F0.088
sI861
F0.088
sI862
F0.088
sI863
F0.088
sI864
F0.088
sI865
F0.088
sI866
F0.088
sI867
F0.088
sI868
F0.088
sI869
F0.088
sI870
F0.088
sI871
F0.088
sI872
F0.088
sI873
F0.088
sI874
F0.088
sI875
F0.088
sI876
F0.088
sI877
F0.088
sI878
F0.088
sI879
F0.088
sI880
F0.088
sI881
F0.088
sI882
F0.088
sI883
F0.088
sI884
F0.088
sI885
F0.088
sI886
F0.088
sI887
F0.088
sI888
F0.088
sI889
F0.088
sI890
F0.088
sI891
F0.088
sI892
F0.088
sI893
F0.088
sI894
F0.088
sI895
F0.088
sI896
F0.088
sI897
F0.088
sI898
F0.088
sI899
F0.088
sI900
F0.088
sI901
F0.088
sI902
F0.088
sI903
F0.088
sI904
F0.088
sI905
F0.088
sI906
F0.088
sI907
F0.088
sI908
F0.088
sI909
F0.088
sI910
F0.088
sI911
F0.088
sI912
F0.088
sI913
F0.088
sI914
F0.088
sI915
F0.088
sI916
F0.088
sI917
F0.088
sI918
F0.088
sI919
F0.088
sI920
F0.088
sI921
F0.088
sI922
F0.088
sI923
F0.088
sI924
F0.088
sI925
F0.088
sI926
F0.088
sI927
F0.088
sI928
F0.088
sI929
F0.088
sI930
F0.088
sI931
F0.088
sI932
F0.088
sI933
F0.088
sI934
F0.088
sI935
F0.088
sI936
F0.088
sI937
F0.088
sI938
F0.088
sI939
F0.088
sI940
F0.088
sI941
F0.088
sI942
F0.088
sI943
F0.088
sI944
F0.088
sI945
F0.088
sI946
F0.088
sI947
F0.088
sI948
F0.088
sI949
F0.088
sI950
F0.088
sI951
F0.088
sI952
F0.088
sI953
F0.088
sI954
F0.088
sI955
F0.088
sI956
F0.088
sI957
F0.088
sI958
F0.088
sI959
F0.088
sI960
F0.088
sI961
F0.088
sI962
F0.088
sI963
F0.088
sI964
F0.088
sI965
F0.088
sI966
F0.088
sI967
F0.088
sI968
F0.088
sI969
F0.088
sI970
F0.088
sI971
F0.088
sI972
F0.088
sI973
F0.088
sI974
F0.088
sI975
F0.088
sI976
F0.088
sI977
F0.088
sI978
F0.088
sI979
F0.088
sI980
F0.088
sI981
F0.088
sI982
F0.088
sI983
F0.088
sI984
F0.088
sI985
F0.088
sI986
F0.088
sI987
F0.088
sI988
F0.088
sI989
F0.088
sI990
F0.088
sI991
F0.088
sI992
F0.088
sI993
F0.088
sI994
F0.088
sI995
F0.088
sI996
F0.088
sI997
F0.088
sI998
F0.088
sI999
F0.088
ssF0.025
(dp4
I0
F0.744
sI1
F0.328
sI2
F0.297
sI3
F0.212
sI4
F0.212
sI5
F0.212
sI6
F0.212
sI7
F0.212
sI8
F0.212
sI9
F0.212
sI10
F0.212
sI11
F0.212
sI12
F0.212
sI13
F0.212
sI14
F0.212
sI15
F0.212
sI16
F0.212
sI17
F0.212
sI18
F0.212
sI19
F0.212
sI20
F0.212
sI21
F0.212
sI22
F0.212
sI23
F0.212
sI24
F0.212
sI25
F0.171
sI26
F0.171
sI27
F0.171
sI28
F0.171
sI29
F0.171
sI30
F0.171
sI31
F0.171
sI32
F0.171
sI33
F0.171
sI34
F0.171
sI35
F0.171
sI36
F0.171
sI37
F0.171
sI38
F0.171
sI39
F0.171
sI40
F0.171
sI41
F0.171
sI42
F0.171
sI43
F0.171
sI44
F0.171
sI45
F0.171
sI46
F0.171
sI47
F0.171
sI48
F0.171
sI49
F0.171
sI50
F0.171
sI51
F0.171
sI52
F0.171
sI53
F0.171
sI54
F0.171
sI55
F0.171
sI56
F0.171
sI57
F0.171
sI58
F0.171
sI59
F0.171
sI60
F0.171
sI61
F0.171
sI62
F0.171
sI63
F0.171
sI64
F0.171
sI65
F0.171
sI66
F0.171
sI67
F0.171
sI68
F0.171
sI69
F0.171
sI70
F0.171
sI71
F0.171
sI72
F0.171
sI73
F0.171
sI74
F0.171
sI75
F0.171
sI76
F0.171
sI77
F0.171
sI78
F0.171
sI79
F0.171
sI80
F0.171
sI81
F0.171
sI82
F0.171
sI83
F0.171
sI84
F0.171
sI85
F0.171
sI86
F0.171
sI87
F0.171
sI88
F0.171
sI89
F0.171
sI90
F0.137
sI91
F0.137
sI92
F0.137
sI93
F0.137
sI94
F0.137
sI95
F0.137
sI96
F0.137
sI97
F0.137
sI98
F0.137
sI99
F0.137
sI100
F0.137
sI101
F0.137
sI102
F0.137
sI103
F0.137
sI104
F0.137
sI105
F0.137
sI106
F0.137
sI107
F0.137
sI108
F0.137
sI109
F0.137
sI110
F0.137
sI111
F0.137
sI112
F0.137
sI113
F0.137
sI114
F0.137
sI115
F0.137
sI116
F0.137
sI117
F0.137
sI118
F0.137
sI119
F0.137
sI120
F0.137
sI121
F0.137
sI122
F0.137
sI123
F0.137
sI124
F0.137
sI125
F0.137
sI126
F0.137
sI127
F0.137
sI128
F0.137
sI129
F0.137
sI130
F0.137
sI131
F0.137
sI132
F0.137
sI133
F0.137
sI134
F0.137
sI135
F0.137
sI136
F0.137
sI137
F0.137
sI138
F0.137
sI139
F0.137
sI140
F0.137
sI141
F0.137
sI142
F0.137
sI143
F0.137
sI144
F0.137
sI145
F0.137
sI146
F0.137
sI147
F0.137
sI148
F0.137
sI149
F0.137
sI150
F0.137
sI151
F0.137
sI152
F0.137
sI153
F0.137
sI154
F0.137
sI155
F0.137
sI156
F0.137
sI157
F0.137
sI158
F0.137
sI159
F0.137
sI160
F0.137
sI161
F0.137
sI162
F0.137
sI163
F0.137
sI164
F0.137
sI165
F0.137
sI166
F0.137
sI167
F0.137
sI168
F0.137
sI169
F0.137
sI170
F0.137
sI171
F0.137
sI172
F0.137
sI173
F0.137
sI174
F0.137
sI175
F0.137
sI176
F0.137
sI177
F0.137
sI178
F0.137
sI179
F0.137
sI180
F0.137
sI181
F0.137
sI182
F0.137
sI183
F0.137
sI184
F0.137
sI185
F0.137
sI186
F0.137
sI187
F0.137
sI188
F0.137
sI189
F0.137
sI190
F0.137
sI191
F0.137
sI192
F0.137
sI193
F0.137
sI194
F0.137
sI195
F0.137
sI196
F0.137
sI197
F0.137
sI198
F0.137
sI199
F0.137
sI200
F0.137
sI201
F0.137
sI202
F0.137
sI203
F0.137
sI204
F0.137
sI205
F0.137
sI206
F0.137
sI207
F0.137
sI208
F0.137
sI209
F0.137
sI210
F0.137
sI211
F0.137
sI212
F0.137
sI213
F0.137
sI214
F0.137
sI215
F0.137
sI216
F0.137
sI217
F0.137
sI218
F0.137
sI219
F0.137
sI220
F0.137
sI221
F0.137
sI222
F0.137
sI223
F0.137
sI224
F0.137
sI225
F0.137
sI226
F0.137
sI227
F0.137
sI228
F0.137
sI229
F0.137
sI230
F0.137
sI231
F0.137
sI232
F0.137
sI233
F0.137
sI234
F0.137
sI235
F0.137
sI236
F0.137
sI237
F0.137
sI238
F0.137
sI239
F0.137
sI240
F0.137
sI241
F0.137
sI242
F0.137
sI243
F0.137
sI244
F0.137
sI245
F0.137
sI246
F0.137
sI247
F0.137
sI248
F0.137
sI249
F0.137
sI250
F0.137
sI251
F0.137
sI252
F0.137
sI253
F0.137
sI254
F0.137
sI255
F0.137
sI256
F0.137
sI257
F0.137
sI258
F0.137
sI259
F0.137
sI260
F0.137
sI261
F0.137
sI262
F0.137
sI263
F0.137
sI264
F0.137
sI265
F0.137
sI266
F0.137
sI267
F0.137
sI268
F0.137
sI269
F0.137
sI270
F0.137
sI271
F0.137
sI272
F0.137
sI273
F0.137
sI274
F0.137
sI275
F0.137
sI276
F0.137
sI277
F0.137
sI278
F0.137
sI279
F0.137
sI280
F0.137
sI281
F0.137
sI282
F0.137
sI283
F0.137
sI284
F0.137
sI285
F0.137
sI286
F0.137
sI287
F0.137
sI288
F0.137
sI289
F0.137
sI290
F0.137
sI291
F0.137
sI292
F0.137
sI293
F0.137
sI294
F0.137
sI295
F0.137
sI296
F0.137
sI297
F0.137
sI298
F0.137
sI299
F0.137
sI300
F0.137
sI301
F0.103
sI302
F0.103
sI303
F0.103
sI304
F0.103
sI305
F0.103
sI306
F0.103
sI307
F0.103
sI308
F0.103
sI309
F0.103
sI310
F0.103
sI311
F0.103
sI312
F0.103
sI313
F0.103
sI314
F0.103
sI315
F0.103
sI316
F0.103
sI317
F0.103
sI318
F0.103
sI319
F0.103
sI320
F0.103
sI321
F0.103
sI322
F0.103
sI323
F0.103
sI324
F0.103
sI325
F0.103
sI326
F0.103
sI327
F0.103
sI328
F0.103
sI329
F0.103
sI330
F0.103
sI331
F0.103
sI332
F0.103
sI333
F0.103
sI334
F0.103
sI335
F0.103
sI336
F0.103
sI337
F0.103
sI338
F0.103
sI339
F0.103
sI340
F0.103
sI341
F0.103
sI342
F0.103
sI343
F0.103
sI344
F0.103
sI345
F0.103
sI346
F0.103
sI347
F0.103
sI348
F0.103
sI349
F0.103
sI350
F0.103
sI351
F0.103
sI352
F0.103
sI353
F0.103
sI354
F0.103
sI355
F0.103
sI356
F0.103
sI357
F0.103
sI358
F0.103
sI359
F0.103
sI360
F0.103
sI361
F0.103
sI362
F0.103
sI363
F0.103
sI364
F0.103
sI365
F0.103
sI366
F0.103
sI367
F0.103
sI368
F0.103
sI369
F0.103
sI370
F0.103
sI371
F0.103
sI372
F0.103
sI373
F0.103
sI374
F0.103
sI375
F0.103
sI376
F0.103
sI377
F0.103
sI378
F0.103
sI379
F0.103
sI380
F0.103
sI381
F0.103
sI382
F0.103
sI383
F0.103
sI384
F0.103
sI385
F0.103
sI386
F0.103
sI387
F0.103
sI388
F0.103
sI389
F0.103
sI390
F0.103
sI391
F0.103
sI392
F0.103
sI393
F0.103
sI394
F0.103
sI395
F0.103
sI396
F0.103
sI397
F0.103
sI398
F0.103
sI399
F0.103
sI400
F0.103
sI401
F0.103
sI402
F0.103
sI403
F0.103
sI404
F0.103
sI405
F0.103
sI406
F0.103
sI407
F0.103
sI408
F0.103
sI409
F0.103
sI410
F0.103
sI411
F0.103
sI412
F0.103
sI413
F0.103
sI414
F0.103
sI415
F0.103
sI416
F0.103
sI417
F0.103
sI418
F0.103
sI419
F0.103
sI420
F0.103
sI421
F0.103
sI422
F0.103
sI423
F0.103
sI424
F0.103
sI425
F0.103
sI426
F0.103
sI427
F0.103
sI428
F0.103
sI429
F0.103
sI430
F0.103
sI431
F0.103
sI432
F0.103
sI433
F0.103
sI434
F0.103
sI435
F0.103
sI436
F0.103
sI437
F0.103
sI438
F0.103
sI439
F0.103
sI440
F0.103
sI441
F0.103
sI442
F0.103
sI443
F0.103
sI444
F0.103
sI445
F0.103
sI446
F0.103
sI447
F0.103
sI448
F0.103
sI449
F0.103
sI450
F0.103
sI451
F0.103
sI452
F0.103
sI453
F0.103
sI454
F0.103
sI455
F0.103
sI456
F0.103
sI457
F0.103
sI458
F0.103
sI459
F0.103
sI460
F0.103
sI461
F0.103
sI462
F0.103
sI463
F0.103
sI464
F0.103
sI465
F0.103
sI466
F0.103
sI467
F0.103
sI468
F0.103
sI469
F0.103
sI470
F0.103
sI471
F0.103
sI472
F0.103
sI473
F0.103
sI474
F0.103
sI475
F0.103
sI476
F0.103
sI477
F0.103
sI478
F0.103
sI479
F0.103
sI480
F0.103
sI481
F0.103
sI482
F0.103
sI483
F0.103
sI484
F0.103
sI485
F0.103
sI486
F0.103
sI487
F0.103
sI488
F0.103
sI489
F0.103
sI490
F0.103
sI491
F0.103
sI492
F0.103
sI493
F0.103
sI494
F0.103
sI495
F0.103
sI496
F0.103
sI497
F0.103
sI498
F0.103
sI499
F0.103
sI500
F0.103
sI501
F0.103
sI502
F0.103
sI503
F0.103
sI504
F0.103
sI505
F0.103
sI506
F0.103
sI507
F0.103
sI508
F0.103
sI509
F0.103
sI510
F0.103
sI511
F0.103
sI512
F0.103
sI513
F0.103
sI514
F0.103
sI515
F0.103
sI516
F0.103
sI517
F0.103
sI518
F0.103
sI519
F0.103
sI520
F0.103
sI521
F0.103
sI522
F0.103
sI523
F0.103
sI524
F0.103
sI525
F0.103
sI526
F0.103
sI527
F0.103
sI528
F0.103
sI529
F0.103
sI530
F0.103
sI531
F0.103
sI532
F0.103
sI533
F0.103
sI534
F0.103
sI535
F0.103
sI536
F0.103
sI537
F0.103
sI538
F0.103
sI539
F0.103
sI540
F0.103
sI541
F0.103
sI542
F0.103
sI543
F0.103
sI544
F0.103
sI545
F0.103
sI546
F0.103
sI547
F0.103
sI548
F0.103
sI549
F0.103
sI550
F0.103
sI551
F0.103
sI552
F0.103
sI553
F0.103
sI554
F0.103
sI555
F0.103
sI556
F0.103
sI557
F0.103
sI558
F0.103
sI559
F0.103
sI560
F0.103
sI561
F0.103
sI562
F0.103
sI563
F0.103
sI564
F0.103
sI565
F0.103
sI566
F0.103
sI567
F0.103
sI568
F0.103
sI569
F0.103
sI570
F0.103
sI571
F0.103
sI572
F0.103
sI573
F0.103
sI574
F0.103
sI575
F0.103
sI576
F0.103
sI577
F0.103
sI578
F0.103
sI579
F0.103
sI580
F0.103
sI581
F0.103
sI582
F0.103
sI583
F0.103
sI584
F0.103
sI585
F0.103
sI586
F0.103
sI587
F0.103
sI588
F0.103
sI589
F0.103
sI590
F0.103
sI591
F0.103
sI592
F0.103
sI593
F0.103
sI594
F0.103
sI595
F0.103
sI596
F0.103
sI597
F0.103
sI598
F0.103
sI599
F0.103
sI600
F0.103
sI601
F0.103
sI602
F0.103
sI603
F0.103
sI604
F0.103
sI605
F0.103
sI606
F0.103
sI607
F0.103
sI608
F0.103
sI609
F0.103
sI610
F0.103
sI611
F0.103
sI612
F0.103
sI613
F0.103
sI614
F0.103
sI615
F0.103
sI616
F0.103
sI617
F0.103
sI618
F0.103
sI619
F0.103
sI620
F0.103
sI621
F0.103
sI622
F0.103
sI623
F0.103
sI624
F0.103
sI625
F0.103
sI626
F0.103
sI627
F0.103
sI628
F0.103
sI629
F0.103
sI630
F0.103
sI631
F0.103
sI632
F0.103
sI633
F0.103
sI634
F0.103
sI635
F0.103
sI636
F0.103
sI637
F0.103
sI638
F0.103
sI639
F0.103
sI640
F0.103
sI641
F0.103
sI642
F0.103
sI643
F0.103
sI644
F0.103
sI645
F0.103
sI646
F0.103
sI647
F0.103
sI648
F0.103
sI649
F0.103
sI650
F0.103
sI651
F0.103
sI652
F0.103
sI653
F0.103
sI654
F0.103
sI655
F0.103
sI656
F0.103
sI657
F0.103
sI658
F0.103
sI659
F0.103
sI660
F0.103
sI661
F0.103
sI662
F0.103
sI663
F0.103
sI664
F0.103
sI665
F0.103
sI666
F0.103
sI667
F0.103
sI668
F0.103
sI669
F0.103
sI670
F0.103
sI671
F0.103
sI672
F0.103
sI673
F0.103
sI674
F0.103
sI675
F0.103
sI676
F0.103
sI677
F0.103
sI678
F0.103
sI679
F0.103
sI680
F0.103
sI681
F0.103
sI682
F0.103
sI683
F0.103
sI684
F0.103
sI685
F0.103
sI686
F0.103
sI687
F0.103
sI688
F0.103
sI689
F0.103
sI690
F0.103
sI691
F0.103
sI692
F0.103
sI693
F0.103
sI694
F0.103
sI695
F0.103
sI696
F0.103
sI697
F0.103
sI698
F0.103
sI699
F0.103
sI700
F0.103
sI701
F0.103
sI702
F0.103
sI703
F0.103
sI704
F0.103
sI705
F0.103
sI706
F0.103
sI707
F0.103
sI708
F0.103
sI709
F0.103
sI710
F0.103
sI711
F0.103
sI712
F0.103
sI713
F0.103
sI714
F0.103
sI715
F0.103
sI716
F0.103
sI717
F0.103
sI718
F0.103
sI719
F0.103
sI720
F0.103
sI721
F0.103
sI722
F0.103
sI723
F0.103
sI724
F0.103
sI725
F0.103
sI726
F0.103
sI727
F0.103
sI728
F0.103
sI729
F0.103
sI730
F0.103
sI731
F0.103
sI732
F0.103
sI733
F0.103
sI734
F0.103
sI735
F0.103
sI736
F0.103
sI737
F0.103
sI738
F0.103
sI739
F0.103
sI740
F0.103
sI741
F0.103
sI742
F0.103
sI743
F0.103
sI744
F0.103
sI745
F0.103
sI746
F0.103
sI747
F0.103
sI748
F0.103
sI749
F0.103
sI750
F0.103
sI751
F0.103
sI752
F0.103
sI753
F0.103
sI754
F0.103
sI755
F0.103
sI756
F0.103
sI757
F0.103
sI758
F0.103
sI759
F0.103
sI760
F0.103
sI761
F0.103
sI762
F0.103
sI763
F0.103
sI764
F0.103
sI765
F0.103
sI766
F0.103
sI767
F0.103
sI768
F0.103
sI769
F0.103
sI770
F0.103
sI771
F0.103
sI772
F0.103
sI773
F0.103
sI774
F0.103
sI775
F0.103
sI776
F0.103
sI777
F0.103
sI778
F0.103
sI779
F0.103
sI780
F0.103
sI781
F0.103
sI782
F0.103
sI783
F0.103
sI784
F0.103
sI785
F0.103
sI786
F0.103
sI787
F0.103
sI788
F0.103
sI789
F0.103
sI790
F0.103
sI791
F0.103
sI792
F0.103
sI793
F0.103
sI794
F0.103
sI795
F0.103
sI796
F0.103
sI797
F0.103
sI798
F0.103
sI799
F0.103
sI800
F0.103
sI801
F0.103
sI802
F0.103
sI803
F0.103
sI804
F0.103
sI805
F0.103
sI806
F0.103
sI807
F0.103
sI808
F0.103
sI809
F0.103
sI810
F0.103
sI811
F0.103
sI812
F0.103
sI813
F0.103
sI814
F0.103
sI815
F0.103
sI816
F0.103
sI817
F0.103
sI818
F0.103
sI819
F0.103
sI820
F0.103
sI821
F0.103
sI822
F0.103
sI823
F0.103
sI824
F0.103
sI825
F0.103
sI826
F0.103
sI827
F0.103
sI828
F0.103
sI829
F0.103
sI830
F0.103
sI831
F0.103
sI832
F0.103
sI833
F0.103
sI834
F0.103
sI835
F0.103
sI836
F0.103
sI837
F0.103
sI838
F0.103
sI839
F0.103
sI840
F0.103
sI841
F0.103
sI842
F0.103
sI843
F0.103
sI844
F0.103
sI845
F0.103
sI846
F0.103
sI847
F0.103
sI848
F0.103
sI849
F0.103
sI850
F0.103
sI851
F0.103
sI852
F0.103
sI853
F0.103
sI854
F0.103
sI855
F0.103
sI856
F0.103
sI857
F0.103
sI858
F0.103
sI859
F0.103
sI860
F0.103
sI861
F0.103
sI862
F0.103
sI863
F0.103
sI864
F0.103
sI865
F0.103
sI866
F0.103
sI867
F0.103
sI868
F0.103
sI869
F0.103
sI870
F0.103
sI871
F0.103
sI872
F0.103
sI873
F0.103
sI874
F0.103
sI875
F0.103
sI876
F0.103
sI877
F0.103
sI878
F0.103
sI879
F0.103
sI880
F0.103
sI881
F0.103
sI882
F0.103
sI883
F0.103
sI884
F0.103
sI885
F0.103
sI886
F0.103
sI887
F0.103
sI888
F0.103
sI889
F0.103
sI890
F0.103
sI891
F0.103
sI892
F0.103
sI893
F0.103
sI894
F0.103
sI895
F0.103
sI896
F0.103
sI897
F0.103
sI898
F0.103
sI899
F0.103
sI900
F0.103
sI901
F0.103
sI902
F0.103
sI903
F0.103
sI904
F0.103
sI905
F0.103
sI906
F0.103
sI907
F0.103
sI908
F0.103
sI909
F0.103
sI910
F0.103
sI911
F0.103
sI912
F0.103
sI913
F0.103
sI914
F0.103
sI915
F0.103
sI916
F0.103
sI917
F0.103
sI918
F0.103
sI919
F0.103
sI920
F0.103
sI921
F0.103
sI922
F0.103
sI923
F0.103
sI924
F0.103
sI925
F0.103
sI926
F0.103
sI927
F0.103
sI928
F0.103
sI929
F0.103
sI930
F0.103
sI931
F0.103
sI932
F0.103
sI933
F0.103
sI934
F0.103
sI935
F0.103
sI936
F0.103
sI937
F0.103
sI938
F0.103
sI939
F0.103
sI940
F0.103
sI941
F0.103
sI942
F0.103
sI943
F0.103
sI944
F0.103
sI945
F0.103
sI946
F0.103
sI947
F0.103
sI948
F0.103
sI949
F0.103
sI950
F0.103
sI951
F0.103
sI952
F0.103
sI953
F0.103
sI954
F0.103
sI955
F0.103
sI956
F0.103
sI957
F0.103
sI958
F0.103
sI959
F0.103
sI960
F0.103
sI961
F0.103
sI962
F0.103
sI963
F0.103
sI964
F0.103
sI965
F0.103
sI966
F0.103
sI967
F0.103
sI968
F0.103
sI969
F0.103
sI970
F0.103
sI971
F0.103
sI972
F0.103
sI973
F0.103
sI974
F0.103
sI975
F0.103
sI976
F0.103
sI977
F0.103
sI978
F0.103
sI979
F0.103
sI980
F0.103
sI981
F0.103
sI982
F0.103
sI983
F0.103
sI984
F0.103
sI985
F0.103
sI986
F0.103
sI987
F0.103
sI988
F0.103
sI989
F0.103
sI990
F0.103
sI991
F0.103
sI992
F0.103
sI993
F0.103
sI994
F0.103
sI995
F0.103
sI996
F0.103
sI997
F0.103
sI998
F0.103
sI999
F0.103
ss.