(dp0
S'temp'
p1
(dp2
F0.1
(lp3
F0.379
aF0.379
aF0.379
aF0.379
aF0.379
aF0.379
aF0.379
aF0.379
aF0.379
aF0.379
aF0.379
aF0.379
aF0.379
aF0.379
aF0.379
aF0.379
aF0.379
aF0.379
aF0.379
aF0.379
aF0.379
aF0.379
aF0.379
aF0.379
aF0.379
aF0.379
aF0.379
aF0.379
aF0.379
aF0.379
aF0.379
aF0.379
aF0.379
aF0.379
aF0.379
aF0.379
aF0.379
aF0.379
aF0.379
aF0.379
aF0.379
aF0.379
aF0.379
aF0.379
aF0.379
aF0.379
aF0.379
aF0.379
aF0.379
aF0.379
aF0.379
aF0.379
aF0.379
aF0.379
aF0.379
aF0.379
aF0.379
aF0.379
aF0.379
aF0.379
aF0.379
aF0.379
aF0.269
aF0.269
aF0.269
aF0.269
aF0.269
aF0.269
aF0.269
aF0.269
aF0.269
aF0.269
aF0.269
aF0.269
aF0.269
aF0.269
aF0.269
aF0.269
aF0.269
aF0.269
aF0.269
aF0.269
aF0.269
aF0.269
aF0.269
aF0.269
aF0.269
aF0.269
aF0.269
aF0.269
aF0.269
aF0.269
aF0.269
aF0.269
aF0.269
aF0.269
aF0.269
aF0.269
aF0.269
aF0.269
aF0.269
aF0.269
aF0.269
aF0.269
aF0.269
aF0.269
aF0.269
aF0.269
aF0.269
aF0.269
aF0.269
aF0.269
aF0.269
aF0.269
aF0.269
aF0.269
aF0.269
aF0.269
aF0.269
aF0.269
aF0.269
aF0.269
aF0.269
aF0.269
aF0.269
aF0.269
aF0.269
aF0.269
aF0.269
aF0.269
aF0.269
aF0.269
aF0.269
aF0.269
aF0.269
aF0.269
aF0.269
aF0.269
aF0.269
aF0.269
aF0.269
aF0.269
aF0.269
aF0.269
aF0.269
aF0.269
aF0.269
aF0.269
aF0.269
aF0.269
aF0.269
aF0.269
aF0.269
aF0.269
aF0.269
aF0.269
aF0.269
aF0.269
aF0.269
aF0.269
aF0.269
aF0.269
aF0.269
aF0.269
aF0.269
aF0.269
aF0.269
aF0.269
aF0.269
aF0.269
aF0.269
aF0.269
aF0.269
aF0.269
aF0.269
aF0.269
aF0.269
aF0.269
aF0.269
aF0.269
aF0.269
aF0.269
aF0.269
aF0.269
aF0.269
aF0.269
aF0.269
aF0.269
aF0.269
aF0.269
aF0.269
aF0.269
aF0.269
aF0.269
aF0.269
aF0.269
aF0.269
aF0.269
aF0.269
aF0.269
aF0.269
aF0.269
aF0.269
aF0.269
aF0.269
aF0.269
aF0.269
aF0.269
aF0.269
aF0.269
aF0.269
aF0.269
aF0.269
aF0.269
aF0.269
aF0.269
aF0.269
aF0.269
aF0.269
aF0.269
aF0.269
aF0.269
aF0.269
aF0.269
aF0.269
aF0.269
aF0.269
aF0.269
aF0.269
aF0.269
aF0.269
aF0.269
aF0.269
aF0.269
aF0.269
aF0.269
aF0.269
aF0.269
aF0.269
aF0.269
aF0.269
aF0.269
aF0.269
aF0.269
aF0.269
aF0.269
aF0.269
aF0.269
aF0.269
aF0.269
aF0.269
aF0.269
aF0.269
aF0.269
aF0.269
aF0.269
aF0.269
aF0.269
aF0.269
aF0.269
aF0.269
aF0.269
aF0.269
aF0.269
aF0.269
aF0.269
aF0.269
aF0.269
aF0.269
aF0.269
aF0.269
aF0.269
aF0.269
aF0.269
aF0.269
aF0.269
aF0.269
aF0.269
aF0.269
aF0.269
aF0.269
aF0.269
aF0.269
aF0.269
aF0.269
aF0.269
aF0.269
aF0.269
aF0.269
aF0.269
aF0.269
aF0.269
aF0.269
aF0.269
aF0.269
aF0.269
aF0.269
aF0.269
aF0.269
aF0.269
aF0.269
aF0.269
aF0.269
aF0.269
aF0.269
aF0.269
aF0.269
aF0.269
aF0.269
aF0.269
aF0.269
aF0.269
aF0.269
aF0.269
aF0.269
aF0.269
aF0.269
aF0.269
aF0.269
aF0.269
aF0.269
aF0.269
aF0.269
aF0.269
aF0.269
aF0.269
aF0.269
aF0.269
aF0.269
aF0.269
aF0.269
aF0.269
aF0.269
aF0.269
aF0.269
aF0.269
aF0.269
aF0.269
aF0.269
aF0.269
aF0.269
aF0.269
aF0.269
aF0.269
aF0.269
aF0.269
aF0.269
aF0.269
aF0.269
aF0.269
aF0.269
aF0.269
aF0.269
aF0.269
aF0.269
aF0.269
aF0.269
aF0.269
aF0.269
aF0.269
aF0.269
aF0.269
aF0.269
aF0.269
aF0.269
aF0.269
aF0.269
aF0.269
aF0.269
aF0.269
aF0.269
aF0.269
aF0.269
aF0.269
aF0.269
aF0.269
aF0.269
aF0.269
aF0.269
aF0.269
aF0.269
aF0.269
aF0.269
aF0.269
aF0.269
aF0.269
aF0.269
aF0.269
aF0.269
aF0.269
aF0.269
aF0.269
aF0.269
aF0.269
aF0.269
aF0.269
aF0.269
aF0.269
aF0.269
aF0.269
aF0.269
aF0.269
aF0.269
aF0.269
aF0.269
aF0.269
aF0.269
aF0.269
aF0.269
aF0.269
aF0.269
aF0.269
aF0.269
aF0.269
aF0.269
aF0.269
aF0.269
aF0.269
aF0.269
aF0.269
aF0.269
aF0.269
aF0.269
aF0.269
aF0.269
aF0.269
aF0.269
aF0.269
aF0.269
aF0.269
aF0.269
aF0.269
aF0.269
aF0.269
aF0.269
aF0.269
aF0.269
aF0.269
aF0.269
aF0.269
aF0.269
aF0.269
aF0.269
aF0.269
aF0.269
aF0.269
aF0.269
aF0.269
aF0.269
aF0.269
aF0.269
aF0.269
aF0.269
aF0.269
aF0.269
aF0.269
aF0.269
aF0.269
aF0.269
aF0.269
aF0.269
aF0.269
aF0.269
aF0.269
aF0.269
aF0.269
aF0.269
aF0.269
aF0.269
aF0.269
aF0.269
aF0.269
aF0.269
aF0.269
aF0.269
aF0.269
aF0.269
aF0.269
aF0.269
aF0.269
aF0.269
aF0.269
aF0.269
aF0.269
aF0.269
aF0.269
aF0.269
aF0.269
aF0.269
aF0.269
aF0.269
aF0.269
aF0.269
aF0.269
aF0.269
aF0.269
aF0.269
aF0.269
aF0.269
aF0.269
aF0.269
aF0.269
aF0.269
aF0.269
aF0.269
aF0.269
aF0.269
aF0.269
aF0.269
aF0.269
aF0.269
aF0.269
aF0.269
aF0.269
aF0.269
aF0.269
aF0.269
aF0.269
aF0.269
aF0.269
aF0.269
aF0.269
aF0.269
aF0.269
aF0.269
aF0.269
aF0.269
aF0.269
aF0.269
aF0.269
aF0.269
aF0.269
aF0.269
aF0.269
aF0.269
aF0.269
aF0.269
aF0.269
aF0.269
aF0.269
aF0.269
aF0.269
aF0.269
aF0.269
aF0.269
aF0.269
aF0.269
aF0.269
aF0.269
aF0.269
aF0.269
aF0.269
aF0.269
aF0.269
aF0.269
aF0.269
aF0.269
aF0.269
aF0.269
aF0.269
aF0.269
aF0.269
aF0.269
aF0.269
aF0.269
aF0.269
aF0.269
aF0.269
aF0.269
aF0.269
aF0.269
aF0.269
aF0.269
aF0.269
aF0.269
aF0.269
aF0.269
aF0.269
aF0.269
aF0.269
aF0.269
aF0.269
aF0.269
aF0.269
aF0.269
aF0.269
aF0.269
aF0.269
aF0.269
aF0.269
aF0.269
aF0.269
aF0.269
aF0.269
aF0.269
aF0.269
aF0.269
aF0.269
aF0.269
aF0.269
aF0.269
aF0.269
aF0.269
aF0.269
aF0.269
aF0.269
aF0.269
aF0.269
aF0.269
aF0.269
aF0.269
aF0.269
aF0.269
aF0.269
aF0.269
aF0.269
aF0.269
aF0.269
aF0.269
aF0.269
aF0.269
aF0.269
aF0.269
aF0.269
aF0.269
aF0.269
aF0.269
aF0.269
aF0.269
aF0.269
aF0.269
aF0.269
aF0.269
aF0.269
aF0.269
aF0.269
aF0.269
aF0.269
aF0.269
aF0.269
aF0.269
aF0.269
aF0.269
aF0.269
aF0.269
aF0.269
aF0.269
aF0.269
aF0.269
aF0.269
aF0.269
aF0.269
aF0.269
aF0.269
aF0.269
aF0.269
aF0.269
aF0.269
aF0.269
aF0.269
aF0.269
aF0.269
aF0.269
aF0.269
aF0.269
aF0.269
aF0.269
aF0.269
aF0.269
aF0.269
aF0.269
aF0.269
aF0.269
aF0.269
aF0.269
aF0.269
aF0.269
aF0.269
aF0.269
aF0.269
aF0.269
aF0.269
aF0.269
aF0.269
aF0.269
aF0.269
aF0.269
aF0.269
aF0.269
aF0.269
aF0.269
aF0.269
aF0.269
aF0.269
aF0.269
aF0.269
aF0.269
aF0.269
aF0.269
aF0.269
aF0.269
aF0.269
aF0.269
aF0.269
aF0.269
aF0.269
aF0.269
aF0.269
aF0.269
aF0.269
aF0.269
aF0.269
aF0.269
aF0.269
aF0.269
aF0.269
aF0.269
aF0.269
aF0.269
aF0.269
aF0.269
aF0.269
aF0.269
aF0.269
aF0.269
aF0.269
aF0.269
aF0.269
aF0.269
aF0.269
aF0.269
aF0.269
aF0.269
aF0.269
aF0.269
aF0.269
aF0.269
aF0.269
aF0.269
aF0.269
aF0.269
aF0.269
aF0.269
aF0.269
aF0.269
aF0.269
aF0.269
aF0.269
aF0.269
aF0.269
aF0.269
aF0.269
aF0.269
aF0.269
aF0.269
aF0.269
aF0.269
aF0.269
aF0.269
aF0.269
aF0.269
aF0.269
aF0.269
aF0.269
aF0.269
aF0.269
aF0.269
aF0.269
aF0.269
aF0.269
aF0.269
aF0.269
aF0.269
aF0.269
aF0.269
aF0.269
aF0.269
aF0.269
aF0.269
aF0.269
aF0.269
aF0.269
aF0.269
aF0.269
aF0.269
aF0.269
aF0.269
aF0.269
aF0.269
aF0.269
aF0.269
aF0.269
aF0.269
aF0.269
aF0.269
aF0.269
aF0.269
aF0.269
aF0.269
aF0.269
aF0.269
aF0.269
aF0.269
aF0.269
aF0.269
aF0.269
aF0.269
aF0.269
aF0.269
aF0.269
aF0.269
aF0.269
aF0.269
aF0.269
aF0.269
aF0.269
aF0.269
aF0.269
aF0.269
aF0.269
aF0.269
aF0.269
aF0.269
aF0.269
aF0.269
aF0.269
aF0.269
aF0.269
aF0.269
aF0.269
aF0.269
aF0.269
aF0.269
aF0.269
aF0.269
aF0.269
aF0.269
aF0.269
aF0.269
aF0.269
aF0.269
aF0.269
aF0.269
aF0.269
aF0.269
aF0.269
aF0.269
aF0.269
aF0.269
aF0.269
aF0.269
aF0.269
aF0.269
aF0.269
aF0.269
aF0.269
aF0.269
aF0.269
aF0.269
aF0.269
aF0.269
aF0.269
aF0.269
aF0.269
aF0.269
aF0.269
aF0.269
aF0.269
aF0.269
aF0.269
aF0.269
aF0.269
aF0.269
aF0.269
aF0.269
aF0.269
aF0.269
aF0.269
aF0.269
aF0.269
aF0.269
aF0.269
aF0.269
aF0.269
aF0.269
aF0.269
aF0.269
aF0.269
aF0.269
aF0.269
aF0.269
aF0.269
aF0.269
aF0.269
aF0.269
aF0.269
aF0.269
aF0.269
aF0.269
aF0.269
aF0.269
aF0.269
aF0.269
aF0.269
aF0.269
aF0.269
aF0.269
aF0.269
aF0.269
aF0.269
aF0.269
aF0.269
aF0.269
aF0.269
aF0.269
aF0.269
aF0.269
aF0.269
aF0.269
aF0.269
aF0.269
aF0.269
aF0.269
aF0.269
aF0.269
aF0.269
aF0.269
aF0.269
aF0.269
aF0.269
aF0.269
aF0.269
aF0.269
aF0.269
aF0.269
aF0.269
aF0.269
aF0.269
aF0.269
aF0.269
aF0.269
aF0.269
aF0.269
aF0.269
aF0.269
aF0.269
aF0.269
aF0.269
aF0.269
aF0.269
aF0.269
aF0.269
aF0.269
aF0.269
aF0.269
aF0.269
aF0.269
aF0.269
aF0.269
aF0.269
aF0.269
aF0.269
aF0.269
aF0.269
aF0.269
aF0.269
aF0.269
aF0.269
aF0.269
aF0.269
aF0.269
aF0.269
aF0.269
aF0.269
aF0.269
aF0.269
aF0.269
aF0.269
aF0.269
aF0.269
aF0.269
aF0.269
aF0.269
aF0.269
aF0.269
aF0.269
aF0.269
aF0.269
aF0.269
aF0.269
aF0.269
aF0.269
aF0.269
aF0.269
aF0.269
aF0.269
aF0.269
aF0.269
aF0.269
aF0.269
asF0.2
(lp4
F0.379
aF0.379
aF0.379
aF0.379
aF0.379
aF0.379
aF0.379
aF0.379
aF0.379
aF0.379
aF0.379
aF0.379
aF0.379
aF0.379
aF0.379
aF0.379
aF0.379
aF0.379
aF0.379
aF0.379
aF0.379
aF0.379
aF0.379
aF0.379
aF0.379
aF0.379
aF0.379
aF0.379
aF0.379
aF0.379
aF0.379
aF0.379
aF0.379
aF0.379
aF0.379
aF0.379
aF0.379
aF0.379
aF0.379
aF0.379
aF0.379
aF0.379
aF0.379
aF0.379
aF0.379
aF0.379
aF0.379
aF0.379
aF0.379
aF0.379
aF0.379
aF0.379
aF0.379
aF0.379
aF0.379
aF0.379
aF0.379
aF0.379
aF0.379
aF0.379
aF0.379
aF0.379
aF0.379
aF0.379
aF0.379
aF0.379
aF0.379
aF0.379
aF0.379
aF0.379
aF0.379
aF0.379
aF0.379
aF0.379
aF0.379
aF0.379
aF0.379
aF0.379
aF0.379
aF0.379
aF0.379
aF0.379
aF0.379
aF0.379
aF0.379
aF0.379
aF0.379
aF0.379
aF0.379
aF0.379
aF0.379
aF0.379
aF0.379
aF0.379
aF0.379
aF0.379
aF0.379
aF0.379
aF0.379
aF0.379
aF0.379
aF0.379
aF0.379
aF0.379
aF0.379
aF0.379
aF0.379
aF0.379
aF0.379
aF0.379
aF0.379
aF0.379
aF0.379
aF0.379
aF0.379
aF0.379
aF0.379
aF0.379
aF0.379
aF0.379
aF0.379
aF0.379
aF0.379
aF0.379
aF0.379
aF0.379
aF0.379
aF0.379
aF0.379
aF0.379
aF0.379
aF0.379
aF0.379
aF0.379
aF0.379
aF0.379
aF0.379
aF0.379
aF0.379
aF0.379
aF0.379
aF0.379
aF0.379
aF0.379
aF0.379
aF0.379
aF0.379
aF0.379
aF0.379
aF0.379
aF0.379
aF0.379
aF0.379
aF0.379
aF0.379
aF0.379
aF0.379
aF0.379
aF0.379
aF0.379
aF0.379
aF0.379
aF0.379
aF0.379
aF0.379
aF0.379
aF0.379
aF0.379
aF0.379
aF0.379
aF0.379
aF0.379
aF0.379
aF0.379
aF0.379
aF0.379
aF0.379
aF0.379
aF0.379
aF0.379
aF0.379
aF0.379
aF0.379
aF0.379
aF0.379
aF0.379
aF0.379
aF0.379
aF0.379
aF0.379
aF0.379
aF0.379
aF0.379
aF0.379
aF0.379
aF0.379
aF0.379
aF0.379
aF0.379
aF0.379
aF0.379
aF0.379
aF0.379
aF0.379
aF0.379
aF0.379
aF0.379
aF0.379
aF0.379
aF0.379
aF0.379
aF0.379
aF0.379
aF0.379
aF0.379
aF0.379
aF0.379
aF0.379
aF0.379
aF0.379
aF0.379
aF0.379
aF0.379
aF0.379
aF0.379
aF0.379
aF0.379
aF0.379
aF0.379
aF0.379
aF0.379
aF0.379
aF0.379
aF0.379
aF0.379
aF0.379
aF0.379
aF0.379
aF0.379
aF0.379
aF0.379
aF0.379
aF0.379
aF0.379
aF0.379
aF0.379
aF0.379
aF0.379
aF0.379
aF0.379
aF0.379
aF0.379
aF0.379
aF0.379
aF0.379
aF0.379
aF0.379
aF0.379
aF0.379
aF0.379
aF0.379
aF0.379
aF0.379
aF0.379
aF0.379
aF0.379
aF0.379
aF0.379
aF0.379
aF0.379
aF0.379
aF0.379
aF0.379
aF0.379
aF0.379
aF0.379
aF0.379
aF0.379
aF0.379
aF0.379
aF0.379
aF0.379
aF0.379
aF0.379
aF0.379
aF0.379
aF0.379
aF0.379
aF0.379
aF0.379
aF0.379
aF0.379
aF0.379
aF0.379
aF0.379
aF0.379
aF0.379
aF0.379
aF0.379
aF0.379
aF0.379
aF0.379
aF0.379
aF0.379
aF0.379
aF0.379
aF0.379
aF0.379
aF0.379
aF0.379
aF0.379
aF0.379
aF0.379
aF0.379
aF0.379
aF0.379
aF0.379
aF0.379
aF0.379
aF0.379
aF0.379
aF0.379
aF0.379
aF0.379
aF0.379
aF0.379
aF0.379
aF0.379
aF0.379
aF0.379
aF0.379
aF0.379
aF0.379
aF0.379
aF0.379
aF0.379
aF0.379
aF0.379
aF0.379
aF0.379
aF0.379
aF0.379
aF0.379
aF0.379
aF0.379
aF0.379
aF0.379
aF0.379
aF0.379
aF0.379
aF0.379
aF0.379
aF0.379
aF0.379
aF0.379
aF0.379
aF0.379
aF0.379
aF0.379
aF0.379
aF0.379
aF0.379
aF0.379
aF0.379
aF0.379
aF0.379
aF0.379
aF0.379
aF0.379
aF0.379
aF0.379
aF0.379
aF0.379
aF0.379
aF0.379
aF0.379
aF0.379
aF0.379
aF0.379
aF0.379
aF0.379
aF0.379
aF0.379
aF0.379
aF0.379
aF0.379
aF0.379
aF0.379
aF0.379
aF0.379
aF0.379
aF0.379
aF0.379
aF0.379
aF0.379
aF0.379
aF0.379
aF0.379
aF0.379
aF0.379
aF0.379
aF0.379
aF0.379
aF0.379
aF0.379
aF0.379
aF0.379
aF0.379
aF0.379
aF0.379
aF0.379
aF0.379
aF0.379
aF0.379
aF0.379
aF0.379
aF0.379
aF0.379
aF0.379
aF0.379
aF0.379
aF0.379
aF0.379
aF0.379
aF0.379
aF0.379
aF0.379
aF0.379
aF0.379
aF0.379
aF0.379
aF0.379
aF0.379
aF0.379
aF0.379
aF0.379
aF0.379
aF0.379
aF0.379
aF0.379
aF0.379
aF0.379
aF0.379
aF0.379
aF0.379
aF0.379
aF0.379
aF0.379
aF0.379
aF0.379
aF0.379
aF0.379
aF0.379
aF0.379
aF0.379
aF0.379
aF0.379
aF0.379
aF0.379
aF0.379
aF0.379
aF0.379
aF0.379
aF0.379
aF0.379
aF0.379
aF0.379
aF0.379
aF0.379
aF0.379
aF0.379
aF0.379
aF0.379
aF0.379
aF0.379
aF0.379
aF0.379
aF0.379
aF0.379
aF0.379
aF0.379
aF0.379
aF0.379
aF0.379
aF0.379
aF0.379
aF0.379
aF0.379
aF0.379
aF0.379
aF0.379
aF0.379
aF0.379
aF0.379
aF0.379
aF0.379
aF0.379
aF0.379
aF0.379
aF0.379
aF0.379
aF0.379
aF0.379
aF0.379
aF0.379
aF0.379
aF0.379
aF0.379
aF0.379
aF0.379
aF0.379
aF0.379
aF0.379
aF0.379
aF0.379
aF0.379
aF0.379
aF0.379
aF0.379
aF0.379
aF0.379
aF0.379
aF0.379
aF0.379
aF0.379
aF0.379
aF0.379
aF0.379
aF0.379
aF0.379
aF0.379
aF0.379
aF0.379
aF0.379
aF0.379
aF0.379
aF0.379
aF0.379
aF0.379
aF0.379
aF0.379
aF0.379
aF0.379
aF0.379
aF0.379
aF0.379
aF0.379
aF0.379
aF0.379
aF0.379
aF0.379
aF0.379
aF0.379
aF0.379
aF0.379
aF0.379
aF0.379
aF0.379
aF0.379
aF0.379
aF0.379
aF0.379
aF0.379
aF0.379
aF0.379
aF0.379
aF0.379
aF0.379
aF0.379
aF0.379
aF0.379
aF0.379
aF0.379
aF0.379
aF0.379
aF0.379
aF0.379
aF0.379
aF0.379
aF0.379
aF0.379
aF0.379
aF0.379
aF0.379
aF0.379
aF0.379
aF0.379
aF0.379
aF0.379
aF0.379
aF0.379
aF0.379
aF0.379
aF0.379
aF0.379
aF0.379
aF0.379
aF0.379
aF0.379
aF0.379
aF0.379
aF0.379
aF0.379
aF0.379
aF0.379
aF0.379
aF0.379
aF0.379
aF0.379
aF0.379
aF0.379
aF0.379
aF0.379
aF0.379
aF0.379
aF0.379
aF0.379
aF0.379
aF0.379
aF0.379
aF0.379
aF0.379
aF0.379
aF0.379
aF0.379
aF0.379
aF0.379
aF0.379
aF0.379
aF0.379
aF0.379
aF0.379
aF0.379
aF0.379
aF0.379
aF0.379
aF0.379
aF0.379
aF0.379
aF0.379
aF0.379
aF0.379
aF0.379
aF0.379
aF0.379
aF0.379
aF0.379
aF0.379
aF0.379
aF0.379
aF0.379
aF0.379
aF0.379
aF0.379
aF0.379
aF0.379
aF0.379
aF0.379
aF0.379
aF0.379
aF0.379
aF0.379
aF0.379
aF0.379
aF0.379
aF0.379
aF0.379
aF0.379
aF0.379
aF0.379
aF0.379
aF0.379
aF0.379
aF0.379
aF0.379
aF0.379
aF0.379
aF0.379
aF0.379
aF0.379
aF0.379
aF0.379
aF0.379
aF0.379
aF0.379
aF0.379
aF0.379
aF0.379
aF0.379
aF0.379
aF0.379
aF0.379
aF0.379
aF0.379
aF0.379
aF0.379
aF0.379
aF0.379
aF0.379
aF0.379
aF0.379
aF0.379
aF0.379
aF0.379
aF0.379
aF0.379
aF0.379
aF0.379
aF0.379
aF0.379
aF0.379
aF0.379
aF0.379
aF0.379
aF0.379
aF0.379
aF0.379
aF0.379
aF0.379
aF0.379
aF0.379
aF0.379
aF0.379
aF0.379
aF0.379
aF0.379
aF0.379
aF0.379
aF0.379
aF0.379
aF0.379
aF0.379
aF0.379
aF0.379
aF0.379
aF0.379
aF0.379
aF0.379
aF0.379
aF0.379
aF0.379
aF0.379
aF0.379
aF0.379
aF0.379
aF0.379
aF0.379
aF0.379
aF0.379
aF0.379
aF0.379
aF0.379
aF0.379
aF0.379
aF0.379
aF0.379
aF0.379
aF0.379
aF0.379
aF0.379
aF0.379
aF0.379
aF0.379
aF0.379
aF0.379
aF0.379
aF0.379
aF0.379
aF0.379
aF0.379
aF0.379
aF0.379
aF0.379
aF0.379
aF0.379
aF0.379
aF0.379
aF0.379
aF0.379
aF0.379
aF0.379
aF0.379
aF0.379
aF0.379
aF0.379
aF0.379
aF0.379
aF0.379
aF0.379
aF0.379
aF0.379
aF0.379
aF0.379
aF0.379
aF0.379
aF0.379
aF0.379
aF0.379
aF0.379
aF0.379
aF0.379
aF0.379
aF0.379
aF0.379
aF0.379
aF0.379
aF0.379
aF0.379
aF0.379
aF0.379
aF0.379
aF0.379
aF0.379
aF0.379
aF0.379
aF0.379
aF0.379
aF0.379
aF0.379
aF0.379
aF0.379
aF0.379
aF0.379
aF0.379
aF0.379
aF0.379
aF0.379
aF0.379
aF0.379
aF0.379
aF0.379
aF0.379
aF0.379
aF0.379
aF0.379
aF0.379
aF0.379
aF0.379
aF0.379
aF0.379
aF0.379
aF0.379
aF0.379
aF0.379
aF0.379
aF0.379
aF0.379
aF0.379
aF0.379
aF0.379
aF0.379
aF0.379
aF0.379
aF0.379
aF0.379
aF0.379
aF0.379
aF0.379
aF0.379
aF0.379
aF0.379
aF0.379
aF0.379
aF0.379
aF0.379
aF0.379
aF0.379
aF0.379
aF0.379
aF0.379
aF0.379
aF0.379
aF0.379
aF0.379
aF0.379
aF0.379
aF0.379
aF0.379
aF0.379
aF0.379
aF0.379
aF0.379
aF0.379
aF0.379
aF0.379
aF0.379
aF0.379
aF0.379
aF0.379
aF0.379
aF0.379
aF0.379
aF0.379
aF0.379
aF0.379
aF0.379
aF0.379
aF0.379
aF0.379
aF0.379
aF0.379
aF0.379
aF0.379
aF0.379
aF0.379
aF0.379
aF0.379
aF0.379
aF0.379
aF0.379
aF0.379
aF0.379
aF0.379
aF0.379
aF0.379
aF0.379
aF0.379
aF0.379
aF0.379
aF0.379
aF0.379
aF0.379
aF0.379
aF0.379
aF0.379
aF0.379
aF0.379
aF0.379
aF0.379
aF0.379
aF0.379
aF0.379
aF0.379
aF0.379
aF0.379
aF0.379
aF0.379
aF0.379
aF0.379
aF0.379
aF0.379
aF0.379
aF0.379
aF0.379
aF0.379
aF0.379
aF0.379
aF0.379
aF0.379
aF0.379
aF0.379
aF0.379
aF0.379
aF0.379
aF0.379
aF0.379
aF0.379
aF0.379
aF0.379
aF0.379
aF0.379
aF0.379
aF0.379
aF0.379
aF0.379
aF0.379
aF0.379
aF0.379
aF0.379
aF0.379
aF0.379
aF0.379
aF0.379
aF0.379
aF0.379
aF0.379
aF0.379
aF0.379
aF0.379
aF0.379
aF0.379
aF0.379
aF0.379
aF0.379
aF0.379
aF0.379
aF0.379
aF0.379
aF0.379
aF0.379
aF0.379
aF0.379
aF0.379
aF0.379
aF0.379
aF0.379
aF0.379
aF0.379
aF0.379
aF0.379
asF0.05
(lp5
F0.379
aF0.379
aF0.379
aF0.379
aF0.379
aF0.379
aF0.379
aF0.379
aF0.379
aF0.379
aF0.311
aF0.311
aF0.311
aF0.311
aF0.311
aF0.311
aF0.311
aF0.311
aF0.311
aF0.311
aF0.311
aF0.311
aF0.311
aF0.311
aF0.311
aF0.311
aF0.311
aF0.311
aF0.311
aF0.311
aF0.311
aF0.311
aF0.311
aF0.311
aF0.311
aF0.311
aF0.311
aF0.311
aF0.311
aF0.311
aF0.311
aF0.311
aF0.311
aF0.311
aF0.311
aF0.311
aF0.311
aF0.311
aF0.311
aF0.311
aF0.311
aF0.311
aF0.311
aF0.311
aF0.311
aF0.311
aF0.311
aF0.311
aF0.311
aF0.311
aF0.311
aF0.311
aF0.311
aF0.311
aF0.311
aF0.311
aF0.311
aF0.311
aF0.311
aF0.311
aF0.311
aF0.311
aF0.311
aF0.311
aF0.311
aF0.311
aF0.311
aF0.311
aF0.311
aF0.311
aF0.311
aF0.311
aF0.311
aF0.311
aF0.311
aF0.311
aF0.311
aF0.311
aF0.311
aF0.311
aF0.311
aF0.311
aF0.311
aF0.311
aF0.311
aF0.311
aF0.311
aF0.311
aF0.311
aF0.311
aF0.311
aF0.311
aF0.311
aF0.311
aF0.311
aF0.311
aF0.311
aF0.311
aF0.311
aF0.311
aF0.311
aF0.311
aF0.311
aF0.311
aF0.311
aF0.241
aF0.241
aF0.241
aF0.241
aF0.241
aF0.241
aF0.241
aF0.241
aF0.241
aF0.241
aF0.241
aF0.241
aF0.241
aF0.241
aF0.241
aF0.241
aF0.241
aF0.241
aF0.241
aF0.241
aF0.241
aF0.241
aF0.241
aF0.241
aF0.241
aF0.241
aF0.241
aF0.241
aF0.241
aF0.241
aF0.241
aF0.241
aF0.241
aF0.241
aF0.241
aF0.241
aF0.241
aF0.241
aF0.241
aF0.241
aF0.241
aF0.241
aF0.241
aF0.241
aF0.241
aF0.241
aF0.241
aF0.241
aF0.241
aF0.241
aF0.241
aF0.241
aF0.241
aF0.241
aF0.241
aF0.241
aF0.241
aF0.241
aF0.241
aF0.241
aF0.241
aF0.241
aF0.241
aF0.241
aF0.241
aF0.241
aF0.241
aF0.241
aF0.241
aF0.241
aF0.241
aF0.241
aF0.241
aF0.241
aF0.241
aF0.241
aF0.241
aF0.241
aF0.241
aF0.241
aF0.241
aF0.241
aF0.241
aF0.241
aF0.241
aF0.241
aF0.241
aF0.241
aF0.241
aF0.241
aF0.241
aF0.241
aF0.241
aF0.241
aF0.241
aF0.241
aF0.241
aF0.241
aF0.241
aF0.241
aF0.241
aF0.241
aF0.241
aF0.241
aF0.241
aF0.241
aF0.241
aF0.241
aF0.241
aF0.241
aF0.241
aF0.241
aF0.241
aF0.241
aF0.241
aF0.241
aF0.241
aF0.241
aF0.241
aF0.241
aF0.241
aF0.241
aF0.241
aF0.241
aF0.241
aF0.241
aF0.241
aF0.241
aF0.241
aF0.241
aF0.241
aF0.241
aF0.241
aF0.241
aF0.241
aF0.241
aF0.241
aF0.241
aF0.241
aF0.241
aF0.241
aF0.241
aF0.241
aF0.241
aF0.241
aF0.241
aF0.241
aF0.241
aF0.241
aF0.241
aF0.241
aF0.241
aF0.241
aF0.241
aF0.241
aF0.241
aF0.241
aF0.241
aF0.241
aF0.241
aF0.241
aF0.241
aF0.241
aF0.241
aF0.241
aF0.241
aF0.241
aF0.241
aF0.241
aF0.241
aF0.241
aF0.241
aF0.241
aF0.241
aF0.241
aF0.241
aF0.241
aF0.241
aF0.241
aF0.241
aF0.241
aF0.241
aF0.241
aF0.241
aF0.241
aF0.241
aF0.241
aF0.241
aF0.241
aF0.241
aF0.241
aF0.241
aF0.241
aF0.241
aF0.241
aF0.241
aF0.241
aF0.241
aF0.241
aF0.241
aF0.241
aF0.241
aF0.241
aF0.241
aF0.241
aF0.241
aF0.241
aF0.241
aF0.241
aF0.241
aF0.241
aF0.241
aF0.241
aF0.241
aF0.241
aF0.241
aF0.241
aF0.241
aF0.241
aF0.241
aF0.241
aF0.241
aF0.241
aF0.241
aF0.241
aF0.241
aF0.241
aF0.241
aF0.241
aF0.241
aF0.241
aF0.241
aF0.241
aF0.241
aF0.241
aF0.241
aF0.241
aF0.241
aF0.241
aF0.241
aF0.241
aF0.241
aF0.241
aF0.241
aF0.241
aF0.241
aF0.241
aF0.241
aF0.241
aF0.241
aF0.241
aF0.241
aF0.241
aF0.241
aF0.241
aF0.241
aF0.241
aF0.241
aF0.241
aF0.241
aF0.241
aF0.241
aF0.241
aF0.241
aF0.241
aF0.241
aF0.241
aF0.241
aF0.241
aF0.241
aF0.241
aF0.241
aF0.241
aF0.241
aF0.241
aF0.241
aF0.241
aF0.241
aF0.241
aF0.241
aF0.241
aF0.241
aF0.241
aF0.241
aF0.241
aF0.241
aF0.241
aF0.241
aF0.241
aF0.241
aF0.241
aF0.241
aF0.241
aF0.241
aF0.241
aF0.241
aF0.241
aF0.241
aF0.241
aF0.241
aF0.241
aF0.241
aF0.241
aF0.241
aF0.241
aF0.241
aF0.241
aF0.241
aF0.241
aF0.241
aF0.241
aF0.241
aF0.241
aF0.241
aF0.241
aF0.241
aF0.241
aF0.241
aF0.241
aF0.241
aF0.241
aF0.241
aF0.241
aF0.241
aF0.241
aF0.241
aF0.241
aF0.241
aF0.241
aF0.241
aF0.241
aF0.241
aF0.241
aF0.241
aF0.241
aF0.241
aF0.241
aF0.241
aF0.241
aF0.241
aF0.241
aF0.241
aF0.241
aF0.241
aF0.241
aF0.241
aF0.241
aF0.241
aF0.241
aF0.241
aF0.241
aF0.241
aF0.241
aF0.241
aF0.241
aF0.241
aF0.241
aF0.241
aF0.241
aF0.241
aF0.241
aF0.241
aF0.241
aF0.241
aF0.241
aF0.241
aF0.241
aF0.241
aF0.241
aF0.241
aF0.241
aF0.241
aF0.241
aF0.241
aF0.241
aF0.241
aF0.241
aF0.241
aF0.241
aF0.241
aF0.241
aF0.241
aF0.241
aF0.241
aF0.241
aF0.241
aF0.241
aF0.241
aF0.241
aF0.241
aF0.241
aF0.241
aF0.241
aF0.241
aF0.241
aF0.241
aF0.241
aF0.241
aF0.241
aF0.241
aF0.241
aF0.241
aF0.241
aF0.241
aF0.241
aF0.241
aF0.241
aF0.241
aF0.241
aF0.241
aF0.241
aF0.241
aF0.241
aF0.241
aF0.241
aF0.241
aF0.241
aF0.241
aF0.241
aF0.241
aF0.241
aF0.241
aF0.241
aF0.241
aF0.241
aF0.241
aF0.241
aF0.241
aF0.241
aF0.241
aF0.241
aF0.241
aF0.241
aF0.241
aF0.241
aF0.241
aF0.241
aF0.241
aF0.241
aF0.241
aF0.241
aF0.241
aF0.241
aF0.241
aF0.241
aF0.241
aF0.241
aF0.241
aF0.241
aF0.241
aF0.241
aF0.241
aF0.241
aF0.241
aF0.241
aF0.241
aF0.241
aF0.241
aF0.241
aF0.241
aF0.241
aF0.241
aF0.241
aF0.241
aF0.241
aF0.241
aF0.241
aF0.241
aF0.241
aF0.241
aF0.241
aF0.241
aF0.241
aF0.241
aF0.241
aF0.241
aF0.241
aF0.241
aF0.241
aF0.241
aF0.241
aF0.241
aF0.241
aF0.241
aF0.241
aF0.241
aF0.241
aF0.241
aF0.241
aF0.241
aF0.241
aF0.241
aF0.241
aF0.241
aF0.241
aF0.241
aF0.241
aF0.241
aF0.241
aF0.241
aF0.241
aF0.241
aF0.241
aF0.241
aF0.241
aF0.241
aF0.241
aF0.241
aF0.241
aF0.241
aF0.241
aF0.241
aF0.241
aF0.241
aF0.241
aF0.241
aF0.241
aF0.241
aF0.241
aF0.241
aF0.241
aF0.241
aF0.241
aF0.241
aF0.241
aF0.241
aF0.241
aF0.241
aF0.241
aF0.241
aF0.241
aF0.241
aF0.241
aF0.241
aF0.241
aF0.241
aF0.241
aF0.241
aF0.241
aF0.241
aF0.241
aF0.241
aF0.241
aF0.241
aF0.241
aF0.241
aF0.241
aF0.241
aF0.241
aF0.241
aF0.241
aF0.241
aF0.241
aF0.241
aF0.241
aF0.241
aF0.241
aF0.241
aF0.241
aF0.241
aF0.241
aF0.241
aF0.241
aF0.241
aF0.241
aF0.241
aF0.241
aF0.241
aF0.241
aF0.241
aF0.241
aF0.241
aF0.241
aF0.241
aF0.241
aF0.241
aF0.241
aF0.241
aF0.241
aF0.241
aF0.241
aF0.241
aF0.241
aF0.241
aF0.241
aF0.241
aF0.241
aF0.241
aF0.241
aF0.241
aF0.241
aF0.241
aF0.241
aF0.241
aF0.241
aF0.241
aF0.241
aF0.241
aF0.241
aF0.241
aF0.241
aF0.241
aF0.241
aF0.241
aF0.241
aF0.241
aF0.241
aF0.241
aF0.241
aF0.241
aF0.241
aF0.241
aF0.241
aF0.241
aF0.241
aF0.241
aF0.241
aF0.241
aF0.241
aF0.241
aF0.241
aF0.241
aF0.241
aF0.241
aF0.241
aF0.241
aF0.241
aF0.241
aF0.241
aF0.241
aF0.241
aF0.241
aF0.241
aF0.241
aF0.241
aF0.241
aF0.241
aF0.241
aF0.241
aF0.241
aF0.241
aF0.241
aF0.241
aF0.241
aF0.241
aF0.241
aF0.241
aF0.241
aF0.241
aF0.241
aF0.241
aF0.241
aF0.241
aF0.241
aF0.241
aF0.241
aF0.241
aF0.241
aF0.241
aF0.241
aF0.241
aF0.241
aF0.241
aF0.241
aF0.241
aF0.241
aF0.241
aF0.241
aF0.241
aF0.241
aF0.241
aF0.241
aF0.241
aF0.241
aF0.241
aF0.241
aF0.241
aF0.241
aF0.241
aF0.241
aF0.241
aF0.241
aF0.241
aF0.241
aF0.241
aF0.241
aF0.241
aF0.241
aF0.241
aF0.241
aF0.241
aF0.241
aF0.241
aF0.241
aF0.241
aF0.241
aF0.241
aF0.241
aF0.241
aF0.241
aF0.241
aF0.241
aF0.241
aF0.241
aF0.241
aF0.241
aF0.241
aF0.241
aF0.241
aF0.241
aF0.241
aF0.241
aF0.241
aF0.241
aF0.241
aF0.241
aF0.241
aF0.241
aF0.241
aF0.241
aF0.241
aF0.241
aF0.241
aF0.241
aF0.241
aF0.241
aF0.241
aF0.241
aF0.241
aF0.241
aF0.241
aF0.241
aF0.241
aF0.241
aF0.241
aF0.241
aF0.241
aF0.241
aF0.241
aF0.241
aF0.241
aF0.241
aF0.241
aF0.241
aF0.241
aF0.241
aF0.241
aF0.241
aF0.241
aF0.241
aF0.241
aF0.241
aF0.241
aF0.241
aF0.241
aF0.241
aF0.241
aF0.241
aF0.241
aF0.241
aF0.241
aF0.241
aF0.241
aF0.241
aF0.241
aF0.241
aF0.241
aF0.241
aF0.241
aF0.241
aF0.241
aF0.241
aF0.241
aF0.241
aF0.241
aF0.241
aF0.241
aF0.241
aF0.241
aF0.241
aF0.241
aF0.241
aF0.241
aF0.241
aF0.241
aF0.241
aF0.241
aF0.241
aF0.241
aF0.241
aF0.241
aF0.241
aF0.241
aF0.241
aF0.241
aF0.241
aF0.241
aF0.241
aF0.241
aF0.241
aF0.241
aF0.241
aF0.241
aF0.241
aF0.241
aF0.241
aF0.241
aF0.241
aF0.241
aF0.241
aF0.241
aF0.241
aF0.241
aF0.241
aF0.241
aF0.241
aF0.241
aF0.241
aF0.241
aF0.241
aF0.241
aF0.241
aF0.241
aF0.241
aF0.241
aF0.241
aF0.241
aF0.241
aF0.241
aF0.241
aF0.241
aF0.241
aF0.241
aF0.241
aF0.241
aF0.241
aF0.241
aF0.241
aF0.241
aF0.241
aF0.241
aF0.241
aF0.241
aF0.241
aF0.241
aF0.241
aF0.241
aF0.241
aF0.241
aF0.241
aF0.241
aF0.241
aF0.241
aF0.241
aF0.241
aF0.241
aF0.241
aF0.241
aF0.241
aF0.241
aF0.241
aF0.241
aF0.241
aF0.241
aF0.241
aF0.241
aF0.241
aF0.241
aF0.241
aF0.241
aF0.241
aF0.241
aF0.241
aF0.241
aF0.241
aF0.241
aF0.241
aF0.241
aF0.241
aF0.241
aF0.241
aF0.241
aF0.241
aF0.241
aF0.241
asF0.025
(lp6
F0.379
aF0.379
aF0.379
aF0.379
aF0.379
aF0.379
aF0.379
aF0.379
aF0.379
aF0.379
aF0.311
aF0.311
aF0.311
aF0.311
aF0.311
aF0.311
aF0.311
aF0.311
aF0.311
aF0.311
aF0.311
aF0.311
aF0.311
aF0.311
aF0.311
aF0.311
aF0.311
aF0.311
aF0.311
aF0.311
aF0.311
aF0.311
aF0.311
aF0.311
aF0.311
aF0.311
aF0.311
aF0.311
aF0.311
aF0.311
aF0.311
aF0.311
aF0.311
aF0.311
aF0.311
aF0.311
aF0.311
aF0.311
aF0.311
aF0.311
aF0.311
aF0.311
aF0.311
aF0.311
aF0.311
aF0.311
aF0.311
aF0.311
aF0.311
aF0.311
aF0.311
aF0.311
aF0.269
aF0.269
aF0.269
aF0.269
aF0.269
aF0.269
aF0.269
aF0.269
aF0.269
aF0.269
aF0.269
aF0.269
aF0.269
aF0.269
aF0.269
aF0.269
aF0.269
aF0.269
aF0.269
aF0.269
aF0.269
aF0.269
aF0.269
aF0.269
aF0.269
aF0.269
aF0.269
aF0.269
aF0.269
aF0.269
aF0.269
aF0.269
aF0.269
aF0.269
aF0.269
aF0.269
aF0.269
aF0.269
aF0.269
aF0.269
aF0.269
aF0.269
aF0.269
aF0.269
aF0.269
aF0.269
aF0.269
aF0.269
aF0.269
aF0.269
aF0.269
aF0.269
aF0.269
aF0.241
aF0.241
aF0.241
aF0.241
aF0.241
aF0.241
aF0.241
aF0.241
aF0.241
aF0.241
aF0.241
aF0.241
aF0.241
aF0.241
aF0.241
aF0.241
aF0.241
aF0.241
aF0.241
aF0.241
aF0.241
aF0.241
aF0.241
aF0.241
aF0.241
aF0.241
aF0.241
aF0.241
aF0.241
aF0.241
aF0.241
aF0.241
aF0.241
aF0.241
aF0.241
aF0.241
aF0.241
aF0.241
aF0.241
aF0.241
aF0.241
aF0.241
aF0.241
aF0.241
aF0.241
aF0.241
aF0.241
aF0.241
aF0.241
aF0.241
aF0.241
aF0.241
aF0.241
aF0.241
aF0.241
aF0.241
aF0.241
aF0.241
aF0.241
aF0.241
aF0.241
aF0.241
aF0.241
aF0.241
aF0.241
aF0.241
aF0.241
aF0.241
aF0.241
aF0.241
aF0.241
aF0.241
aF0.241
aF0.241
aF0.241
aF0.241
aF0.241
aF0.241
aF0.241
aF0.241
aF0.241
aF0.241
aF0.241
aF0.241
aF0.241
aF0.241
aF0.241
aF0.241
aF0.241
aF0.241
aF0.241
aF0.241
aF0.241
aF0.241
aF0.241
aF0.241
aF0.241
aF0.241
aF0.241
aF0.241
aF0.241
aF0.241
aF0.241
aF0.241
aF0.241
aF0.241
aF0.241
aF0.241
aF0.241
aF0.241
aF0.241
aF0.241
aF0.241
aF0.241
aF0.241
aF0.241
aF0.241
aF0.241
aF0.241
aF0.241
aF0.241
aF0.241
aF0.241
aF0.241
aF0.241
aF0.241
aF0.241
aF0.241
aF0.241
aF0.241
aF0.241
aF0.241
aF0.241
aF0.241
aF0.241
aF0.241
aF0.241
aF0.241
aF0.241
aF0.241
aF0.241
aF0.241
aF0.241
aF0.241
aF0.241
aF0.241
aF0.241
aF0.241
aF0.241
aF0.241
aF0.241
aF0.241
aF0.241
aF0.241
aF0.241
aF0.241
aF0.241
aF0.241
aF0.241
aF0.241
aF0.241
aF0.241
aF0.241
aF0.241
aF0.241
aF0.241
aF0.241
aF0.241
aF0.241
aF0.241
aF0.241
aF0.241
aF0.241
aF0.241
aF0.241
aF0.241
aF0.241
aF0.241
aF0.241
aF0.241
aF0.241
aF0.241
aF0.241
aF0.241
aF0.241
aF0.241
aF0.241
aF0.241
aF0.241
aF0.241
aF0.241
aF0.241
aF0.241
aF0.241
aF0.241
aF0.241
aF0.241
aF0.241
aF0.241
aF0.241
aF0.241
aF0.241
aF0.241
aF0.241
aF0.241
aF0.241
aF0.241
aF0.241
aF0.241
aF0.241
aF0.241
aF0.241
aF0.241
aF0.241
aF0.241
aF0.241
aF0.241
aF0.241
aF0.241
aF0.241
aF0.241
aF0.241
aF0.241
aF0.241
aF0.241
aF0.241
aF0.241
aF0.241
aF0.241
aF0.241
aF0.241
aF0.241
aF0.241
aF0.241
aF0.241
aF0.241
aF0.241
aF0.241
aF0.241
aF0.241
aF0.241
aF0.241
aF0.241
aF0.241
aF0.241
aF0.241
aF0.241
aF0.241
aF0.241
aF0.241
aF0.241
aF0.241
aF0.241
aF0.241
aF0.241
aF0.241
aF0.241
aF0.241
aF0.241
aF0.241
aF0.241
aF0.241
aF0.241
aF0.241
aF0.241
aF0.241
aF0.241
aF0.241
aF0.241
aF0.241
aF0.241
aF0.241
aF0.241
aF0.241
aF0.241
aF0.241
aF0.241
aF0.241
aF0.241
aF0.241
aF0.241
aF0.241
aF0.241
aF0.241
aF0.241
aF0.241
aF0.241
aF0.241
aF0.241
aF0.241
aF0.241
aF0.241
aF0.241
aF0.241
aF0.241
aF0.241
aF0.241
aF0.241
aF0.241
aF0.241
aF0.241
aF0.241
aF0.241
aF0.241
aF0.241
aF0.241
aF0.241
aF0.241
aF0.241
aF0.241
aF0.241
aF0.241
aF0.241
aF0.241
aF0.241
aF0.241
aF0.241
aF0.241
aF0.241
aF0.241
aF0.241
aF0.241
aF0.241
aF0.241
aF0.241
aF0.241
aF0.241
aF0.241
aF0.241
aF0.241
aF0.241
aF0.241
aF0.241
aF0.241
aF0.241
aF0.241
aF0.241
aF0.241
aF0.241
aF0.241
aF0.241
aF0.241
aF0.241
aF0.241
aF0.241
aF0.241
aF0.241
aF0.241
aF0.241
aF0.241
aF0.241
aF0.241
aF0.241
aF0.241
aF0.241
aF0.241
aF0.241
aF0.241
aF0.241
aF0.241
aF0.241
aF0.241
aF0.241
aF0.241
aF0.241
aF0.241
aF0.241
aF0.241
aF0.241
aF0.241
aF0.241
aF0.241
aF0.241
aF0.241
aF0.241
aF0.241
aF0.241
aF0.241
aF0.241
aF0.241
aF0.241
aF0.241
aF0.241
aF0.241
aF0.241
aF0.241
aF0.241
aF0.241
aF0.241
aF0.241
aF0.241
aF0.241
aF0.241
aF0.241
aF0.241
aF0.241
aF0.241
aF0.241
aF0.241
aF0.241
aF0.241
aF0.241
aF0.241
aF0.241
aF0.241
aF0.241
aF0.241
aF0.241
aF0.241
aF0.241
aF0.241
aF0.241
aF0.241
aF0.241
aF0.241
aF0.241
aF0.241
aF0.241
aF0.241
aF0.241
aF0.241
aF0.241
aF0.241
aF0.241
aF0.241
aF0.241
aF0.241
aF0.241
aF0.241
aF0.241
aF0.241
aF0.241
aF0.241
aF0.241
aF0.241
aF0.241
aF0.241
aF0.241
aF0.241
aF0.241
aF0.241
aF0.241
aF0.241
aF0.241
aF0.241
aF0.241
aF0.241
aF0.241
aF0.241
aF0.241
aF0.241
aF0.241
aF0.241
aF0.241
aF0.241
aF0.241
aF0.241
aF0.241
aF0.241
aF0.241
aF0.241
aF0.241
aF0.241
aF0.241
aF0.241
aF0.241
aF0.241
aF0.241
aF0.241
aF0.241
aF0.241
aF0.241
aF0.241
aF0.241
aF0.241
aF0.241
aF0.241
aF0.241
aF0.241
aF0.241
aF0.241
aF0.241
aF0.241
aF0.241
aF0.241
aF0.241
aF0.241
aF0.241
aF0.241
aF0.241
aF0.241
aF0.241
aF0.241
aF0.241
aF0.241
aF0.241
aF0.241
aF0.241
aF0.241
aF0.241
aF0.241
aF0.241
aF0.241
aF0.241
aF0.241
aF0.241
aF0.241
aF0.241
aF0.241
aF0.241
aF0.241
aF0.241
aF0.241
aF0.241
aF0.241
aF0.241
aF0.241
aF0.241
aF0.241
aF0.241
aF0.241
aF0.241
aF0.241
aF0.241
aF0.241
aF0.241
aF0.241
aF0.241
aF0.241
aF0.241
aF0.241
aF0.241
aF0.241
aF0.241
aF0.241
aF0.241
aF0.241
aF0.241
aF0.241
aF0.241
aF0.241
aF0.241
aF0.241
aF0.241
aF0.241
aF0.241
aF0.241
aF0.241
aF0.241
aF0.241
aF0.241
aF0.241
aF0.241
aF0.241
aF0.241
aF0.241
aF0.241
aF0.241
aF0.241
aF0.241
aF0.241
aF0.241
aF0.241
aF0.241
aF0.241
aF0.241
aF0.241
aF0.241
aF0.241
aF0.241
aF0.241
aF0.241
aF0.241
aF0.241
aF0.241
aF0.241
aF0.241
aF0.241
aF0.241
aF0.241
aF0.241
aF0.241
aF0.241
aF0.241
aF0.241
aF0.241
aF0.241
aF0.241
aF0.241
aF0.241
aF0.241
aF0.241
aF0.241
aF0.241
aF0.241
aF0.241
aF0.241
aF0.241
aF0.241
aF0.241
aF0.241
aF0.241
aF0.241
aF0.241
aF0.241
aF0.241
aF0.241
aF0.241
aF0.241
aF0.241
aF0.241
aF0.241
aF0.241
aF0.241
aF0.241
aF0.241
aF0.241
aF0.241
aF0.241
aF0.241
aF0.241
aF0.241
aF0.241
aF0.241
aF0.241
aF0.241
aF0.241
aF0.241
aF0.241
aF0.241
aF0.241
aF0.241
aF0.241
aF0.241
aF0.241
aF0.241
aF0.241
aF0.241
aF0.241
aF0.241
aF0.241
aF0.241
aF0.241
aF0.241
aF0.241
aF0.241
aF0.241
aF0.241
aF0.241
aF0.241
aF0.241
aF0.241
aF0.241
aF0.241
aF0.241
aF0.241
aF0.241
aF0.241
aF0.241
aF0.241
aF0.241
aF0.241
aF0.241
aF0.241
aF0.241
aF0.241
aF0.241
aF0.241
aF0.241
aF0.241
aF0.241
aF0.241
aF0.241
aF0.241
aF0.241
aF0.241
aF0.241
aF0.241
aF0.241
aF0.241
aF0.241
aF0.241
aF0.241
aF0.241
aF0.241
aF0.241
aF0.241
aF0.241
aF0.241
aF0.241
aF0.241
aF0.241
aF0.241
aF0.241
aF0.241
aF0.241
aF0.241
aF0.241
aF0.241
aF0.241
aF0.241
aF0.241
aF0.241
aF0.241
aF0.241
aF0.241
aF0.241
aF0.241
aF0.241
aF0.241
aF0.241
aF0.241
aF0.241
aF0.241
aF0.241
aF0.241
aF0.241
aF0.241
aF0.241
aF0.241
aF0.241
aF0.241
aF0.241
aF0.241
aF0.241
aF0.241
aF0.241
aF0.241
aF0.241
aF0.241
aF0.241
aF0.241
aF0.241
aF0.241
aF0.241
aF0.241
aF0.241
aF0.241
aF0.241
aF0.241
aF0.241
aF0.241
aF0.241
aF0.241
aF0.241
aF0.241
aF0.241
aF0.241
aF0.241
aF0.241
aF0.241
aF0.241
aF0.241
aF0.241
aF0.241
aF0.241
aF0.241
aF0.241
aF0.241
aF0.241
aF0.241
aF0.241
aF0.241
aF0.241
aF0.241
aF0.241
aF0.241
aF0.241
aF0.241
aF0.241
aF0.241
aF0.241
aF0.241
aF0.241
aF0.241
aF0.241
aF0.241
aF0.241
aF0.241
aF0.241
aF0.241
aF0.241
aF0.241
aF0.241
aF0.241
aF0.241
aF0.241
aF0.241
aF0.241
aF0.241
aF0.241
aF0.241
aF0.241
aF0.241
aF0.241
aF0.241
aF0.241
aF0.241
aF0.241
aF0.241
aF0.241
aF0.241
aF0.241
aF0.241
aF0.241
aF0.241
aF0.241
aF0.241
aF0.241
aF0.241
aF0.241
aF0.241
aF0.241
aF0.241
aF0.241
aF0.241
aF0.241
aF0.241
aF0.241
aF0.241
aF0.241
aF0.241
aF0.241
aF0.241
aF0.241
aF0.241
aF0.241
aF0.241
aF0.241
aF0.241
aF0.241
aF0.241
aF0.241
aF0.241
aF0.241
aF0.241
aF0.241
aF0.241
aF0.241
aF0.241
aF0.241
aF0.241
aF0.241
aF0.241
aF0.241
aF0.241
aF0.241
aF0.241
aF0.241
aF0.241
aF0.241
aF0.241
aF0.241
aF0.241
aF0.241
aF0.241
aF0.241
aF0.241
aF0.241
aF0.241
aF0.241
aF0.241
aF0.241
aF0.241
aF0.241
aF0.241
aF0.241
aF0.241
aF0.241
aF0.241
aF0.241
aF0.241
aF0.241
aF0.241
aF0.241
aF0.241
aF0.241
aF0.241
aF0.241
aF0.241
aF0.241
aF0.241
aF0.241
aF0.241
aF0.241
assF0.1
(lp7
F282.979
aF286.254
aF300.193
aF287.167
aF328.162
aF256.884
aF305.745
aF328.869
aF312.75
aF261.811
aF257.538
aF278.262
aF311.688
aF246.367
aF305.284
aF268.731
aF285.25
aF303.555
aF276.378
aF270.884
aF275.496
asF0.05
(lp8
F282.924
aF259.874
aF254.308
aF249.456
aF252.923
aF258.428
aF245.203
aF276.868
aF269.578
aF250.778
aF247.05
aF284.178
aF247.326
aF245.943
aF259.085
aF268.731
aF266.915
aF249.84
aF255.302
aF248.942
aF249.42
asS'time'
p9
F36219.37219405174
sF0.2
(lp10
F387.612
aF391.608
aF403.596
aF400.599
aF436.563
aF392.607
aF407.592
aF319.853
aF437.562
aF359.64
aF386.613
aF367.632
aF311.688
aF348.651
aF411.588
aF268.731
aF433.579
aF403.596
aF367.632
aF373.626
aF378.621
asF0.025
(lp11
F254.876
aF253.244
aF254.308
aF249.456
aF252.597
aF256.133
aF245.203
aF271.784
aF255.586
aF249.357
aF247.05
aF263.161
aF247.326
aF265.52
aF259.027
aF268.731
aF259.889
aF249.592
aF270.638
aF250.934
aF247.194
as.