(dp0
F0.1
(dp1
I0
F0.509
sI1
F0.509
sI2
F0.627
sI3
F0.627
sI4
F0.627
sI5
F0.627
sI6
F0.627
sI7
F0.627
sI8
F0.627
sI9
F0.627
sI10
F0.627
sI11
F0.627
sI12
F0.627
sI13
F0.627
sI14
F0.627
sI15
F0.627
sI16
F0.627
sI17
F0.627
sI18
F0.627
sI19
F0.627
sI20
F0.627
sI21
F0.627
sI22
F0.627
sI23
F0.627
sI24
F0.627
sI25
F0.627
sI26
F0.627
sI27
F0.627
sI28
F0.627
sI29
F0.627
sI30
F0.627
sI31
F0.627
sI32
F0.627
sI33
F0.627
sI34
F0.627
sI35
F0.627
sI36
F0.627
sI37
F0.627
sI38
F0.627
sI39
F0.627
sI40
F0.627
sI41
F0.627
sI42
F0.627
sI43
F0.627
sI44
F0.627
sI45
F0.627
sI46
F0.627
sI47
F0.627
sI48
F0.627
sI49
F0.627
sI50
F0.627
sI51
F0.627
sI52
F0.627
sI53
F0.627
sI54
F0.627
sI55
F0.627
sI56
F0.627
sI57
F0.627
sI58
F0.627
sI59
F0.627
sI60
F0.627
sI61
F0.627
sI62
F0.627
sI63
F0.627
sI64
F0.627
sI65
F0.627
sI66
F0.627
sI67
F0.627
sI68
F0.627
sI69
F0.627
sI70
F0.627
sI71
F0.627
sI72
F0.627
sI73
F0.627
sI74
F0.627
sI75
F0.627
sI76
F0.627
sI77
F0.627
sI78
F0.627
sI79
F0.627
sI80
F0.627
sI81
F0.627
sI82
F0.627
sI83
F0.627
sI84
F0.627
sI85
F0.627
sI86
F0.627
sI87
F0.627
sI88
F0.627
sI89
F0.627
sI90
F0.627
sI91
F0.627
sI92
F0.627
sI93
F0.627
sI94
F0.627
sI95
F0.627
sI96
F0.627
sI97
F0.627
sI98
F0.627
sI99
F0.627
sI100
F0.627
sI101
F0.627
sI102
F0.627
sI103
F0.627
sI104
F0.627
sI105
F0.627
sI106
F0.627
sI107
F0.627
sI108
F0.627
sI109
F0.627
sI110
F0.627
sI111
F0.627
sI112
F0.627
sI113
F0.627
sI114
F0.627
sI115
F0.627
sI116
F0.627
sI117
F0.627
sI118
F0.627
sI119
F0.627
sI120
F0.627
sI121
F0.627
sI122
F0.627
sI123
F0.627
sI124
F0.627
sI125
F0.627
sI126
F0.627
sI127
F0.627
sI128
F0.627
sI129
F0.627
sI130
F0.627
sI131
F0.627
sI132
F0.627
sI133
F0.627
sI134
F0.627
sI135
F0.627
sI136
F0.627
sI137
F0.627
sI138
F0.627
sI139
F0.627
sI140
F0.627
sI141
F0.627
sI142
F0.627
sI143
F0.627
sI144
F0.627
sI145
F0.627
sI146
F0.627
sI147
F0.627
sI148
F0.627
sI149
F0.627
sI150
F0.627
sI151
F0.627
sI152
F0.627
sI153
F0.627
sI154
F0.627
sI155
F0.627
sI156
F0.627
sI157
F0.627
sI158
F0.627
sI159
F0.627
sI160
F0.627
sI161
F0.627
sI162
F0.627
sI163
F0.627
sI164
F0.627
sI165
F0.627
sI166
F0.627
sI167
F0.627
sI168
F0.627
sI169
F0.627
sI170
F0.627
sI171
F0.627
sI172
F0.627
sI173
F0.627
sI174
F0.627
sI175
F0.627
sI176
F0.627
sI177
F0.627
sI178
F0.627
sI179
F0.627
sI180
F0.627
sI181
F0.627
sI182
F0.627
sI183
F0.627
sI184
F0.627
sI185
F0.627
sI186
F0.627
sI187
F0.627
sI188
F0.627
sI189
F0.627
sI190
F0.627
sI191
F0.627
sI192
F0.627
sI193
F0.627
sI194
F0.627
sI195
F0.627
sI196
F0.627
sI197
F0.627
sI198
F0.627
sI199
F0.627
sI200
F0.627
sI201
F0.627
sI202
F0.627
sI203
F0.627
sI204
F0.627
sI205
F0.627
sI206
F0.627
sI207
F0.627
sI208
F0.627
sI209
F0.627
sI210
F0.627
sI211
F0.627
sI212
F0.627
sI213
F0.627
sI214
F0.627
sI215
F0.627
sI216
F0.627
sI217
F0.627
sI218
F0.627
sI219
F0.627
sI220
F0.627
sI221
F0.627
sI222
F0.627
sI223
F0.627
sI224
F0.627
sI225
F0.627
sI226
F0.627
sI227
F0.627
sI228
F0.627
sI229
F0.627
sI230
F0.627
sI231
F0.627
sI232
F0.627
sI233
F0.627
sI234
F0.627
sI235
F0.627
sI236
F0.627
sI237
F0.627
sI238
F0.627
sI239
F0.627
sI240
F0.627
sI241
F0.627
sI242
F0.627
sI243
F0.627
sI244
F0.627
sI245
F0.627
sI246
F0.627
sI247
F0.627
sI248
F0.627
sI249
F0.627
sI250
F0.627
sI251
F0.627
sI252
F0.627
sI253
F0.627
sI254
F0.627
sI255
F0.627
sI256
F0.627
sI257
F0.627
sI258
F0.627
sI259
F0.627
sI260
F0.627
sI261
F0.627
sI262
F0.627
sI263
F0.627
sI264
F0.627
sI265
F0.627
sI266
F0.627
sI267
F0.627
sI268
F0.627
sI269
F0.627
sI270
F0.627
sI271
F0.627
sI272
F0.627
sI273
F0.627
sI274
F0.627
sI275
F0.627
sI276
F0.627
sI277
F0.627
sI278
F0.627
sI279
F0.627
sI280
F0.627
sI281
F0.627
sI282
F0.627
sI283
F0.627
sI284
F0.627
sI285
F0.627
sI286
F0.627
sI287
F0.627
sI288
F0.627
sI289
F0.627
sI290
F0.627
sI291
F0.627
sI292
F0.627
sI293
F0.627
sI294
F0.627
sI295
F0.627
sI296
F0.627
sI297
F0.627
sI298
F0.627
sI299
F0.627
sI300
F0.627
sI301
F0.627
sI302
F0.627
sI303
F0.627
sI304
F0.627
sI305
F0.627
sI306
F0.627
sI307
F0.627
sI308
F0.627
sI309
F0.627
sI310
F0.627
sI311
F0.627
sI312
F0.627
sI313
F0.627
sI314
F0.627
sI315
F0.627
sI316
F0.627
sI317
F0.627
sI318
F0.627
sI319
F0.627
sI320
F0.627
sI321
F0.627
sI322
F0.627
sI323
F0.627
sI324
F0.627
sI325
F0.627
sI326
F0.627
sI327
F0.627
sI328
F0.627
sI329
F0.627
sI330
F0.627
sI331
F0.627
sI332
F0.627
sI333
F0.627
sI334
F0.627
sI335
F0.627
sI336
F0.627
sI337
F0.627
sI338
F0.627
sI339
F0.627
sI340
F0.627
sI341
F0.627
sI342
F0.627
sI343
F0.627
sI344
F0.627
sI345
F0.627
sI346
F0.627
sI347
F0.627
sI348
F0.627
sI349
F0.627
sI350
F0.627
sI351
F0.627
sI352
F0.627
sI353
F0.627
sI354
F0.627
sI355
F0.627
sI356
F0.627
sI357
F0.627
sI358
F0.627
sI359
F0.627
sI360
F0.627
sI361
F0.627
sI362
F0.627
sI363
F0.627
sI364
F0.627
sI365
F0.627
sI366
F0.627
sI367
F0.627
sI368
F0.627
sI369
F0.627
sI370
F0.627
sI371
F0.627
sI372
F0.627
sI373
F0.627
sI374
F0.627
sI375
F0.627
sI376
F0.627
sI377
F0.627
sI378
F0.627
sI379
F0.627
sI380
F0.627
sI381
F0.627
sI382
F0.627
sI383
F0.627
sI384
F0.627
sI385
F0.627
sI386
F0.627
sI387
F0.627
sI388
F0.627
sI389
F0.627
sI390
F0.627
sI391
F0.627
sI392
F0.627
sI393
F0.627
sI394
F0.627
sI395
F0.627
sI396
F0.627
sI397
F0.627
sI398
F0.627
sI399
F0.627
sI400
F0.627
sI401
F0.627
sI402
F0.627
sI403
F0.627
sI404
F0.627
sI405
F0.627
sI406
F0.627
sI407
F0.627
sI408
F0.627
sI409
F0.627
sI410
F0.627
sI411
F0.627
sI412
F0.627
sI413
F0.627
sI414
F0.627
sI415
F0.627
sI416
F0.627
sI417
F0.627
sI418
F0.627
sI419
F0.627
sI420
F0.627
sI421
F0.627
sI422
F0.627
sI423
F0.627
sI424
F0.627
sI425
F0.627
sI426
F0.627
sI427
F0.627
sI428
F0.627
sI429
F0.627
sI430
F0.627
sI431
F0.627
sI432
F0.627
sI433
F0.627
sI434
F0.627
sI435
F0.627
sI436
F0.627
sI437
F0.627
sI438
F0.627
sI439
F0.627
sI440
F0.627
sI441
F0.627
sI442
F0.627
sI443
F0.627
sI444
F0.627
sI445
F0.627
sI446
F0.627
sI447
F0.627
sI448
F0.627
sI449
F0.627
sI450
F0.627
sI451
F0.627
sI452
F0.627
sI453
F0.627
sI454
F0.627
sI455
F0.627
sI456
F0.627
sI457
F0.627
sI458
F0.627
sI459
F0.627
sI460
F0.627
sI461
F0.627
sI462
F0.627
sI463
F0.627
sI464
F0.627
sI465
F0.627
sI466
F0.627
sI467
F0.627
sI468
F0.627
sI469
F0.627
sI470
F0.627
sI471
F0.627
sI472
F0.627
sI473
F0.627
sI474
F0.627
sI475
F0.627
sI476
F0.627
sI477
F0.627
sI478
F0.627
sI479
F0.627
sI480
F0.627
sI481
F0.627
sI482
F0.627
sI483
F0.627
sI484
F0.627
sI485
F0.627
sI486
F0.627
sI487
F0.627
sI488
F0.627
sI489
F0.627
sI490
F0.627
sI491
F0.627
sI492
F0.627
sI493
F0.627
sI494
F0.627
sI495
F0.627
sI496
F0.627
sI497
F0.627
sI498
F0.627
sI499
F0.627
sI500
F0.627
sI501
F0.627
sI502
F0.627
sI503
F0.627
sI504
F0.627
sI505
F0.627
sI506
F0.627
sI507
F0.627
sI508
F0.627
sI509
F0.627
sI510
F0.627
sI511
F0.627
sI512
F0.627
sI513
F0.627
sI514
F0.627
sI515
F0.627
sI516
F0.627
sI517
F0.627
sI518
F0.627
sI519
F0.627
sI520
F0.627
sI521
F0.627
sI522
F0.627
sI523
F0.627
sI524
F0.627
sI525
F0.627
sI526
F0.627
sI527
F0.627
sI528
F0.627
sI529
F0.627
sI530
F0.627
sI531
F0.627
sI532
F0.627
sI533
F0.627
sI534
F0.627
sI535
F0.627
sI536
F0.627
sI537
F0.627
sI538
F0.627
sI539
F0.627
sI540
F0.627
sI541
F0.627
sI542
F0.627
sI543
F0.627
sI544
F0.627
sI545
F0.627
sI546
F0.627
sI547
F0.627
sI548
F0.627
sI549
F0.627
sI550
F0.627
sI551
F0.627
sI552
F0.627
sI553
F0.627
sI554
F0.627
sI555
F0.627
sI556
F0.627
sI557
F0.627
sI558
F0.627
sI559
F0.627
sI560
F0.627
sI561
F0.627
sI562
F0.627
sI563
F0.627
sI564
F0.627
sI565
F0.627
sI566
F0.627
sI567
F0.627
sI568
F0.627
sI569
F0.627
sI570
F0.627
sI571
F0.627
sI572
F0.627
sI573
F0.627
sI574
F0.627
sI575
F0.627
sI576
F0.627
sI577
F0.627
sI578
F0.627
sI579
F0.627
sI580
F0.627
sI581
F0.627
sI582
F0.627
sI583
F0.627
sI584
F0.627
sI585
F0.627
sI586
F0.627
sI587
F0.627
sI588
F0.627
sI589
F0.627
sI590
F0.627
sI591
F0.627
sI592
F0.627
sI593
F0.627
sI594
F0.627
sI595
F0.627
sI596
F0.627
sI597
F0.627
sI598
F0.627
sI599
F0.627
sI600
F0.627
sI601
F0.627
sI602
F0.627
sI603
F0.627
sI604
F0.627
sI605
F0.627
sI606
F0.627
sI607
F0.627
sI608
F0.627
sI609
F0.627
sI610
F0.627
sI611
F0.627
sI612
F0.627
sI613
F0.627
sI614
F0.627
sI615
F0.627
sI616
F0.627
sI617
F0.627
sI618
F0.627
sI619
F0.627
sI620
F0.627
sI621
F0.627
sI622
F0.627
sI623
F0.627
sI624
F0.627
sI625
F0.627
sI626
F0.627
sI627
F0.627
sI628
F0.627
sI629
F0.627
sI630
F0.627
sI631
F0.627
sI632
F0.627
sI633
F0.627
sI634
F0.627
sI635
F0.627
sI636
F0.627
sI637
F0.627
sI638
F0.627
sI639
F0.627
sI640
F0.627
sI641
F0.627
sI642
F0.627
sI643
F0.627
sI644
F0.627
sI645
F0.627
sI646
F0.627
sI647
F0.627
sI648
F0.627
sI649
F0.627
sI650
F0.627
sI651
F0.627
sI652
F0.627
sI653
F0.627
sI654
F0.627
sI655
F0.627
sI656
F0.627
sI657
F0.627
sI658
F0.627
sI659
F0.627
sI660
F0.627
sI661
F0.627
sI662
F0.627
sI663
F0.627
sI664
F0.627
sI665
F0.627
sI666
F0.627
sI667
F0.627
sI668
F0.627
sI669
F0.627
sI670
F0.627
sI671
F0.627
sI672
F0.627
sI673
F0.627
sI674
F0.627
sI675
F0.627
sI676
F0.627
sI677
F0.627
sI678
F0.627
sI679
F0.627
sI680
F0.627
sI681
F0.627
sI682
F0.627
sI683
F0.627
sI684
F0.627
sI685
F0.627
sI686
F0.627
sI687
F0.627
sI688
F0.627
sI689
F0.627
sI690
F0.627
sI691
F0.627
sI692
F0.627
sI693
F0.627
sI694
F0.627
sI695
F0.627
sI696
F0.627
sI697
F0.627
sI698
F0.627
sI699
F0.627
sI700
F0.627
sI701
F0.627
sI702
F0.627
sI703
F0.627
sI704
F0.627
sI705
F0.627
sI706
F0.627
sI707
F0.627
sI708
F0.627
sI709
F0.627
sI710
F0.627
sI711
F0.627
sI712
F0.627
sI713
F0.627
sI714
F0.627
sI715
F0.627
sI716
F0.627
sI717
F0.627
sI718
F0.627
sI719
F0.627
sI720
F0.627
sI721
F0.627
sI722
F0.627
sI723
F0.627
sI724
F0.627
sI725
F0.627
sI726
F0.627
sI727
F0.627
sI728
F0.627
sI729
F0.627
sI730
F0.627
sI731
F0.627
sI732
F0.627
sI733
F0.627
sI734
F0.627
sI735
F0.627
sI736
F0.627
sI737
F0.627
sI738
F0.627
sI739
F0.627
sI740
F0.627
sI741
F0.627
sI742
F0.627
sI743
F0.627
sI744
F0.627
sI745
F0.627
sI746
F0.627
sI747
F0.627
sI748
F0.627
sI749
F0.627
sI750
F0.627
sI751
F0.627
sI752
F0.627
sI753
F0.627
sI754
F0.627
sI755
F0.627
sI756
F0.627
sI757
F0.627
sI758
F0.627
sI759
F0.627
sI760
F0.627
sI761
F0.627
sI762
F0.627
sI763
F0.627
sI764
F0.627
sI765
F0.627
sI766
F0.627
sI767
F0.627
sI768
F0.627
sI769
F0.627
sI770
F0.627
sI771
F0.627
sI772
F0.627
sI773
F0.627
sI774
F0.627
sI775
F0.627
sI776
F0.627
sI777
F0.627
sI778
F0.627
sI779
F0.627
sI780
F0.627
sI781
F0.627
sI782
F0.627
sI783
F0.627
sI784
F0.627
sI785
F0.627
sI786
F0.627
sI787
F0.627
sI788
F0.627
sI789
F0.627
sI790
F0.627
sI791
F0.627
sI792
F0.627
sI793
F0.627
sI794
F0.627
sI795
F0.627
sI796
F0.627
sI797
F0.627
sI798
F0.627
sI799
F0.627
sI800
F0.627
sI801
F0.627
sI802
F0.627
sI803
F0.627
sI804
F0.627
sI805
F0.627
sI806
F0.627
sI807
F0.627
sI808
F0.627
sI809
F0.627
sI810
F0.627
sI811
F0.627
sI812
F0.627
sI813
F0.627
sI814
F0.627
sI815
F0.627
sI816
F0.627
sI817
F0.627
sI818
F0.627
sI819
F0.627
sI820
F0.627
sI821
F0.627
sI822
F0.627
sI823
F0.627
sI824
F0.627
sI825
F0.627
sI826
F0.627
sI827
F0.627
sI828
F0.627
sI829
F0.627
sI830
F0.627
sI831
F0.627
sI832
F0.627
sI833
F0.627
sI834
F0.627
sI835
F0.627
sI836
F0.627
sI837
F0.627
sI838
F0.627
sI839
F0.627
sI840
F0.627
sI841
F0.627
sI842
F0.627
sI843
F0.627
sI844
F0.627
sI845
F0.627
sI846
F0.627
sI847
F0.627
sI848
F0.627
sI849
F0.627
sI850
F0.627
sI851
F0.627
sI852
F0.627
sI853
F0.627
sI854
F0.627
sI855
F0.627
sI856
F0.627
sI857
F0.627
sI858
F0.627
sI859
F0.627
sI860
F0.627
sI861
F0.627
sI862
F0.627
sI863
F0.627
sI864
F0.627
sI865
F0.627
sI866
F0.627
sI867
F0.627
sI868
F0.627
sI869
F0.627
sI870
F0.627
sI871
F0.627
sI872
F0.627
sI873
F0.627
sI874
F0.627
sI875
F0.627
sI876
F0.627
sI877
F0.627
sI878
F0.627
sI879
F0.627
sI880
F0.627
sI881
F0.627
sI882
F0.627
sI883
F0.627
sI884
F0.627
sI885
F0.627
sI886
F0.627
sI887
F0.627
sI888
F0.627
sI889
F0.627
sI890
F0.627
sI891
F0.627
sI892
F0.627
sI893
F0.627
sI894
F0.627
sI895
F0.627
sI896
F0.627
sI897
F0.627
sI898
F0.627
sI899
F0.627
sI900
F0.627
sI901
F0.627
sI902
F0.627
sI903
F0.627
sI904
F0.627
sI905
F0.627
sI906
F0.627
sI907
F0.627
sI908
F0.627
sI909
F0.627
sI910
F0.627
sI911
F0.627
sI912
F0.627
sI913
F0.627
sI914
F0.627
sI915
F0.627
sI916
F0.627
sI917
F0.627
sI918
F0.627
sI919
F0.627
sI920
F0.627
sI921
F0.627
sI922
F0.627
sI923
F0.627
sI924
F0.627
sI925
F0.627
sI926
F0.627
sI927
F0.627
sI928
F0.627
sI929
F0.627
sI930
F0.627
sI931
F0.627
sI932
F0.627
sI933
F0.627
sI934
F0.627
sI935
F0.627
sI936
F0.627
sI937
F0.627
sI938
F0.627
sI939
F0.627
sI940
F0.627
sI941
F0.627
sI942
F0.627
sI943
F0.627
sI944
F0.627
sI945
F0.627
sI946
F0.627
sI947
F0.627
sI948
F0.627
sI949
F0.627
sI950
F0.627
sI951
F0.627
sI952
F0.627
sI953
F0.627
sI954
F0.627
sI955
F0.627
sI956
F0.627
sI957
F0.627
sI958
F0.627
sI959
F0.627
sI960
F0.627
sI961
F0.627
sI962
F0.627
sI963
F0.627
sI964
F0.627
sI965
F0.627
sI966
F0.627
sI967
F0.627
sI968
F0.627
sI969
F0.627
sI970
F0.627
sI971
F0.627
sI972
F0.627
sI973
F0.627
sI974
F0.627
sI975
F0.627
sI976
F0.627
sI977
F0.627
sI978
F0.627
sI979
F0.627
sI980
F0.627
sI981
F0.627
sI982
F0.627
sI983
F0.627
sI984
F0.627
sI985
F0.627
sI986
F0.627
sI987
F0.627
sI988
F0.627
sI989
F0.627
sI990
F0.627
sI991
F0.627
sI992
F0.627
sI993
F0.627
sI994
F0.627
sI995
F0.627
sI996
F0.627
sI997
F0.627
sI998
F0.627
sI999
F0.627
ssF0.2
(dp2
I0
F0.461
sI1
F0.461
sI2
F0.461
sI3
F0.461
sI4
F0.461
sI5
F0.461
sI6
F0.461
sI7
F0.461
sI8
F0.461
sI9
F0.461
sI10
F0.461
sI11
F0.461
sI12
F0.461
sI13
F0.461
sI14
F0.461
sI15
F0.461
sI16
F0.461
sI17
F0.461
sI18
F0.461
sI19
F0.461
sI20
F0.461
sI21
F0.461
sI22
F0.461
sI23
F0.461
sI24
F0.461
sI25
F0.461
sI26
F0.461
sI27
F0.461
sI28
F0.461
sI29
F0.461
sI30
F0.461
sI31
F0.461
sI32
F0.461
sI33
F0.461
sI34
F0.461
sI35
F0.461
sI36
F0.461
sI37
F0.461
sI38
F0.461
sI39
F0.461
sI40
F0.461
sI41
F0.461
sI42
F0.461
sI43
F0.461
sI44
F0.461
sI45
F0.461
sI46
F0.461
sI47
F0.461
sI48
F0.461
sI49
F0.461
sI50
F0.461
sI51
F0.461
sI52
F0.461
sI53
F0.461
sI54
F0.461
sI55
F0.461
sI56
F0.461
sI57
F0.461
sI58
F0.461
sI59
F0.461
sI60
F0.461
sI61
F0.461
sI62
F0.461
sI63
F0.461
sI64
F0.461
sI65
F0.461
sI66
F0.461
sI67
F0.461
sI68
F0.461
sI69
F0.461
sI70
F0.461
sI71
F0.461
sI72
F0.461
sI73
F0.461
sI74
F0.461
sI75
F0.461
sI76
F0.461
sI77
F0.461
sI78
F0.461
sI79
F0.461
sI80
F0.461
sI81
F0.461
sI82
F0.461
sI83
F0.461
sI84
F0.461
sI85
F0.461
sI86
F0.461
sI87
F0.461
sI88
F0.461
sI89
F0.461
sI90
F0.461
sI91
F0.461
sI92
F0.461
sI93
F0.461
sI94
F0.461
sI95
F0.461
sI96
F0.461
sI97
F0.461
sI98
F0.461
sI99
F0.461
sI100
F0.461
sI101
F0.461
sI102
F0.461
sI103
F0.461
sI104
F0.461
sI105
F0.461
sI106
F0.461
sI107
F0.461
sI108
F0.461
sI109
F0.461
sI110
F0.461
sI111
F0.461
sI112
F0.461
sI113
F0.461
sI114
F0.461
sI115
F0.461
sI116
F0.461
sI117
F0.461
sI118
F0.461
sI119
F0.461
sI120
F0.461
sI121
F0.461
sI122
F0.461
sI123
F0.461
sI124
F0.461
sI125
F0.461
sI126
F0.461
sI127
F0.461
sI128
F0.461
sI129
F0.461
sI130
F0.461
sI131
F0.461
sI132
F0.461
sI133
F0.461
sI134
F0.461
sI135
F0.461
sI136
F0.461
sI137
F0.461
sI138
F0.461
sI139
F0.461
sI140
F0.461
sI141
F0.461
sI142
F0.461
sI143
F0.461
sI144
F0.461
sI145
F0.461
sI146
F0.461
sI147
F0.461
sI148
F0.461
sI149
F0.461
sI150
F0.461
sI151
F0.461
sI152
F0.461
sI153
F0.461
sI154
F0.461
sI155
F0.461
sI156
F0.461
sI157
F0.461
sI158
F0.461
sI159
F0.461
sI160
F0.461
sI161
F0.461
sI162
F0.461
sI163
F0.461
sI164
F0.461
sI165
F0.461
sI166
F0.461
sI167
F0.461
sI168
F0.461
sI169
F0.461
sI170
F0.461
sI171
F0.461
sI172
F0.461
sI173
F0.461
sI174
F0.461
sI175
F0.461
sI176
F0.461
sI177
F0.461
sI178
F0.461
sI179
F0.461
sI180
F0.461
sI181
F0.461
sI182
F0.461
sI183
F0.461
sI184
F0.461
sI185
F0.461
sI186
F0.461
sI187
F0.461
sI188
F0.461
sI189
F0.461
sI190
F0.664
sI191
F0.664
sI192
F0.664
sI193
F0.664
sI194
F0.664
sI195
F0.664
sI196
F0.664
sI197
F0.664
sI198
F0.664
sI199
F0.664
sI200
F0.664
sI201
F0.664
sI202
F0.664
sI203
F0.664
sI204
F0.664
sI205
F0.664
sI206
F0.664
sI207
F0.664
sI208
F0.664
sI209
F0.664
sI210
F0.664
sI211
F0.664
sI212
F0.664
sI213
F0.664
sI214
F0.664
sI215
F0.664
sI216
F0.664
sI217
F0.664
sI218
F0.664
sI219
F0.664
sI220
F0.664
sI221
F0.664
sI222
F0.664
sI223
F0.664
sI224
F0.664
sI225
F0.664
sI226
F0.664
sI227
F0.664
sI228
F0.664
sI229
F0.664
sI230
F0.664
sI231
F0.664
sI232
F0.664
sI233
F0.664
sI234
F0.664
sI235
F0.664
sI236
F0.664
sI237
F0.664
sI238
F0.664
sI239
F0.664
sI240
F0.664
sI241
F0.664
sI242
F0.664
sI243
F0.664
sI244
F0.664
sI245
F0.664
sI246
F0.664
sI247
F0.664
sI248
F0.664
sI249
F0.664
sI250
F0.664
sI251
F0.664
sI252
F0.664
sI253
F0.664
sI254
F0.664
sI255
F0.664
sI256
F0.664
sI257
F0.664
sI258
F0.664
sI259
F0.664
sI260
F0.664
sI261
F0.664
sI262
F0.664
sI263
F0.664
sI264
F0.664
sI265
F0.664
sI266
F0.664
sI267
F0.664
sI268
F0.664
sI269
F0.664
sI270
F0.664
sI271
F0.664
sI272
F0.664
sI273
F0.664
sI274
F0.664
sI275
F0.664
sI276
F0.664
sI277
F0.664
sI278
F0.664
sI279
F0.664
sI280
F0.664
sI281
F0.664
sI282
F0.664
sI283
F0.664
sI284
F0.664
sI285
F0.664
sI286
F0.664
sI287
F0.664
sI288
F0.664
sI289
F0.664
sI290
F0.664
sI291
F0.664
sI292
F0.664
sI293
F0.664
sI294
F0.664
sI295
F0.664
sI296
F0.664
sI297
F0.664
sI298
F0.664
sI299
F0.664
sI300
F0.664
sI301
F0.664
sI302
F0.664
sI303
F0.664
sI304
F0.664
sI305
F0.664
sI306
F0.664
sI307
F0.664
sI308
F0.664
sI309
F0.664
sI310
F0.664
sI311
F0.664
sI312
F0.664
sI313
F0.664
sI314
F0.664
sI315
F0.664
sI316
F0.664
sI317
F0.664
sI318
F0.664
sI319
F0.664
sI320
F0.664
sI321
F0.664
sI322
F0.664
sI323
F0.664
sI324
F0.664
sI325
F0.664
sI326
F0.664
sI327
F0.664
sI328
F0.664
sI329
F0.664
sI330
F0.664
sI331
F0.664
sI332
F0.664
sI333
F0.664
sI334
F0.664
sI335
F0.664
sI336
F0.664
sI337
F0.664
sI338
F0.664
sI339
F0.664
sI340
F0.664
sI341
F0.664
sI342
F0.664
sI343
F0.664
sI344
F0.664
sI345
F0.664
sI346
F0.664
sI347
F0.664
sI348
F0.664
sI349
F0.664
sI350
F0.664
sI351
F0.664
sI352
F0.664
sI353
F0.664
sI354
F0.664
sI355
F0.664
sI356
F0.664
sI357
F0.664
sI358
F0.664
sI359
F0.664
sI360
F0.664
sI361
F0.664
sI362
F0.664
sI363
F0.664
sI364
F0.664
sI365
F0.664
sI366
F0.664
sI367
F0.664
sI368
F0.664
sI369
F0.664
sI370
F0.664
sI371
F0.664
sI372
F0.664
sI373
F0.664
sI374
F0.664
sI375
F0.664
sI376
F0.664
sI377
F0.664
sI378
F0.664
sI379
F0.664
sI380
F0.664
sI381
F0.664
sI382
F0.664
sI383
F0.664
sI384
F0.664
sI385
F0.664
sI386
F0.664
sI387
F0.664
sI388
F0.664
sI389
F0.664
sI390
F0.664
sI391
F0.664
sI392
F0.664
sI393
F0.664
sI394
F0.664
sI395
F0.664
sI396
F0.664
sI397
F0.664
sI398
F0.664
sI399
F0.664
sI400
F0.664
sI401
F0.664
sI402
F0.664
sI403
F0.664
sI404
F0.664
sI405
F0.664
sI406
F0.664
sI407
F0.664
sI408
F0.664
sI409
F0.664
sI410
F0.664
sI411
F0.664
sI412
F0.664
sI413
F0.664
sI414
F0.664
sI415
F0.664
sI416
F0.664
sI417
F0.664
sI418
F0.664
sI419
F0.664
sI420
F0.664
sI421
F0.664
sI422
F0.664
sI423
F0.664
sI424
F0.664
sI425
F0.664
sI426
F0.664
sI427
F0.664
sI428
F0.664
sI429
F0.664
sI430
F0.664
sI431
F0.664
sI432
F0.664
sI433
F0.664
sI434
F0.664
sI435
F0.664
sI436
F0.664
sI437
F0.664
sI438
F0.664
sI439
F0.664
sI440
F0.664
sI441
F0.664
sI442
F0.664
sI443
F0.664
sI444
F0.664
sI445
F0.664
sI446
F0.664
sI447
F0.664
sI448
F0.664
sI449
F0.664
sI450
F0.664
sI451
F0.664
sI452
F0.664
sI453
F0.664
sI454
F0.664
sI455
F0.664
sI456
F0.664
sI457
F0.664
sI458
F0.664
sI459
F0.664
sI460
F0.664
sI461
F0.664
sI462
F0.664
sI463
F0.664
sI464
F0.664
sI465
F0.664
sI466
F0.664
sI467
F0.664
sI468
F0.664
sI469
F0.664
sI470
F0.664
sI471
F0.664
sI472
F0.664
sI473
F0.664
sI474
F0.664
sI475
F0.664
sI476
F0.664
sI477
F0.664
sI478
F0.664
sI479
F0.664
sI480
F0.664
sI481
F0.664
sI482
F0.664
sI483
F0.664
sI484
F0.664
sI485
F0.664
sI486
F0.664
sI487
F0.664
sI488
F0.664
sI489
F0.664
sI490
F0.664
sI491
F0.664
sI492
F0.664
sI493
F0.664
sI494
F0.664
sI495
F0.664
sI496
F0.664
sI497
F0.664
sI498
F0.664
sI499
F0.664
sI500
F0.664
sI501
F0.664
sI502
F0.664
sI503
F0.664
sI504
F0.664
sI505
F0.664
sI506
F0.664
sI507
F0.664
sI508
F0.664
sI509
F0.664
sI510
F0.664
sI511
F0.664
sI512
F0.664
sI513
F0.664
sI514
F0.664
sI515
F0.664
sI516
F0.664
sI517
F0.664
sI518
F0.664
sI519
F0.664
sI520
F0.664
sI521
F0.664
sI522
F0.664
sI523
F0.664
sI524
F0.664
sI525
F0.664
sI526
F0.664
sI527
F0.664
sI528
F0.664
sI529
F0.664
sI530
F0.664
sI531
F0.664
sI532
F0.664
sI533
F0.664
sI534
F0.664
sI535
F0.664
sI536
F0.664
sI537
F0.664
sI538
F0.664
sI539
F0.664
sI540
F0.664
sI541
F0.664
sI542
F0.664
sI543
F0.664
sI544
F0.664
sI545
F0.664
sI546
F0.664
sI547
F0.664
sI548
F0.664
sI549
F0.664
sI550
F0.664
sI551
F0.664
sI552
F0.664
sI553
F0.664
sI554
F0.664
sI555
F0.664
sI556
F0.664
sI557
F0.664
sI558
F0.664
sI559
F0.664
sI560
F0.664
sI561
F0.664
sI562
F0.664
sI563
F0.664
sI564
F0.664
sI565
F0.664
sI566
F0.664
sI567
F0.664
sI568
F0.664
sI569
F0.664
sI570
F0.664
sI571
F0.664
sI572
F0.664
sI573
F0.664
sI574
F0.664
sI575
F0.664
sI576
F0.664
sI577
F0.664
sI578
F0.664
sI579
F0.664
sI580
F0.664
sI581
F0.664
sI582
F0.664
sI583
F0.664
sI584
F0.664
sI585
F0.664
sI586
F0.664
sI587
F0.664
sI588
F0.664
sI589
F0.664
sI590
F0.664
sI591
F0.664
sI592
F0.664
sI593
F0.664
sI594
F0.664
sI595
F0.664
sI596
F0.664
sI597
F0.664
sI598
F0.664
sI599
F0.664
sI600
F0.664
sI601
F0.664
sI602
F0.664
sI603
F0.664
sI604
F0.664
sI605
F0.664
sI606
F0.664
sI607
F0.664
sI608
F0.664
sI609
F0.664
sI610
F0.664
sI611
F0.664
sI612
F0.664
sI613
F0.664
sI614
F0.664
sI615
F0.664
sI616
F0.664
sI617
F0.664
sI618
F0.664
sI619
F0.664
sI620
F0.664
sI621
F0.664
sI622
F0.664
sI623
F0.664
sI624
F0.664
sI625
F0.664
sI626
F0.664
sI627
F0.664
sI628
F0.664
sI629
F0.664
sI630
F0.664
sI631
F0.664
sI632
F0.664
sI633
F0.664
sI634
F0.664
sI635
F0.664
sI636
F0.664
sI637
F0.664
sI638
F0.664
sI639
F0.664
sI640
F0.664
sI641
F0.664
sI642
F0.664
sI643
F0.664
sI644
F0.664
sI645
F0.664
sI646
F0.664
sI647
F0.664
sI648
F0.664
sI649
F0.664
sI650
F0.664
sI651
F0.664
sI652
F0.664
sI653
F0.664
sI654
F0.664
sI655
F0.664
sI656
F0.664
sI657
F0.664
sI658
F0.664
sI659
F0.664
sI660
F0.664
sI661
F0.664
sI662
F0.664
sI663
F0.664
sI664
F0.664
sI665
F0.664
sI666
F0.664
sI667
F0.664
sI668
F0.664
sI669
F0.664
sI670
F0.664
sI671
F0.664
sI672
F0.664
sI673
F0.664
sI674
F0.664
sI675
F0.664
sI676
F0.664
sI677
F0.664
sI678
F0.664
sI679
F0.664
sI680
F0.664
sI681
F0.664
sI682
F0.664
sI683
F0.664
sI684
F0.664
sI685
F0.664
sI686
F0.664
sI687
F0.664
sI688
F0.664
sI689
F0.664
sI690
F0.664
sI691
F0.664
sI692
F0.664
sI693
F0.664
sI694
F0.664
sI695
F0.664
sI696
F0.664
sI697
F0.664
sI698
F0.664
sI699
F0.664
sI700
F0.664
sI701
F0.664
sI702
F0.664
sI703
F0.664
sI704
F0.664
sI705
F0.664
sI706
F0.664
sI707
F0.664
sI708
F0.664
sI709
F0.664
sI710
F0.664
sI711
F0.664
sI712
F0.664
sI713
F0.664
sI714
F0.664
sI715
F0.664
sI716
F0.664
sI717
F0.664
sI718
F0.664
sI719
F0.664
sI720
F0.664
sI721
F0.664
sI722
F0.664
sI723
F0.664
sI724
F0.664
sI725
F0.664
sI726
F0.664
sI727
F0.664
sI728
F0.664
sI729
F0.664
sI730
F0.664
sI731
F0.664
sI732
F0.664
sI733
F0.664
sI734
F0.664
sI735
F0.664
sI736
F0.664
sI737
F0.664
sI738
F0.664
sI739
F0.664
sI740
F0.664
sI741
F0.664
sI742
F0.664
sI743
F0.664
sI744
F0.664
sI745
F0.664
sI746
F0.664
sI747
F0.664
sI748
F0.664
sI749
F0.664
sI750
F0.664
sI751
F0.664
sI752
F0.664
sI753
F0.664
sI754
F0.664
sI755
F0.664
sI756
F0.664
sI757
F0.664
sI758
F0.664
sI759
F0.664
sI760
F0.664
sI761
F0.664
sI762
F0.664
sI763
F0.664
sI764
F0.664
sI765
F0.664
sI766
F0.664
sI767
F0.664
sI768
F0.664
sI769
F0.664
sI770
F0.664
sI771
F0.664
sI772
F0.664
sI773
F0.664
sI774
F0.664
sI775
F0.664
sI776
F0.664
sI777
F0.664
sI778
F0.664
sI779
F0.664
sI780
F0.664
sI781
F0.664
sI782
F0.664
sI783
F0.664
sI784
F0.664
sI785
F0.664
sI786
F0.664
sI787
F0.664
sI788
F0.664
sI789
F0.664
sI790
F0.664
sI791
F0.664
sI792
F0.664
sI793
F0.664
sI794
F0.664
sI795
F0.664
sI796
F0.664
sI797
F0.664
sI798
F0.664
sI799
F0.664
sI800
F0.664
sI801
F0.664
sI802
F0.664
sI803
F0.664
sI804
F0.664
sI805
F0.664
sI806
F0.664
sI807
F0.664
sI808
F0.664
sI809
F0.664
sI810
F0.664
sI811
F0.664
sI812
F0.664
sI813
F0.664
sI814
F0.664
sI815
F0.664
sI816
F0.664
sI817
F0.664
sI818
F0.664
sI819
F0.664
sI820
F0.664
sI821
F0.664
sI822
F0.664
sI823
F0.664
sI824
F0.664
sI825
F0.664
sI826
F0.664
sI827
F0.664
sI828
F0.664
sI829
F0.664
sI830
F0.664
sI831
F0.664
sI832
F0.664
sI833
F0.664
sI834
F0.664
sI835
F0.664
sI836
F0.664
sI837
F0.664
sI838
F0.664
sI839
F0.664
sI840
F0.664
sI841
F0.664
sI842
F0.664
sI843
F0.664
sI844
F0.664
sI845
F0.664
sI846
F0.664
sI847
F0.664
sI848
F0.664
sI849
F0.664
sI850
F0.664
sI851
F0.664
sI852
F0.664
sI853
F0.664
sI854
F0.664
sI855
F0.664
sI856
F0.664
sI857
F0.664
sI858
F0.664
sI859
F0.664
sI860
F0.664
sI861
F0.664
sI862
F0.664
sI863
F0.664
sI864
F0.664
sI865
F0.664
sI866
F0.664
sI867
F0.664
sI868
F0.664
sI869
F0.664
sI870
F0.664
sI871
F0.664
sI872
F0.664
sI873
F0.664
sI874
F0.664
sI875
F0.664
sI876
F0.664
sI877
F0.664
sI878
F0.664
sI879
F0.664
sI880
F0.664
sI881
F0.664
sI882
F0.664
sI883
F0.664
sI884
F0.664
sI885
F0.664
sI886
F0.664
sI887
F0.664
sI888
F0.664
sI889
F0.664
sI890
F0.664
sI891
F0.664
sI892
F0.664
sI893
F0.664
sI894
F0.664
sI895
F0.664
sI896
F0.664
sI897
F0.664
sI898
F0.664
sI899
F0.664
sI900
F0.664
sI901
F0.664
sI902
F0.664
sI903
F0.664
sI904
F0.664
sI905
F0.664
sI906
F0.664
sI907
F0.664
sI908
F0.664
sI909
F0.664
sI910
F0.664
sI911
F0.664
sI912
F0.664
sI913
F0.664
sI914
F0.664
sI915
F0.664
sI916
F0.664
sI917
F0.664
sI918
F0.664
sI919
F0.664
sI920
F0.664
sI921
F0.664
sI922
F0.664
sI923
F0.664
sI924
F0.664
sI925
F0.664
sI926
F0.664
sI927
F0.664
sI928
F0.664
sI929
F0.664
sI930
F0.664
sI931
F0.664
sI932
F0.664
sI933
F0.664
sI934
F0.664
sI935
F0.664
sI936
F0.664
sI937
F0.664
sI938
F0.664
sI939
F0.664
sI940
F0.664
sI941
F0.664
sI942
F0.664
sI943
F0.664
sI944
F0.664
sI945
F0.664
sI946
F0.664
sI947
F0.664
sI948
F0.664
sI949
F0.664
sI950
F0.664
sI951
F0.664
sI952
F0.664
sI953
F0.664
sI954
F0.664
sI955
F0.664
sI956
F0.664
sI957
F0.664
sI958
F0.664
sI959
F0.664
sI960
F0.664
sI961
F0.664
sI962
F0.664
sI963
F0.664
sI964
F0.664
sI965
F0.664
sI966
F0.664
sI967
F0.664
sI968
F0.664
sI969
F0.664
sI970
F0.664
sI971
F0.664
sI972
F0.664
sI973
F0.664
sI974
F0.664
sI975
F0.664
sI976
F0.664
sI977
F0.664
sI978
F0.664
sI979
F0.664
sI980
F0.664
sI981
F0.664
sI982
F0.664
sI983
F0.664
sI984
F0.664
sI985
F0.664
sI986
F0.664
sI987
F0.664
sI988
F0.664
sI989
F0.664
sI990
F0.664
sI991
F0.664
sI992
F0.664
sI993
F0.664
sI994
F0.664
sI995
F0.664
sI996
F0.664
sI997
F0.664
sI998
F0.664
sI999
F0.664
ssF0.05
(dp3
I0
F0.477
sI1
F0.477
sI2
F0.567
sI3
F0.567
sI4
F0.567
sI5
F0.567
sI6
F0.567
sI7
F0.567
sI8
F0.567
sI9
F0.567
sI10
F0.567
sI11
F0.567
sI12
F0.567
sI13
F0.567
sI14
F0.567
sI15
F0.567
sI16
F0.567
sI17
F0.567
sI18
F0.567
sI19
F0.567
sI20
F0.567
sI21
F0.567
sI22
F0.567
sI23
F0.567
sI24
F0.567
sI25
F0.567
sI26
F0.567
sI27
F0.567
sI28
F0.567
sI29
F0.567
sI30
F0.567
sI31
F0.567
sI32
F0.567
sI33
F0.567
sI34
F0.567
sI35
F0.567
sI36
F0.567
sI37
F0.567
sI38
F0.567
sI39
F0.567
sI40
F0.567
sI41
F0.567
sI42
F0.567
sI43
F0.567
sI44
F0.567
sI45
F0.567
sI46
F0.567
sI47
F0.567
sI48
F0.567
sI49
F0.567
sI50
F0.567
sI51
F0.567
sI52
F0.567
sI53
F0.567
sI54
F0.567
sI55
F0.567
sI56
F0.567
sI57
F0.567
sI58
F0.567
sI59
F0.567
sI60
F0.567
sI61
F0.567
sI62
F0.567
sI63
F0.567
sI64
F0.567
sI65
F0.567
sI66
F0.567
sI67
F0.567
sI68
F0.567
sI69
F0.567
sI70
F0.567
sI71
F0.567
sI72
F0.567
sI73
F0.567
sI74
F0.567
sI75
F0.567
sI76
F0.567
sI77
F0.567
sI78
F0.567
sI79
F0.567
sI80
F0.567
sI81
F0.567
sI82
F0.567
sI83
F0.567
sI84
F0.567
sI85
F0.567
sI86
F0.567
sI87
F0.567
sI88
F0.567
sI89
F0.567
sI90
F0.567
sI91
F0.567
sI92
F0.567
sI93
F0.567
sI94
F0.567
sI95
F0.567
sI96
F0.567
sI97
F0.567
sI98
F0.567
sI99
F0.567
sI100
F0.567
sI101
F0.567
sI102
F0.567
sI103
F0.567
sI104
F0.567
sI105
F0.567
sI106
F0.567
sI107
F0.567
sI108
F0.567
sI109
F0.567
sI110
F0.567
sI111
F0.567
sI112
F0.567
sI113
F0.567
sI114
F0.567
sI115
F0.567
sI116
F0.567
sI117
F0.567
sI118
F0.567
sI119
F0.567
sI120
F0.567
sI121
F0.567
sI122
F0.567
sI123
F0.567
sI124
F0.567
sI125
F0.567
sI126
F0.567
sI127
F0.567
sI128
F0.567
sI129
F0.567
sI130
F0.567
sI131
F0.567
sI132
F0.567
sI133
F0.567
sI134
F0.567
sI135
F0.567
sI136
F0.567
sI137
F0.567
sI138
F0.567
sI139
F0.567
sI140
F0.567
sI141
F0.567
sI142
F0.567
sI143
F0.567
sI144
F0.567
sI145
F0.567
sI146
F0.567
sI147
F0.567
sI148
F0.567
sI149
F0.567
sI150
F0.567
sI151
F0.567
sI152
F0.567
sI153
F0.567
sI154
F0.567
sI155
F0.567
sI156
F0.567
sI157
F0.567
sI158
F0.567
sI159
F0.567
sI160
F0.567
sI161
F0.567
sI162
F0.567
sI163
F0.567
sI164
F0.567
sI165
F0.567
sI166
F0.567
sI167
F0.567
sI168
F0.567
sI169
F0.567
sI170
F0.567
sI171
F0.567
sI172
F0.567
sI173
F0.567
sI174
F0.567
sI175
F0.567
sI176
F0.567
sI177
F0.567
sI178
F0.567
sI179
F0.567
sI180
F0.621
sI181
F0.621
sI182
F0.621
sI183
F0.621
sI184
F0.621
sI185
F0.621
sI186
F0.621
sI187
F0.621
sI188
F0.621
sI189
F0.621
sI190
F0.621
sI191
F0.621
sI192
F0.621
sI193
F0.621
sI194
F0.621
sI195
F0.621
sI196
F0.621
sI197
F0.621
sI198
F0.621
sI199
F0.621
sI200
F0.621
sI201
F0.621
sI202
F0.621
sI203
F0.621
sI204
F0.621
sI205
F0.621
sI206
F0.621
sI207
F0.621
sI208
F0.621
sI209
F0.621
sI210
F0.621
sI211
F0.621
sI212
F0.621
sI213
F0.621
sI214
F0.621
sI215
F0.621
sI216
F0.621
sI217
F0.621
sI218
F0.621
sI219
F0.621
sI220
F0.621
sI221
F0.621
sI222
F0.621
sI223
F0.621
sI224
F0.621
sI225
F0.621
sI226
F0.621
sI227
F0.621
sI228
F0.621
sI229
F0.621
sI230
F0.621
sI231
F0.621
sI232
F0.621
sI233
F0.621
sI234
F0.621
sI235
F0.621
sI236
F0.621
sI237
F0.621
sI238
F0.621
sI239
F0.621
sI240
F0.621
sI241
F0.621
sI242
F0.621
sI243
F0.621
sI244
F0.621
sI245
F0.621
sI246
F0.621
sI247
F0.621
sI248
F0.621
sI249
F0.621
sI250
F0.621
sI251
F0.621
sI252
F0.621
sI253
F0.621
sI254
F0.621
sI255
F0.621
sI256
F0.621
sI257
F0.621
sI258
F0.621
sI259
F0.621
sI260
F0.621
sI261
F0.621
sI262
F0.621
sI263
F0.621
sI264
F0.621
sI265
F0.621
sI266
F0.621
sI267
F0.621
sI268
F0.621
sI269
F0.621
sI270
F0.621
sI271
F0.621
sI272
F0.621
sI273
F0.621
sI274
F0.621
sI275
F0.621
sI276
F0.621
sI277
F0.621
sI278
F0.621
sI279
F0.621
sI280
F0.621
sI281
F0.621
sI282
F0.621
sI283
F0.621
sI284
F0.621
sI285
F0.621
sI286
F0.621
sI287
F0.621
sI288
F0.621
sI289
F0.621
sI290
F0.621
sI291
F0.621
sI292
F0.621
sI293
F0.621
sI294
F0.621
sI295
F0.621
sI296
F0.621
sI297
F0.621
sI298
F0.621
sI299
F0.621
sI300
F0.621
sI301
F0.621
sI302
F0.621
sI303
F0.621
sI304
F0.621
sI305
F0.621
sI306
F0.621
sI307
F0.621
sI308
F0.621
sI309
F0.621
sI310
F0.621
sI311
F0.621
sI312
F0.621
sI313
F0.621
sI314
F0.621
sI315
F0.621
sI316
F0.621
sI317
F0.621
sI318
F0.621
sI319
F0.621
sI320
F0.621
sI321
F0.621
sI322
F0.621
sI323
F0.621
sI324
F0.621
sI325
F0.621
sI326
F0.621
sI327
F0.621
sI328
F0.621
sI329
F0.621
sI330
F0.621
sI331
F0.621
sI332
F0.621
sI333
F0.621
sI334
F0.621
sI335
F0.621
sI336
F0.621
sI337
F0.621
sI338
F0.621
sI339
F0.621
sI340
F0.621
sI341
F0.621
sI342
F0.621
sI343
F0.621
sI344
F0.621
sI345
F0.621
sI346
F0.621
sI347
F0.621
sI348
F0.621
sI349
F0.621
sI350
F0.621
sI351
F0.621
sI352
F0.621
sI353
F0.621
sI354
F0.621
sI355
F0.621
sI356
F0.621
sI357
F0.621
sI358
F0.621
sI359
F0.621
sI360
F0.621
sI361
F0.621
sI362
F0.621
sI363
F0.621
sI364
F0.621
sI365
F0.621
sI366
F0.621
sI367
F0.621
sI368
F0.621
sI369
F0.621
sI370
F0.621
sI371
F0.621
sI372
F0.621
sI373
F0.621
sI374
F0.621
sI375
F0.621
sI376
F0.621
sI377
F0.621
sI378
F0.621
sI379
F0.621
sI380
F0.621
sI381
F0.621
sI382
F0.621
sI383
F0.621
sI384
F0.621
sI385
F0.621
sI386
F0.621
sI387
F0.621
sI388
F0.621
sI389
F0.621
sI390
F0.621
sI391
F0.621
sI392
F0.621
sI393
F0.621
sI394
F0.621
sI395
F0.621
sI396
F0.621
sI397
F0.621
sI398
F0.621
sI399
F0.621
sI400
F0.621
sI401
F0.621
sI402
F0.621
sI403
F0.621
sI404
F0.621
sI405
F0.621
sI406
F0.621
sI407
F0.621
sI408
F0.621
sI409
F0.621
sI410
F0.621
sI411
F0.621
sI412
F0.621
sI413
F0.621
sI414
F0.621
sI415
F0.621
sI416
F0.621
sI417
F0.621
sI418
F0.621
sI419
F0.621
sI420
F0.621
sI421
F0.621
sI422
F0.621
sI423
F0.621
sI424
F0.621
sI425
F0.621
sI426
F0.621
sI427
F0.621
sI428
F0.621
sI429
F0.621
sI430
F0.621
sI431
F0.621
sI432
F0.621
sI433
F0.621
sI434
F0.621
sI435
F0.621
sI436
F0.621
sI437
F0.621
sI438
F0.621
sI439
F0.621
sI440
F0.621
sI441
F0.621
sI442
F0.621
sI443
F0.621
sI444
F0.621
sI445
F0.621
sI446
F0.621
sI447
F0.621
sI448
F0.621
sI449
F0.621
sI450
F0.621
sI451
F0.621
sI452
F0.621
sI453
F0.621
sI454
F0.621
sI455
F0.621
sI456
F0.621
sI457
F0.621
sI458
F0.621
sI459
F0.621
sI460
F0.621
sI461
F0.621
sI462
F0.621
sI463
F0.621
sI464
F0.621
sI465
F0.621
sI466
F0.621
sI467
F0.621
sI468
F0.621
sI469
F0.621
sI470
F0.621
sI471
F0.621
sI472
F0.621
sI473
F0.621
sI474
F0.621
sI475
F0.621
sI476
F0.621
sI477
F0.621
sI478
F0.621
sI479
F0.621
sI480
F0.621
sI481
F0.621
sI482
F0.621
sI483
F0.621
sI484
F0.621
sI485
F0.621
sI486
F0.621
sI487
F0.621
sI488
F0.621
sI489
F0.621
sI490
F0.621
sI491
F0.621
sI492
F0.621
sI493
F0.621
sI494
F0.621
sI495
F0.621
sI496
F0.621
sI497
F0.621
sI498
F0.621
sI499
F0.621
sI500
F0.621
sI501
F0.621
sI502
F0.621
sI503
F0.621
sI504
F0.621
sI505
F0.621
sI506
F0.621
sI507
F0.621
sI508
F0.621
sI509
F0.621
sI510
F0.621
sI511
F0.621
sI512
F0.621
sI513
F0.621
sI514
F0.621
sI515
F0.621
sI516
F0.621
sI517
F0.621
sI518
F0.621
sI519
F0.621
sI520
F0.621
sI521
F0.621
sI522
F0.621
sI523
F0.621
sI524
F0.621
sI525
F0.621
sI526
F0.621
sI527
F0.621
sI528
F0.621
sI529
F0.621
sI530
F0.621
sI531
F0.621
sI532
F0.621
sI533
F0.621
sI534
F0.621
sI535
F0.621
sI536
F0.621
sI537
F0.621
sI538
F0.621
sI539
F0.621
sI540
F0.621
sI541
F0.621
sI542
F0.621
sI543
F0.621
sI544
F0.621
sI545
F0.621
sI546
F0.621
sI547
F0.621
sI548
F0.621
sI549
F0.621
sI550
F0.621
sI551
F0.621
sI552
F0.621
sI553
F0.621
sI554
F0.621
sI555
F0.621
sI556
F0.621
sI557
F0.621
sI558
F0.621
sI559
F0.621
sI560
F0.621
sI561
F0.621
sI562
F0.621
sI563
F0.621
sI564
F0.621
sI565
F0.621
sI566
F0.621
sI567
F0.621
sI568
F0.621
sI569
F0.621
sI570
F0.621
sI571
F0.621
sI572
F0.621
sI573
F0.621
sI574
F0.621
sI575
F0.621
sI576
F0.621
sI577
F0.621
sI578
F0.621
sI579
F0.621
sI580
F0.621
sI581
F0.621
sI582
F0.621
sI583
F0.621
sI584
F0.621
sI585
F0.621
sI586
F0.621
sI587
F0.621
sI588
F0.621
sI589
F0.621
sI590
F0.621
sI591
F0.621
sI592
F0.621
sI593
F0.621
sI594
F0.621
sI595
F0.621
sI596
F0.621
sI597
F0.621
sI598
F0.621
sI599
F0.621
sI600
F0.621
sI601
F0.621
sI602
F0.621
sI603
F0.621
sI604
F0.621
sI605
F0.621
sI606
F0.621
sI607
F0.621
sI608
F0.621
sI609
F0.621
sI610
F0.621
sI611
F0.621
sI612
F0.621
sI613
F0.621
sI614
F0.621
sI615
F0.621
sI616
F0.621
sI617
F0.621
sI618
F0.621
sI619
F0.621
sI620
F0.621
sI621
F0.621
sI622
F0.621
sI623
F0.621
sI624
F0.621
sI625
F0.621
sI626
F0.621
sI627
F0.621
sI628
F0.621
sI629
F0.621
sI630
F0.621
sI631
F0.621
sI632
F0.621
sI633
F0.621
sI634
F0.621
sI635
F0.621
sI636
F0.621
sI637
F0.621
sI638
F0.621
sI639
F0.621
sI640
F0.621
sI641
F0.621
sI642
F0.621
sI643
F0.621
sI644
F0.621
sI645
F0.621
sI646
F0.621
sI647
F0.621
sI648
F0.621
sI649
F0.621
sI650
F0.621
sI651
F0.621
sI652
F0.621
sI653
F0.621
sI654
F0.621
sI655
F0.621
sI656
F0.621
sI657
F0.621
sI658
F0.621
sI659
F0.621
sI660
F0.621
sI661
F0.621
sI662
F0.621
sI663
F0.621
sI664
F0.621
sI665
F0.621
sI666
F0.621
sI667
F0.621
sI668
F0.621
sI669
F0.621
sI670
F0.621
sI671
F0.621
sI672
F0.621
sI673
F0.621
sI674
F0.621
sI675
F0.621
sI676
F0.621
sI677
F0.621
sI678
F0.621
sI679
F0.621
sI680
F0.621
sI681
F0.621
sI682
F0.621
sI683
F0.621
sI684
F0.621
sI685
F0.621
sI686
F0.621
sI687
F0.621
sI688
F0.621
sI689
F0.621
sI690
F0.621
sI691
F0.621
sI692
F0.621
sI693
F0.621
sI694
F0.621
sI695
F0.621
sI696
F0.621
sI697
F0.621
sI698
F0.621
sI699
F0.621
sI700
F0.621
sI701
F0.621
sI702
F0.621
sI703
F0.621
sI704
F0.621
sI705
F0.621
sI706
F0.621
sI707
F0.621
sI708
F0.621
sI709
F0.621
sI710
F0.621
sI711
F0.621
sI712
F0.621
sI713
F0.621
sI714
F0.621
sI715
F0.621
sI716
F0.621
sI717
F0.621
sI718
F0.621
sI719
F0.621
sI720
F0.621
sI721
F0.621
sI722
F0.621
sI723
F0.621
sI724
F0.621
sI725
F0.621
sI726
F0.621
sI727
F0.621
sI728
F0.621
sI729
F0.621
sI730
F0.621
sI731
F0.621
sI732
F0.621
sI733
F0.621
sI734
F0.621
sI735
F0.621
sI736
F0.621
sI737
F0.621
sI738
F0.621
sI739
F0.621
sI740
F0.621
sI741
F0.621
sI742
F0.621
sI743
F0.621
sI744
F0.621
sI745
F0.621
sI746
F0.621
sI747
F0.621
sI748
F0.621
sI749
F0.621
sI750
F0.621
sI751
F0.621
sI752
F0.621
sI753
F0.621
sI754
F0.621
sI755
F0.621
sI756
F0.621
sI757
F0.621
sI758
F0.621
sI759
F0.621
sI760
F0.621
sI761
F0.621
sI762
F0.621
sI763
F0.621
sI764
F0.621
sI765
F0.621
sI766
F0.621
sI767
F0.621
sI768
F0.621
sI769
F0.621
sI770
F0.621
sI771
F0.621
sI772
F0.621
sI773
F0.621
sI774
F0.621
sI775
F0.621
sI776
F0.621
sI777
F0.621
sI778
F0.621
sI779
F0.621
sI780
F0.621
sI781
F0.621
sI782
F0.621
sI783
F0.621
sI784
F0.621
sI785
F0.621
sI786
F0.621
sI787
F0.621
sI788
F0.621
sI789
F0.621
sI790
F0.621
sI791
F0.621
sI792
F0.621
sI793
F0.621
sI794
F0.621
sI795
F0.621
sI796
F0.621
sI797
F0.621
sI798
F0.621
sI799
F0.621
sI800
F0.621
sI801
F0.621
sI802
F0.621
sI803
F0.621
sI804
F0.621
sI805
F0.621
sI806
F0.621
sI807
F0.621
sI808
F0.621
sI809
F0.621
sI810
F0.621
sI811
F0.621
sI812
F0.621
sI813
F0.621
sI814
F0.621
sI815
F0.621
sI816
F0.621
sI817
F0.621
sI818
F0.621
sI819
F0.621
sI820
F0.621
sI821
F0.621
sI822
F0.621
sI823
F0.621
sI824
F0.621
sI825
F0.621
sI826
F0.621
sI827
F0.621
sI828
F0.621
sI829
F0.621
sI830
F0.621
sI831
F0.621
sI832
F0.621
sI833
F0.621
sI834
F0.621
sI835
F0.621
sI836
F0.621
sI837
F0.621
sI838
F0.621
sI839
F0.621
sI840
F0.621
sI841
F0.621
sI842
F0.621
sI843
F0.621
sI844
F0.621
sI845
F0.621
sI846
F0.621
sI847
F0.621
sI848
F0.621
sI849
F0.621
sI850
F0.621
sI851
F0.621
sI852
F0.621
sI853
F0.621
sI854
F0.621
sI855
F0.621
sI856
F0.621
sI857
F0.621
sI858
F0.621
sI859
F0.621
sI860
F0.621
sI861
F0.621
sI862
F0.621
sI863
F0.621
sI864
F0.621
sI865
F0.621
sI866
F0.621
sI867
F0.621
sI868
F0.621
sI869
F0.621
sI870
F0.621
sI871
F0.621
sI872
F0.621
sI873
F0.621
sI874
F0.621
sI875
F0.621
sI876
F0.621
sI877
F0.621
sI878
F0.621
sI879
F0.621
sI880
F0.621
sI881
F0.621
sI882
F0.621
sI883
F0.621
sI884
F0.621
sI885
F0.621
sI886
F0.621
sI887
F0.621
sI888
F0.621
sI889
F0.621
sI890
F0.621
sI891
F0.621
sI892
F0.621
sI893
F0.621
sI894
F0.621
sI895
F0.621
sI896
F0.621
sI897
F0.621
sI898
F0.621
sI899
F0.621
sI900
F0.621
sI901
F0.621
sI902
F0.621
sI903
F0.621
sI904
F0.621
sI905
F0.621
sI906
F0.621
sI907
F0.621
sI908
F0.621
sI909
F0.621
sI910
F0.621
sI911
F0.621
sI912
F0.621
sI913
F0.621
sI914
F0.621
sI915
F0.621
sI916
F0.621
sI917
F0.621
sI918
F0.621
sI919
F0.621
sI920
F0.621
sI921
F0.621
sI922
F0.621
sI923
F0.621
sI924
F0.621
sI925
F0.621
sI926
F0.621
sI927
F0.621
sI928
F0.621
sI929
F0.621
sI930
F0.621
sI931
F0.621
sI932
F0.621
sI933
F0.621
sI934
F0.621
sI935
F0.621
sI936
F0.621
sI937
F0.621
sI938
F0.621
sI939
F0.621
sI940
F0.621
sI941
F0.621
sI942
F0.621
sI943
F0.621
sI944
F0.621
sI945
F0.621
sI946
F0.621
sI947
F0.621
sI948
F0.621
sI949
F0.621
sI950
F0.621
sI951
F0.621
sI952
F0.621
sI953
F0.621
sI954
F0.621
sI955
F0.621
sI956
F0.621
sI957
F0.621
sI958
F0.621
sI959
F0.621
sI960
F0.621
sI961
F0.621
sI962
F0.621
sI963
F0.621
sI964
F0.621
sI965
F0.621
sI966
F0.621
sI967
F0.621
sI968
F0.621
sI969
F0.621
sI970
F0.621
sI971
F0.621
sI972
F0.621
sI973
F0.621
sI974
F0.621
sI975
F0.621
sI976
F0.621
sI977
F0.621
sI978
F0.621
sI979
F0.621
sI980
F0.621
sI981
F0.621
sI982
F0.621
sI983
F0.621
sI984
F0.621
sI985
F0.621
sI986
F0.621
sI987
F0.621
sI988
F0.621
sI989
F0.621
sI990
F0.621
sI991
F0.621
sI992
F0.621
sI993
F0.621
sI994
F0.621
sI995
F0.621
sI996
F0.621
sI997
F0.621
sI998
F0.621
sI999
F0.621
ssF0.025
(dp4
I0
F0.585
sI1
F0.585
sI2
F0.585
sI3
F0.585
sI4
F0.585
sI5
F0.585
sI6
F0.585
sI7
F0.585
sI8
F0.585
sI9
F0.585
sI10
F0.585
sI11
F0.585
sI12
F0.585
sI13
F0.585
sI14
F0.585
sI15
F0.585
sI16
F0.585
sI17
F0.585
sI18
F0.585
sI19
F0.585
sI20
F0.585
sI21
F0.585
sI22
F0.585
sI23
F0.585
sI24
F0.585
sI25
F0.585
sI26
F0.585
sI27
F0.585
sI28
F0.585
sI29
F0.585
sI30
F0.585
sI31
F0.585
sI32
F0.585
sI33
F0.585
sI34
F0.585
sI35
F0.585
sI36
F0.585
sI37
F0.585
sI38
F0.585
sI39
F0.585
sI40
F0.585
sI41
F0.585
sI42
F0.585
sI43
F0.585
sI44
F0.585
sI45
F0.585
sI46
F0.585
sI47
F0.585
sI48
F0.585
sI49
F0.585
sI50
F0.585
sI51
F0.585
sI52
F0.585
sI53
F0.585
sI54
F0.585
sI55
F0.585
sI56
F0.585
sI57
F0.585
sI58
F0.585
sI59
F0.585
sI60
F0.585
sI61
F0.585
sI62
F0.585
sI63
F0.585
sI64
F0.585
sI65
F0.585
sI66
F0.585
sI67
F0.585
sI68
F0.585
sI69
F0.585
sI70
F0.585
sI71
F0.585
sI72
F0.585
sI73
F0.585
sI74
F0.585
sI75
F0.585
sI76
F0.585
sI77
F0.585
sI78
F0.585
sI79
F0.585
sI80
F0.585
sI81
F0.585
sI82
F0.585
sI83
F0.585
sI84
F0.585
sI85
F0.585
sI86
F0.585
sI87
F0.585
sI88
F0.585
sI89
F0.585
sI90
F0.585
sI91
F0.585
sI92
F0.611
sI93
F0.611
sI94
F0.611
sI95
F0.611
sI96
F0.611
sI97
F0.611
sI98
F0.611
sI99
F0.611
sI100
F0.611
sI101
F0.611
sI102
F0.611
sI103
F0.611
sI104
F0.611
sI105
F0.611
sI106
F0.611
sI107
F0.611
sI108
F0.611
sI109
F0.611
sI110
F0.611
sI111
F0.611
sI112
F0.611
sI113
F0.611
sI114
F0.611
sI115
F0.611
sI116
F0.611
sI117
F0.611
sI118
F0.611
sI119
F0.611
sI120
F0.611
sI121
F0.611
sI122
F0.611
sI123
F0.611
sI124
F0.611
sI125
F0.611
sI126
F0.611
sI127
F0.611
sI128
F0.611
sI129
F0.611
sI130
F0.611
sI131
F0.611
sI132
F0.611
sI133
F0.611
sI134
F0.611
sI135
F0.611
sI136
F0.611
sI137
F0.611
sI138
F0.611
sI139
F0.611
sI140
F0.611
sI141
F0.611
sI142
F0.611
sI143
F0.611
sI144
F0.611
sI145
F0.611
sI146
F0.611
sI147
F0.611
sI148
F0.611
sI149
F0.611
sI150
F0.611
sI151
F0.611
sI152
F0.638
sI153
F0.638
sI154
F0.638
sI155
F0.638
sI156
F0.638
sI157
F0.638
sI158
F0.638
sI159
F0.638
sI160
F0.638
sI161
F0.638
sI162
F0.638
sI163
F0.638
sI164
F0.638
sI165
F0.638
sI166
F0.638
sI167
F0.638
sI168
F0.638
sI169
F0.638
sI170
F0.638
sI171
F0.638
sI172
F0.638
sI173
F0.638
sI174
F0.638
sI175
F0.638
sI176
F0.638
sI177
F0.638
sI178
F0.638
sI179
F0.638
sI180
F0.638
sI181
F0.638
sI182
F0.638
sI183
F0.638
sI184
F0.638
sI185
F0.638
sI186
F0.638
sI187
F0.638
sI188
F0.638
sI189
F0.638
sI190
F0.638
sI191
F0.638
sI192
F0.638
sI193
F0.638
sI194
F0.638
sI195
F0.638
sI196
F0.638
sI197
F0.638
sI198
F0.638
sI199
F0.638
sI200
F0.638
sI201
F0.638
sI202
F0.638
sI203
F0.638
sI204
F0.638
sI205
F0.638
sI206
F0.638
sI207
F0.638
sI208
F0.638
sI209
F0.638
sI210
F0.638
sI211
F0.638
sI212
F0.638
sI213
F0.638
sI214
F0.638
sI215
F0.638
sI216
F0.638
sI217
F0.638
sI218
F0.638
sI219
F0.638
sI220
F0.638
sI221
F0.638
sI222
F0.638
sI223
F0.638
sI224
F0.638
sI225
F0.638
sI226
F0.638
sI227
F0.638
sI228
F0.638
sI229
F0.638
sI230
F0.638
sI231
F0.638
sI232
F0.638
sI233
F0.638
sI234
F0.638
sI235
F0.638
sI236
F0.638
sI237
F0.638
sI238
F0.638
sI239
F0.638
sI240
F0.638
sI241
F0.638
sI242
F0.638
sI243
F0.638
sI244
F0.638
sI245
F0.638
sI246
F0.638
sI247
F0.638
sI248
F0.638
sI249
F0.638
sI250
F0.638
sI251
F0.638
sI252
F0.638
sI253
F0.638
sI254
F0.638
sI255
F0.638
sI256
F0.638
sI257
F0.638
sI258
F0.638
sI259
F0.638
sI260
F0.638
sI261
F0.638
sI262
F0.638
sI263
F0.638
sI264
F0.638
sI265
F0.638
sI266
F0.638
sI267
F0.638
sI268
F0.638
sI269
F0.638
sI270
F0.638
sI271
F0.638
sI272
F0.638
sI273
F0.638
sI274
F0.638
sI275
F0.638
sI276
F0.638
sI277
F0.638
sI278
F0.638
sI279
F0.638
sI280
F0.638
sI281
F0.638
sI282
F0.666
sI283
F0.666
sI284
F0.666
sI285
F0.666
sI286
F0.666
sI287
F0.666
sI288
F0.666
sI289
F0.666
sI290
F0.666
sI291
F0.666
sI292
F0.666
sI293
F0.666
sI294
F0.666
sI295
F0.666
sI296
F0.666
sI297
F0.666
sI298
F0.666
sI299
F0.666
sI300
F0.666
sI301
F0.666
sI302
F0.666
sI303
F0.666
sI304
F0.666
sI305
F0.666
sI306
F0.666
sI307
F0.666
sI308
F0.666
sI309
F0.666
sI310
F0.666
sI311
F0.666
sI312
F0.666
sI313
F0.666
sI314
F0.666
sI315
F0.666
sI316
F0.666
sI317
F0.666
sI318
F0.666
sI319
F0.666
sI320
F0.666
sI321
F0.666
sI322
F0.666
sI323
F0.666
sI324
F0.666
sI325
F0.666
sI326
F0.666
sI327
F0.666
sI328
F0.666
sI329
F0.666
sI330
F0.666
sI331
F0.666
sI332
F0.666
sI333
F0.666
sI334
F0.666
sI335
F0.666
sI336
F0.666
sI337
F0.666
sI338
F0.666
sI339
F0.666
sI340
F0.666
sI341
F0.666
sI342
F0.666
sI343
F0.666
sI344
F0.666
sI345
F0.666
sI346
F0.666
sI347
F0.666
sI348
F0.666
sI349
F0.666
sI350
F0.666
sI351
F0.666
sI352
F0.666
sI353
F0.666
sI354
F0.666
sI355
F0.666
sI356
F0.666
sI357
F0.666
sI358
F0.666
sI359
F0.666
sI360
F0.666
sI361
F0.666
sI362
F0.666
sI363
F0.666
sI364
F0.666
sI365
F0.666
sI366
F0.666
sI367
F0.666
sI368
F0.666
sI369
F0.666
sI370
F0.666
sI371
F0.666
sI372
F0.666
sI373
F0.666
sI374
F0.666
sI375
F0.666
sI376
F0.666
sI377
F0.666
sI378
F0.666
sI379
F0.666
sI380
F0.666
sI381
F0.666
sI382
F0.666
sI383
F0.666
sI384
F0.666
sI385
F0.666
sI386
F0.666
sI387
F0.666
sI388
F0.666
sI389
F0.666
sI390
F0.666
sI391
F0.666
sI392
F0.666
sI393
F0.666
sI394
F0.666
sI395
F0.666
sI396
F0.666
sI397
F0.666
sI398
F0.666
sI399
F0.666
sI400
F0.666
sI401
F0.666
sI402
F0.666
sI403
F0.666
sI404
F0.666
sI405
F0.666
sI406
F0.666
sI407
F0.666
sI408
F0.666
sI409
F0.666
sI410
F0.666
sI411
F0.666
sI412
F0.666
sI413
F0.666
sI414
F0.666
sI415
F0.666
sI416
F0.666
sI417
F0.666
sI418
F0.666
sI419
F0.666
sI420
F0.666
sI421
F0.666
sI422
F0.666
sI423
F0.666
sI424
F0.666
sI425
F0.666
sI426
F0.666
sI427
F0.666
sI428
F0.666
sI429
F0.666
sI430
F0.666
sI431
F0.666
sI432
F0.666
sI433
F0.666
sI434
F0.666
sI435
F0.666
sI436
F0.666
sI437
F0.666
sI438
F0.666
sI439
F0.666
sI440
F0.666
sI441
F0.666
sI442
F0.666
sI443
F0.666
sI444
F0.666
sI445
F0.666
sI446
F0.666
sI447
F0.666
sI448
F0.666
sI449
F0.666
sI450
F0.666
sI451
F0.666
sI452
F0.666
sI453
F0.666
sI454
F0.666
sI455
F0.666
sI456
F0.666
sI457
F0.666
sI458
F0.666
sI459
F0.666
sI460
F0.666
sI461
F0.666
sI462
F0.666
sI463
F0.666
sI464
F0.666
sI465
F0.666
sI466
F0.666
sI467
F0.666
sI468
F0.666
sI469
F0.666
sI470
F0.666
sI471
F0.666
sI472
F0.666
sI473
F0.666
sI474
F0.666
sI475
F0.666
sI476
F0.666
sI477
F0.666
sI478
F0.666
sI479
F0.666
sI480
F0.666
sI481
F0.666
sI482
F0.666
sI483
F0.666
sI484
F0.666
sI485
F0.666
sI486
F0.666
sI487
F0.666
sI488
F0.666
sI489
F0.666
sI490
F0.666
sI491
F0.666
sI492
F0.666
sI493
F0.666
sI494
F0.666
sI495
F0.666
sI496
F0.666
sI497
F0.666
sI498
F0.666
sI499
F0.666
sI500
F0.666
sI501
F0.666
sI502
F0.666
sI503
F0.666
sI504
F0.666
sI505
F0.666
sI506
F0.666
sI507
F0.666
sI508
F0.666
sI509
F0.666
sI510
F0.666
sI511
F0.666
sI512
F0.666
sI513
F0.666
sI514
F0.666
sI515
F0.666
sI516
F0.666
sI517
F0.666
sI518
F0.666
sI519
F0.666
sI520
F0.666
sI521
F0.666
sI522
F0.666
sI523
F0.666
sI524
F0.666
sI525
F0.666
sI526
F0.666
sI527
F0.666
sI528
F0.666
sI529
F0.666
sI530
F0.666
sI531
F0.666
sI532
F0.666
sI533
F0.666
sI534
F0.666
sI535
F0.666
sI536
F0.666
sI537
F0.666
sI538
F0.666
sI539
F0.666
sI540
F0.666
sI541
F0.666
sI542
F0.666
sI543
F0.666
sI544
F0.666
sI545
F0.666
sI546
F0.666
sI547
F0.666
sI548
F0.666
sI549
F0.666
sI550
F0.666
sI551
F0.666
sI552
F0.666
sI553
F0.666
sI554
F0.666
sI555
F0.666
sI556
F0.666
sI557
F0.666
sI558
F0.666
sI559
F0.666
sI560
F0.666
sI561
F0.666
sI562
F0.666
sI563
F0.666
sI564
F0.666
sI565
F0.666
sI566
F0.666
sI567
F0.666
sI568
F0.666
sI569
F0.666
sI570
F0.666
sI571
F0.666
sI572
F0.666
sI573
F0.666
sI574
F0.666
sI575
F0.666
sI576
F0.666
sI577
F0.666
sI578
F0.666
sI579
F0.666
sI580
F0.666
sI581
F0.666
sI582
F0.666
sI583
F0.666
sI584
F0.666
sI585
F0.666
sI586
F0.666
sI587
F0.666
sI588
F0.666
sI589
F0.666
sI590
F0.666
sI591
F0.666
sI592
F0.666
sI593
F0.666
sI594
F0.666
sI595
F0.666
sI596
F0.666
sI597
F0.666
sI598
F0.666
sI599
F0.666
sI600
F0.666
sI601
F0.666
sI602
F0.666
sI603
F0.666
sI604
F0.666
sI605
F0.666
sI606
F0.666
sI607
F0.666
sI608
F0.666
sI609
F0.666
sI610
F0.666
sI611
F0.666
sI612
F0.666
sI613
F0.666
sI614
F0.666
sI615
F0.666
sI616
F0.666
sI617
F0.666
sI618
F0.666
sI619
F0.666
sI620
F0.666
sI621
F0.666
sI622
F0.666
sI623
F0.666
sI624
F0.666
sI625
F0.666
sI626
F0.666
sI627
F0.666
sI628
F0.666
sI629
F0.666
sI630
F0.666
sI631
F0.666
sI632
F0.666
sI633
F0.666
sI634
F0.666
sI635
F0.666
sI636
F0.666
sI637
F0.666
sI638
F0.666
sI639
F0.666
sI640
F0.666
sI641
F0.666
sI642
F0.666
sI643
F0.666
sI644
F0.666
sI645
F0.666
sI646
F0.666
sI647
F0.666
sI648
F0.666
sI649
F0.666
sI650
F0.666
sI651
F0.666
sI652
F0.666
sI653
F0.666
sI654
F0.666
sI655
F0.666
sI656
F0.666
sI657
F0.666
sI658
F0.666
sI659
F0.666
sI660
F0.666
sI661
F0.666
sI662
F0.666
sI663
F0.666
sI664
F0.666
sI665
F0.666
sI666
F0.666
sI667
F0.666
sI668
F0.666
sI669
F0.666
sI670
F0.666
sI671
F0.666
sI672
F0.666
sI673
F0.666
sI674
F0.666
sI675
F0.666
sI676
F0.666
sI677
F0.666
sI678
F0.666
sI679
F0.666
sI680
F0.666
sI681
F0.666
sI682
F0.666
sI683
F0.666
sI684
F0.666
sI685
F0.666
sI686
F0.666
sI687
F0.666
sI688
F0.666
sI689
F0.666
sI690
F0.666
sI691
F0.666
sI692
F0.666
sI693
F0.666
sI694
F0.666
sI695
F0.666
sI696
F0.666
sI697
F0.666
sI698
F0.666
sI699
F0.666
sI700
F0.666
sI701
F0.666
sI702
F0.666
sI703
F0.666
sI704
F0.666
sI705
F0.666
sI706
F0.666
sI707
F0.666
sI708
F0.666
sI709
F0.666
sI710
F0.666
sI711
F0.666
sI712
F0.666
sI713
F0.666
sI714
F0.666
sI715
F0.666
sI716
F0.666
sI717
F0.666
sI718
F0.666
sI719
F0.666
sI720
F0.666
sI721
F0.666
sI722
F0.666
sI723
F0.666
sI724
F0.666
sI725
F0.666
sI726
F0.666
sI727
F0.666
sI728
F0.666
sI729
F0.666
sI730
F0.666
sI731
F0.666
sI732
F0.666
sI733
F0.666
sI734
F0.666
sI735
F0.666
sI736
F0.666
sI737
F0.666
sI738
F0.666
sI739
F0.666
sI740
F0.666
sI741
F0.666
sI742
F0.666
sI743
F0.666
sI744
F0.666
sI745
F0.666
sI746
F0.666
sI747
F0.666
sI748
F0.666
sI749
F0.666
sI750
F0.666
sI751
F0.666
sI752
F0.666
sI753
F0.666
sI754
F0.666
sI755
F0.666
sI756
F0.666
sI757
F0.666
sI758
F0.666
sI759
F0.666
sI760
F0.666
sI761
F0.666
sI762
F0.666
sI763
F0.666
sI764
F0.666
sI765
F0.666
sI766
F0.666
sI767
F0.666
sI768
F0.666
sI769
F0.666
sI770
F0.666
sI771
F0.666
sI772
F0.666
sI773
F0.666
sI774
F0.666
sI775
F0.666
sI776
F0.666
sI777
F0.666
sI778
F0.666
sI779
F0.666
sI780
F0.666
sI781
F0.666
sI782
F0.666
sI783
F0.666
sI784
F0.666
sI785
F0.666
sI786
F0.666
sI787
F0.666
sI788
F0.666
sI789
F0.666
sI790
F0.666
sI791
F0.666
sI792
F0.666
sI793
F0.666
sI794
F0.666
sI795
F0.666
sI796
F0.666
sI797
F0.666
sI798
F0.666
sI799
F0.666
sI800
F0.666
sI801
F0.666
sI802
F0.666
sI803
F0.666
sI804
F0.666
sI805
F0.666
sI806
F0.666
sI807
F0.666
sI808
F0.666
sI809
F0.666
sI810
F0.666
sI811
F0.666
sI812
F0.666
sI813
F0.666
sI814
F0.666
sI815
F0.666
sI816
F0.666
sI817
F0.666
sI818
F0.666
sI819
F0.666
sI820
F0.666
sI821
F0.666
sI822
F0.666
sI823
F0.666
sI824
F0.666
sI825
F0.666
sI826
F0.666
sI827
F0.666
sI828
F0.666
sI829
F0.666
sI830
F0.666
sI831
F0.666
sI832
F0.666
sI833
F0.666
sI834
F0.666
sI835
F0.666
sI836
F0.666
sI837
F0.666
sI838
F0.666
sI839
F0.666
sI840
F0.666
sI841
F0.666
sI842
F0.666
sI843
F0.666
sI844
F0.666
sI845
F0.666
sI846
F0.666
sI847
F0.666
sI848
F0.666
sI849
F0.666
sI850
F0.666
sI851
F0.666
sI852
F0.666
sI853
F0.666
sI854
F0.666
sI855
F0.666
sI856
F0.666
sI857
F0.666
sI858
F0.666
sI859
F0.666
sI860
F0.666
sI861
F0.666
sI862
F0.666
sI863
F0.666
sI864
F0.666
sI865
F0.666
sI866
F0.666
sI867
F0.666
sI868
F0.666
sI869
F0.666
sI870
F0.666
sI871
F0.666
sI872
F0.666
sI873
F0.666
sI874
F0.666
sI875
F0.666
sI876
F0.666
sI877
F0.666
sI878
F0.666
sI879
F0.666
sI880
F0.666
sI881
F0.666
sI882
F0.666
sI883
F0.666
sI884
F0.666
sI885
F0.666
sI886
F0.666
sI887
F0.666
sI888
F0.666
sI889
F0.666
sI890
F0.666
sI891
F0.666
sI892
F0.666
sI893
F0.666
sI894
F0.666
sI895
F0.666
sI896
F0.666
sI897
F0.666
sI898
F0.666
sI899
F0.666
sI900
F0.666
sI901
F0.666
sI902
F0.666
sI903
F0.666
sI904
F0.666
sI905
F0.666
sI906
F0.666
sI907
F0.666
sI908
F0.666
sI909
F0.666
sI910
F0.666
sI911
F0.666
sI912
F0.666
sI913
F0.666
sI914
F0.666
sI915
F0.666
sI916
F0.666
sI917
F0.666
sI918
F0.666
sI919
F0.666
sI920
F0.666
sI921
F0.666
sI922
F0.666
sI923
F0.666
sI924
F0.666
sI925
F0.666
sI926
F0.666
sI927
F0.666
sI928
F0.666
sI929
F0.666
sI930
F0.666
sI931
F0.666
sI932
F0.666
sI933
F0.666
sI934
F0.666
sI935
F0.666
sI936
F0.666
sI937
F0.666
sI938
F0.666
sI939
F0.666
sI940
F0.666
sI941
F0.666
sI942
F0.666
sI943
F0.666
sI944
F0.666
sI945
F0.666
sI946
F0.666
sI947
F0.666
sI948
F0.666
sI949
F0.666
sI950
F0.666
sI951
F0.666
sI952
F0.666
sI953
F0.666
sI954
F0.666
sI955
F0.666
sI956
F0.666
sI957
F0.666
sI958
F0.666
sI959
F0.666
sI960
F0.666
sI961
F0.666
sI962
F0.666
sI963
F0.666
sI964
F0.666
sI965
F0.666
sI966
F0.666
sI967
F0.666
sI968
F0.666
sI969
F0.666
sI970
F0.666
sI971
F0.666
sI972
F0.666
sI973
F0.666
sI974
F0.666
sI975
F0.666
sI976
F0.666
sI977
F0.666
sI978
F0.666
sI979
F0.666
sI980
F0.666
sI981
F0.666
sI982
F0.666
sI983
F0.666
sI984
F0.666
sI985
F0.666
sI986
F0.666
sI987
F0.666
sI988
F0.666
sI989
F0.666
sI990
F0.666
sI991
F0.666
sI992
F0.666
sI993
F0.666
sI994
F0.666
sI995
F0.666
sI996
F0.666
sI997
F0.666
sI998
F0.666
sI999
F0.666
ss.