(dp0
F0.1
(dp1
I0
F0.584
sI1
F0.584
sI2
F0.584
sI3
F0.584
sI4
F0.703
sI5
F0.703
sI6
F0.703
sI7
F0.703
sI8
F0.703
sI9
F0.703
sI10
F0.703
sI11
F0.703
sI12
F0.703
sI13
F0.703
sI14
F0.703
sI15
F0.703
sI16
F0.703
sI17
F0.703
sI18
F0.703
sI19
F0.703
sI20
F0.703
sI21
F0.703
sI22
F0.703
sI23
F0.703
sI24
F0.703
sI25
F0.703
sI26
F0.703
sI27
F0.703
sI28
F0.703
sI29
F0.703
sI30
F0.703
sI31
F0.703
sI32
F0.703
sI33
F0.703
sI34
F0.703
sI35
F0.703
sI36
F0.703
sI37
F0.703
sI38
F0.703
sI39
F0.703
sI40
F0.703
sI41
F0.703
sI42
F0.703
sI43
F0.703
sI44
F0.703
sI45
F0.703
sI46
F0.703
sI47
F0.703
sI48
F0.703
sI49
F0.703
sI50
F0.703
sI51
F0.703
sI52
F0.703
sI53
F0.703
sI54
F0.703
sI55
F0.703
sI56
F0.703
sI57
F0.703
sI58
F0.703
sI59
F0.703
sI60
F0.703
sI61
F0.703
sI62
F0.703
sI63
F0.703
sI64
F0.703
sI65
F0.703
sI66
F0.703
sI67
F0.703
sI68
F0.703
sI69
F0.703
sI70
F0.703
sI71
F0.703
sI72
F0.703
sI73
F0.703
sI74
F0.703
sI75
F0.703
sI76
F0.703
sI77
F0.703
sI78
F0.703
sI79
F0.703
sI80
F0.703
sI81
F0.703
sI82
F0.703
sI83
F0.703
sI84
F0.703
sI85
F0.703
sI86
F0.703
sI87
F0.703
sI88
F0.703
sI89
F0.703
sI90
F0.703
sI91
F0.703
sI92
F0.703
sI93
F0.703
sI94
F0.703
sI95
F0.703
sI96
F0.703
sI97
F0.703
sI98
F0.703
sI99
F0.703
sI100
F0.703
sI101
F0.703
sI102
F0.703
sI103
F0.703
sI104
F0.703
sI105
F0.703
sI106
F0.703
sI107
F0.703
sI108
F0.703
sI109
F0.703
sI110
F0.703
sI111
F0.703
sI112
F0.703
sI113
F0.703
sI114
F0.703
sI115
F0.703
sI116
F0.703
sI117
F0.703
sI118
F0.703
sI119
F0.703
sI120
F0.703
sI121
F0.703
sI122
F0.703
sI123
F0.703
sI124
F0.703
sI125
F0.703
sI126
F0.703
sI127
F0.703
sI128
F0.703
sI129
F0.703
sI130
F0.703
sI131
F0.703
sI132
F0.703
sI133
F0.703
sI134
F0.703
sI135
F0.703
sI136
F0.703
sI137
F0.703
sI138
F0.703
sI139
F0.703
sI140
F0.703
sI141
F0.703
sI142
F0.703
sI143
F0.703
sI144
F0.703
sI145
F0.703
sI146
F0.703
sI147
F0.703
sI148
F0.703
sI149
F0.703
sI150
F0.703
sI151
F0.703
sI152
F0.703
sI153
F0.703
sI154
F0.703
sI155
F0.703
sI156
F0.703
sI157
F0.703
sI158
F0.703
sI159
F0.703
sI160
F0.703
sI161
F0.703
sI162
F0.703
sI163
F0.703
sI164
F0.703
sI165
F0.703
sI166
F0.703
sI167
F0.703
sI168
F0.703
sI169
F0.703
sI170
F0.703
sI171
F0.703
sI172
F0.703
sI173
F0.703
sI174
F0.703
sI175
F0.703
sI176
F0.703
sI177
F0.703
sI178
F0.703
sI179
F0.703
sI180
F0.703
sI181
F0.703
sI182
F0.703
sI183
F0.703
sI184
F0.703
sI185
F0.703
sI186
F0.703
sI187
F0.703
sI188
F0.703
sI189
F0.703
sI190
F0.703
sI191
F0.703
sI192
F0.703
sI193
F0.703
sI194
F0.703
sI195
F0.703
sI196
F0.703
sI197
F0.703
sI198
F0.703
sI199
F0.703
sI200
F0.703
sI201
F0.703
sI202
F0.703
sI203
F0.703
sI204
F0.703
sI205
F0.703
sI206
F0.703
sI207
F0.703
sI208
F0.703
sI209
F0.703
sI210
F0.703
sI211
F0.703
sI212
F0.703
sI213
F0.703
sI214
F0.703
sI215
F0.703
sI216
F0.703
sI217
F0.703
sI218
F0.703
sI219
F0.703
sI220
F0.703
sI221
F0.703
sI222
F0.703
sI223
F0.703
sI224
F0.703
sI225
F0.703
sI226
F0.703
sI227
F0.703
sI228
F0.703
sI229
F0.703
sI230
F0.703
sI231
F0.703
sI232
F0.703
sI233
F0.703
sI234
F0.703
sI235
F0.703
sI236
F0.703
sI237
F0.703
sI238
F0.703
sI239
F0.703
sI240
F0.703
sI241
F0.703
sI242
F0.703
sI243
F0.703
sI244
F0.703
sI245
F0.703
sI246
F0.703
sI247
F0.703
sI248
F0.703
sI249
F0.703
sI250
F0.703
sI251
F0.703
sI252
F0.703
sI253
F0.703
sI254
F0.703
sI255
F0.703
sI256
F0.703
sI257
F0.703
sI258
F0.703
sI259
F0.703
sI260
F0.703
sI261
F0.703
sI262
F0.703
sI263
F0.703
sI264
F0.703
sI265
F0.703
sI266
F0.703
sI267
F0.703
sI268
F0.703
sI269
F0.703
sI270
F0.703
sI271
F0.703
sI272
F0.703
sI273
F0.703
sI274
F0.703
sI275
F0.703
sI276
F0.703
sI277
F0.703
sI278
F0.703
sI279
F0.703
sI280
F0.703
sI281
F0.703
sI282
F0.703
sI283
F0.703
sI284
F0.703
sI285
F0.703
sI286
F0.703
sI287
F0.703
sI288
F0.703
sI289
F0.703
sI290
F0.703
sI291
F0.703
sI292
F0.703
sI293
F0.703
sI294
F0.703
sI295
F0.703
sI296
F0.703
sI297
F0.703
sI298
F0.703
sI299
F0.703
sI300
F0.703
sI301
F0.703
sI302
F0.703
sI303
F0.703
sI304
F0.703
sI305
F0.703
sI306
F0.703
sI307
F0.703
sI308
F0.703
sI309
F0.703
sI310
F0.703
sI311
F0.703
sI312
F0.703
sI313
F0.703
sI314
F0.703
sI315
F0.703
sI316
F0.703
sI317
F0.703
sI318
F0.703
sI319
F0.703
sI320
F0.703
sI321
F0.703
sI322
F0.703
sI323
F0.703
sI324
F0.703
sI325
F0.703
sI326
F0.703
sI327
F0.703
sI328
F0.703
sI329
F0.703
sI330
F0.703
sI331
F0.703
sI332
F0.703
sI333
F0.703
sI334
F0.703
sI335
F0.703
sI336
F0.703
sI337
F0.703
sI338
F0.703
sI339
F0.703
sI340
F0.703
sI341
F0.703
sI342
F0.703
sI343
F0.703
sI344
F0.703
sI345
F0.703
sI346
F0.703
sI347
F0.703
sI348
F0.703
sI349
F0.703
sI350
F0.703
sI351
F0.703
sI352
F0.703
sI353
F0.703
sI354
F0.703
sI355
F0.703
sI356
F0.703
sI357
F0.703
sI358
F0.703
sI359
F0.703
sI360
F0.703
sI361
F0.703
sI362
F0.703
sI363
F0.703
sI364
F0.703
sI365
F0.703
sI366
F0.703
sI367
F0.703
sI368
F0.703
sI369
F0.703
sI370
F0.703
sI371
F0.703
sI372
F0.703
sI373
F0.703
sI374
F0.703
sI375
F0.703
sI376
F0.703
sI377
F0.703
sI378
F0.703
sI379
F0.703
sI380
F0.703
sI381
F0.703
sI382
F0.703
sI383
F0.703
sI384
F0.703
sI385
F0.703
sI386
F0.703
sI387
F0.703
sI388
F0.703
sI389
F0.703
sI390
F0.703
sI391
F0.703
sI392
F0.703
sI393
F0.703
sI394
F0.703
sI395
F0.703
sI396
F0.703
sI397
F0.703
sI398
F0.703
sI399
F0.703
sI400
F0.703
sI401
F0.703
sI402
F0.703
sI403
F0.703
sI404
F0.703
sI405
F0.703
sI406
F0.703
sI407
F0.703
sI408
F0.703
sI409
F0.703
sI410
F0.703
sI411
F0.703
sI412
F0.703
sI413
F0.703
sI414
F0.703
sI415
F0.703
sI416
F0.703
sI417
F0.703
sI418
F0.703
sI419
F0.703
sI420
F0.703
sI421
F0.703
sI422
F0.703
sI423
F0.703
sI424
F0.703
sI425
F0.703
sI426
F0.703
sI427
F0.703
sI428
F0.703
sI429
F0.703
sI430
F0.703
sI431
F0.703
sI432
F0.703
sI433
F0.703
sI434
F0.703
sI435
F0.703
sI436
F0.703
sI437
F0.703
sI438
F0.703
sI439
F0.703
sI440
F0.703
sI441
F0.703
sI442
F0.703
sI443
F0.703
sI444
F0.703
sI445
F0.703
sI446
F0.703
sI447
F0.703
sI448
F0.703
sI449
F0.703
sI450
F0.703
sI451
F0.703
sI452
F0.703
sI453
F0.703
sI454
F0.703
sI455
F0.703
sI456
F0.703
sI457
F0.703
sI458
F0.703
sI459
F0.703
sI460
F0.703
sI461
F0.703
sI462
F0.703
sI463
F0.703
sI464
F0.703
sI465
F0.703
sI466
F0.703
sI467
F0.703
sI468
F0.703
sI469
F0.703
sI470
F0.703
sI471
F0.703
sI472
F0.703
sI473
F0.703
sI474
F0.703
sI475
F0.703
sI476
F0.703
sI477
F0.703
sI478
F0.703
sI479
F0.703
sI480
F0.703
sI481
F0.703
sI482
F0.703
sI483
F0.703
sI484
F0.703
sI485
F0.703
sI486
F0.703
sI487
F0.703
sI488
F0.703
sI489
F0.703
sI490
F0.703
sI491
F0.703
sI492
F0.703
sI493
F0.703
sI494
F0.703
sI495
F0.703
sI496
F0.703
sI497
F0.703
sI498
F0.703
sI499
F0.703
sI500
F0.703
sI501
F0.703
sI502
F0.703
sI503
F0.703
sI504
F0.703
sI505
F0.703
sI506
F0.703
sI507
F0.703
sI508
F0.703
sI509
F0.703
sI510
F0.703
sI511
F0.703
sI512
F0.703
sI513
F0.703
sI514
F0.703
sI515
F0.703
sI516
F0.703
sI517
F0.703
sI518
F0.703
sI519
F0.703
sI520
F0.703
sI521
F0.703
sI522
F0.703
sI523
F0.703
sI524
F0.703
sI525
F0.703
sI526
F0.703
sI527
F0.703
sI528
F0.703
sI529
F0.703
sI530
F0.703
sI531
F0.703
sI532
F0.703
sI533
F0.703
sI534
F0.703
sI535
F0.703
sI536
F0.703
sI537
F0.703
sI538
F0.703
sI539
F0.703
sI540
F0.703
sI541
F0.703
sI542
F0.703
sI543
F0.703
sI544
F0.703
sI545
F0.703
sI546
F0.703
sI547
F0.703
sI548
F0.703
sI549
F0.703
sI550
F0.703
sI551
F0.703
sI552
F0.703
sI553
F0.703
sI554
F0.703
sI555
F0.703
sI556
F0.703
sI557
F0.703
sI558
F0.703
sI559
F0.703
sI560
F0.703
sI561
F0.703
sI562
F0.703
sI563
F0.703
sI564
F0.703
sI565
F0.703
sI566
F0.703
sI567
F0.703
sI568
F0.703
sI569
F0.703
sI570
F0.703
sI571
F0.703
sI572
F0.703
sI573
F0.703
sI574
F0.703
sI575
F0.703
sI576
F0.703
sI577
F0.703
sI578
F0.703
sI579
F0.703
sI580
F0.703
sI581
F0.703
sI582
F0.703
sI583
F0.703
sI584
F0.703
sI585
F0.703
sI586
F0.703
sI587
F0.703
sI588
F0.703
sI589
F0.703
sI590
F0.703
sI591
F0.703
sI592
F0.703
sI593
F0.703
sI594
F0.703
sI595
F0.703
sI596
F0.703
sI597
F0.703
sI598
F0.703
sI599
F0.703
sI600
F0.703
sI601
F0.703
sI602
F0.703
sI603
F0.703
sI604
F0.703
sI605
F0.703
sI606
F0.703
sI607
F0.703
sI608
F0.703
sI609
F0.703
sI610
F0.703
sI611
F0.703
sI612
F0.703
sI613
F0.703
sI614
F0.703
sI615
F0.703
sI616
F0.703
sI617
F0.703
sI618
F0.703
sI619
F0.703
sI620
F0.703
sI621
F0.703
sI622
F0.703
sI623
F0.703
sI624
F0.703
sI625
F0.703
sI626
F0.703
sI627
F0.703
sI628
F0.703
sI629
F0.703
sI630
F0.703
sI631
F0.703
sI632
F0.703
sI633
F0.703
sI634
F0.703
sI635
F0.703
sI636
F0.703
sI637
F0.703
sI638
F0.703
sI639
F0.703
sI640
F0.703
sI641
F0.703
sI642
F0.703
sI643
F0.703
sI644
F0.703
sI645
F0.703
sI646
F0.703
sI647
F0.703
sI648
F0.703
sI649
F0.703
sI650
F0.703
sI651
F0.703
sI652
F0.703
sI653
F0.703
sI654
F0.703
sI655
F0.703
sI656
F0.703
sI657
F0.703
sI658
F0.703
sI659
F0.703
sI660
F0.703
sI661
F0.703
sI662
F0.703
sI663
F0.703
sI664
F0.703
sI665
F0.703
sI666
F0.703
sI667
F0.703
sI668
F0.703
sI669
F0.703
sI670
F0.703
sI671
F0.703
sI672
F0.703
sI673
F0.703
sI674
F0.703
sI675
F0.703
sI676
F0.703
sI677
F0.703
sI678
F0.703
sI679
F0.703
sI680
F0.703
sI681
F0.703
sI682
F0.703
sI683
F0.703
sI684
F0.703
sI685
F0.703
sI686
F0.703
sI687
F0.703
sI688
F0.703
sI689
F0.703
sI690
F0.703
sI691
F0.703
sI692
F0.703
sI693
F0.703
sI694
F0.703
sI695
F0.703
sI696
F0.703
sI697
F0.703
sI698
F0.703
sI699
F0.703
sI700
F0.703
sI701
F0.703
sI702
F0.703
sI703
F0.703
sI704
F0.703
sI705
F0.703
sI706
F0.703
sI707
F0.703
sI708
F0.703
sI709
F0.703
sI710
F0.703
sI711
F0.703
sI712
F0.703
sI713
F0.703
sI714
F0.703
sI715
F0.703
sI716
F0.703
sI717
F0.703
sI718
F0.703
sI719
F0.703
sI720
F0.703
sI721
F0.703
sI722
F0.703
sI723
F0.703
sI724
F0.703
sI725
F0.703
sI726
F0.703
sI727
F0.703
sI728
F0.703
sI729
F0.703
sI730
F0.703
sI731
F0.703
sI732
F0.703
sI733
F0.703
sI734
F0.703
sI735
F0.703
sI736
F0.703
sI737
F0.703
sI738
F0.703
sI739
F0.703
sI740
F0.703
sI741
F0.703
sI742
F0.703
sI743
F0.703
sI744
F0.703
sI745
F0.703
sI746
F0.703
sI747
F0.703
sI748
F0.703
sI749
F0.703
sI750
F0.703
sI751
F0.703
sI752
F0.703
sI753
F0.703
sI754
F0.703
sI755
F0.703
sI756
F0.703
sI757
F0.703
sI758
F0.703
sI759
F0.703
sI760
F0.703
sI761
F0.703
sI762
F0.703
sI763
F0.703
sI764
F0.703
sI765
F0.703
sI766
F0.703
sI767
F0.703
sI768
F0.703
sI769
F0.703
sI770
F0.703
sI771
F0.703
sI772
F0.703
sI773
F0.703
sI774
F0.703
sI775
F0.703
sI776
F0.703
sI777
F0.703
sI778
F0.703
sI779
F0.703
sI780
F0.703
sI781
F0.703
sI782
F0.703
sI783
F0.703
sI784
F0.703
sI785
F0.703
sI786
F0.703
sI787
F0.703
sI788
F0.703
sI789
F0.703
sI790
F0.703
sI791
F0.703
sI792
F0.703
sI793
F0.703
sI794
F0.703
sI795
F0.703
sI796
F0.703
sI797
F0.703
sI798
F0.703
sI799
F0.703
sI800
F0.703
sI801
F0.703
sI802
F0.703
sI803
F0.703
sI804
F0.703
sI805
F0.703
sI806
F0.703
sI807
F0.703
sI808
F0.703
sI809
F0.703
sI810
F0.703
sI811
F0.703
sI812
F0.703
sI813
F0.703
sI814
F0.703
sI815
F0.703
sI816
F0.703
sI817
F0.703
sI818
F0.703
sI819
F0.703
sI820
F0.703
sI821
F0.703
sI822
F0.703
sI823
F0.703
sI824
F0.703
sI825
F0.703
sI826
F0.703
sI827
F0.703
sI828
F0.703
sI829
F0.703
sI830
F0.703
sI831
F0.703
sI832
F0.703
sI833
F0.703
sI834
F0.703
sI835
F0.703
sI836
F0.703
sI837
F0.703
sI838
F0.703
sI839
F0.703
sI840
F0.703
sI841
F0.703
sI842
F0.703
sI843
F0.703
sI844
F0.703
sI845
F0.703
sI846
F0.703
sI847
F0.703
sI848
F0.703
sI849
F0.703
sI850
F0.703
sI851
F0.703
sI852
F0.703
sI853
F0.703
sI854
F0.703
sI855
F0.703
sI856
F0.703
sI857
F0.703
sI858
F0.703
sI859
F0.703
sI860
F0.703
sI861
F0.703
sI862
F0.703
sI863
F0.703
sI864
F0.703
sI865
F0.703
sI866
F0.703
sI867
F0.703
sI868
F0.703
sI869
F0.703
sI870
F0.703
sI871
F0.703
sI872
F0.703
sI873
F0.703
sI874
F0.703
sI875
F0.703
sI876
F0.703
sI877
F0.703
sI878
F0.703
sI879
F0.703
sI880
F0.703
sI881
F0.703
sI882
F0.703
sI883
F0.703
sI884
F0.703
sI885
F0.703
sI886
F0.703
sI887
F0.703
sI888
F0.703
sI889
F0.703
sI890
F0.703
sI891
F0.703
sI892
F0.703
sI893
F0.703
sI894
F0.703
sI895
F0.703
sI896
F0.703
sI897
F0.703
sI898
F0.703
sI899
F0.703
sI900
F0.703
sI901
F0.703
sI902
F0.703
sI903
F0.703
sI904
F0.703
sI905
F0.703
sI906
F0.703
sI907
F0.703
sI908
F0.703
sI909
F0.703
sI910
F0.703
sI911
F0.703
sI912
F0.703
sI913
F0.703
sI914
F0.703
sI915
F0.703
sI916
F0.703
sI917
F0.703
sI918
F0.703
sI919
F0.703
sI920
F0.703
sI921
F0.703
sI922
F0.703
sI923
F0.703
sI924
F0.703
sI925
F0.703
sI926
F0.703
sI927
F0.703
sI928
F0.703
sI929
F0.703
sI930
F0.703
sI931
F0.703
sI932
F0.703
sI933
F0.703
sI934
F0.703
sI935
F0.703
sI936
F0.703
sI937
F0.703
sI938
F0.703
sI939
F0.703
sI940
F0.703
sI941
F0.703
sI942
F0.703
sI943
F0.703
sI944
F0.703
sI945
F0.703
sI946
F0.703
sI947
F0.703
sI948
F0.703
sI949
F0.703
sI950
F0.703
sI951
F0.703
sI952
F0.703
sI953
F0.703
sI954
F0.703
sI955
F0.703
sI956
F0.703
sI957
F0.703
sI958
F0.703
sI959
F0.703
sI960
F0.703
sI961
F0.703
sI962
F0.703
sI963
F0.703
sI964
F0.703
sI965
F0.703
sI966
F0.703
sI967
F0.703
sI968
F0.703
sI969
F0.703
sI970
F0.703
sI971
F0.703
sI972
F0.703
sI973
F0.703
sI974
F0.703
sI975
F0.703
sI976
F0.703
sI977
F0.703
sI978
F0.703
sI979
F0.703
sI980
F0.703
sI981
F0.703
sI982
F0.703
sI983
F0.703
sI984
F0.703
sI985
F0.703
sI986
F0.703
sI987
F0.703
sI988
F0.703
sI989
F0.703
sI990
F0.703
sI991
F0.703
sI992
F0.703
sI993
F0.703
sI994
F0.703
sI995
F0.703
sI996
F0.703
sI997
F0.703
sI998
F0.703
sI999
F0.703
ssF0.2
(dp2
I0
F0.586
sI1
F0.586
sI2
F0.586
sI3
F0.586
sI4
F0.586
sI5
F0.586
sI6
F0.586
sI7
F0.586
sI8
F0.586
sI9
F0.586
sI10
F0.586
sI11
F0.586
sI12
F0.586
sI13
F0.586
sI14
F0.586
sI15
F0.586
sI16
F0.586
sI17
F0.586
sI18
F0.586
sI19
F0.586
sI20
F0.586
sI21
F0.586
sI22
F0.586
sI23
F0.586
sI24
F0.586
sI25
F0.586
sI26
F0.586
sI27
F0.586
sI28
F0.586
sI29
F0.586
sI30
F0.586
sI31
F0.586
sI32
F0.586
sI33
F0.586
sI34
F0.586
sI35
F0.586
sI36
F0.586
sI37
F0.586
sI38
F0.586
sI39
F0.586
sI40
F0.586
sI41
F0.586
sI42
F0.586
sI43
F0.586
sI44
F0.586
sI45
F0.586
sI46
F0.586
sI47
F0.586
sI48
F0.586
sI49
F0.586
sI50
F0.586
sI51
F0.586
sI52
F0.586
sI53
F0.586
sI54
F0.586
sI55
F0.586
sI56
F0.586
sI57
F0.586
sI58
F0.586
sI59
F0.586
sI60
F0.586
sI61
F0.586
sI62
F0.586
sI63
F0.586
sI64
F0.586
sI65
F0.586
sI66
F0.586
sI67
F0.586
sI68
F0.586
sI69
F0.586
sI70
F0.586
sI71
F0.586
sI72
F0.586
sI73
F0.586
sI74
F0.586
sI75
F0.586
sI76
F0.586
sI77
F0.586
sI78
F0.586
sI79
F0.586
sI80
F0.586
sI81
F0.586
sI82
F0.586
sI83
F0.586
sI84
F0.586
sI85
F0.586
sI86
F0.586
sI87
F0.586
sI88
F0.586
sI89
F0.586
sI90
F0.586
sI91
F0.586
sI92
F0.586
sI93
F0.586
sI94
F0.586
sI95
F0.586
sI96
F0.586
sI97
F0.586
sI98
F0.586
sI99
F0.586
sI100
F0.586
sI101
F0.586
sI102
F0.586
sI103
F0.586
sI104
F0.586
sI105
F0.586
sI106
F0.586
sI107
F0.586
sI108
F0.586
sI109
F0.586
sI110
F0.586
sI111
F0.586
sI112
F0.586
sI113
F0.586
sI114
F0.586
sI115
F0.586
sI116
F0.586
sI117
F0.586
sI118
F0.586
sI119
F0.586
sI120
F0.586
sI121
F0.586
sI122
F0.586
sI123
F0.586
sI124
F0.586
sI125
F0.586
sI126
F0.586
sI127
F0.586
sI128
F0.586
sI129
F0.586
sI130
F0.586
sI131
F0.586
sI132
F0.586
sI133
F0.586
sI134
F0.586
sI135
F0.586
sI136
F0.586
sI137
F0.586
sI138
F0.586
sI139
F0.586
sI140
F0.586
sI141
F0.586
sI142
F0.586
sI143
F0.586
sI144
F0.586
sI145
F0.586
sI146
F0.586
sI147
F0.586
sI148
F0.586
sI149
F0.586
sI150
F0.586
sI151
F0.586
sI152
F0.586
sI153
F0.586
sI154
F0.586
sI155
F0.586
sI156
F0.586
sI157
F0.586
sI158
F0.586
sI159
F0.586
sI160
F0.586
sI161
F0.586
sI162
F0.586
sI163
F0.586
sI164
F0.586
sI165
F0.586
sI166
F0.586
sI167
F0.586
sI168
F0.586
sI169
F0.586
sI170
F0.586
sI171
F0.586
sI172
F0.586
sI173
F0.586
sI174
F0.586
sI175
F0.586
sI176
F0.586
sI177
F0.586
sI178
F0.586
sI179
F0.586
sI180
F0.586
sI181
F0.586
sI182
F0.586
sI183
F0.586
sI184
F0.586
sI185
F0.586
sI186
F0.586
sI187
F0.586
sI188
F0.586
sI189
F0.586
sI190
F0.586
sI191
F0.586
sI192
F0.586
sI193
F0.586
sI194
F0.586
sI195
F0.586
sI196
F0.586
sI197
F0.586
sI198
F0.586
sI199
F0.586
sI200
F0.586
sI201
F0.586
sI202
F0.586
sI203
F0.586
sI204
F0.586
sI205
F0.586
sI206
F0.586
sI207
F0.586
sI208
F0.586
sI209
F0.586
sI210
F0.586
sI211
F0.586
sI212
F0.586
sI213
F0.586
sI214
F0.586
sI215
F0.586
sI216
F0.586
sI217
F0.586
sI218
F0.586
sI219
F0.586
sI220
F0.586
sI221
F0.586
sI222
F0.586
sI223
F0.586
sI224
F0.586
sI225
F0.586
sI226
F0.586
sI227
F0.586
sI228
F0.586
sI229
F0.586
sI230
F0.586
sI231
F0.586
sI232
F0.586
sI233
F0.586
sI234
F0.586
sI235
F0.586
sI236
F0.586
sI237
F0.586
sI238
F0.586
sI239
F0.586
sI240
F0.586
sI241
F0.586
sI242
F0.586
sI243
F0.586
sI244
F0.586
sI245
F0.586
sI246
F0.586
sI247
F0.586
sI248
F0.586
sI249
F0.586
sI250
F0.586
sI251
F0.586
sI252
F0.586
sI253
F0.586
sI254
F0.586
sI255
F0.586
sI256
F0.586
sI257
F0.586
sI258
F0.586
sI259
F0.586
sI260
F0.586
sI261
F0.586
sI262
F0.586
sI263
F0.586
sI264
F0.586
sI265
F0.586
sI266
F0.586
sI267
F0.586
sI268
F0.586
sI269
F0.586
sI270
F0.586
sI271
F0.586
sI272
F0.586
sI273
F0.586
sI274
F0.586
sI275
F0.586
sI276
F0.586
sI277
F0.586
sI278
F0.586
sI279
F0.586
sI280
F0.586
sI281
F0.586
sI282
F0.586
sI283
F0.586
sI284
F0.586
sI285
F0.586
sI286
F0.586
sI287
F0.586
sI288
F0.586
sI289
F0.586
sI290
F0.586
sI291
F0.586
sI292
F0.586
sI293
F0.586
sI294
F0.586
sI295
F0.586
sI296
F0.586
sI297
F0.586
sI298
F0.586
sI299
F0.586
sI300
F0.586
sI301
F0.586
sI302
F0.586
sI303
F0.586
sI304
F0.586
sI305
F0.586
sI306
F0.586
sI307
F0.586
sI308
F0.586
sI309
F0.586
sI310
F0.586
sI311
F0.586
sI312
F0.586
sI313
F0.586
sI314
F0.586
sI315
F0.586
sI316
F0.586
sI317
F0.586
sI318
F0.586
sI319
F0.586
sI320
F0.586
sI321
F0.586
sI322
F0.586
sI323
F0.586
sI324
F0.586
sI325
F0.586
sI326
F0.586
sI327
F0.586
sI328
F0.586
sI329
F0.586
sI330
F0.586
sI331
F0.586
sI332
F0.586
sI333
F0.586
sI334
F0.586
sI335
F0.586
sI336
F0.586
sI337
F0.586
sI338
F0.586
sI339
F0.586
sI340
F0.586
sI341
F0.586
sI342
F0.586
sI343
F0.586
sI344
F0.586
sI345
F0.586
sI346
F0.586
sI347
F0.586
sI348
F0.586
sI349
F0.586
sI350
F0.586
sI351
F0.586
sI352
F0.586
sI353
F0.586
sI354
F0.586
sI355
F0.586
sI356
F0.586
sI357
F0.586
sI358
F0.586
sI359
F0.586
sI360
F0.586
sI361
F0.586
sI362
F0.586
sI363
F0.586
sI364
F0.586
sI365
F0.586
sI366
F0.586
sI367
F0.586
sI368
F0.586
sI369
F0.586
sI370
F0.586
sI371
F0.586
sI372
F0.586
sI373
F0.586
sI374
F0.586
sI375
F0.586
sI376
F0.586
sI377
F0.586
sI378
F0.586
sI379
F0.586
sI380
F0.586
sI381
F0.586
sI382
F0.586
sI383
F0.586
sI384
F0.586
sI385
F0.586
sI386
F0.586
sI387
F0.586
sI388
F0.586
sI389
F0.586
sI390
F0.586
sI391
F0.586
sI392
F0.586
sI393
F0.586
sI394
F0.586
sI395
F0.586
sI396
F0.586
sI397
F0.586
sI398
F0.586
sI399
F0.586
sI400
F0.586
sI401
F0.586
sI402
F0.586
sI403
F0.586
sI404
F0.586
sI405
F0.586
sI406
F0.586
sI407
F0.586
sI408
F0.586
sI409
F0.586
sI410
F0.586
sI411
F0.586
sI412
F0.586
sI413
F0.586
sI414
F0.586
sI415
F0.586
sI416
F0.586
sI417
F0.586
sI418
F0.586
sI419
F0.586
sI420
F0.586
sI421
F0.586
sI422
F0.586
sI423
F0.586
sI424
F0.586
sI425
F0.586
sI426
F0.586
sI427
F0.586
sI428
F0.586
sI429
F0.586
sI430
F0.586
sI431
F0.586
sI432
F0.586
sI433
F0.586
sI434
F0.586
sI435
F0.586
sI436
F0.586
sI437
F0.586
sI438
F0.586
sI439
F0.586
sI440
F0.586
sI441
F0.586
sI442
F0.586
sI443
F0.586
sI444
F0.586
sI445
F0.586
sI446
F0.586
sI447
F0.586
sI448
F0.586
sI449
F0.586
sI450
F0.586
sI451
F0.586
sI452
F0.586
sI453
F0.586
sI454
F0.586
sI455
F0.586
sI456
F0.586
sI457
F0.586
sI458
F0.586
sI459
F0.586
sI460
F0.586
sI461
F0.586
sI462
F0.586
sI463
F0.586
sI464
F0.586
sI465
F0.586
sI466
F0.586
sI467
F0.586
sI468
F0.586
sI469
F0.586
sI470
F0.586
sI471
F0.586
sI472
F0.586
sI473
F0.586
sI474
F0.586
sI475
F0.586
sI476
F0.586
sI477
F0.586
sI478
F0.586
sI479
F0.586
sI480
F0.586
sI481
F0.586
sI482
F0.586
sI483
F0.586
sI484
F0.586
sI485
F0.586
sI486
F0.586
sI487
F0.586
sI488
F0.586
sI489
F0.586
sI490
F0.586
sI491
F0.586
sI492
F0.586
sI493
F0.586
sI494
F0.586
sI495
F0.586
sI496
F0.586
sI497
F0.586
sI498
F0.586
sI499
F0.586
sI500
F0.586
sI501
F0.586
sI502
F0.586
sI503
F0.586
sI504
F0.586
sI505
F0.586
sI506
F0.586
sI507
F0.586
sI508
F0.586
sI509
F0.586
sI510
F0.586
sI511
F0.586
sI512
F0.586
sI513
F0.586
sI514
F0.586
sI515
F0.586
sI516
F0.586
sI517
F0.586
sI518
F0.586
sI519
F0.586
sI520
F0.586
sI521
F0.586
sI522
F0.586
sI523
F0.586
sI524
F0.586
sI525
F0.586
sI526
F0.586
sI527
F0.586
sI528
F0.586
sI529
F0.586
sI530
F0.586
sI531
F0.586
sI532
F0.586
sI533
F0.586
sI534
F0.586
sI535
F0.586
sI536
F0.586
sI537
F0.586
sI538
F0.586
sI539
F0.586
sI540
F0.586
sI541
F0.586
sI542
F0.586
sI543
F0.586
sI544
F0.586
sI545
F0.586
sI546
F0.586
sI547
F0.586
sI548
F0.586
sI549
F0.586
sI550
F0.586
sI551
F0.586
sI552
F0.586
sI553
F0.586
sI554
F0.586
sI555
F0.586
sI556
F0.586
sI557
F0.586
sI558
F0.586
sI559
F0.586
sI560
F0.586
sI561
F0.586
sI562
F0.586
sI563
F0.586
sI564
F0.586
sI565
F0.586
sI566
F0.586
sI567
F0.586
sI568
F0.586
sI569
F0.586
sI570
F0.586
sI571
F0.586
sI572
F0.586
sI573
F0.586
sI574
F0.586
sI575
F0.586
sI576
F0.586
sI577
F0.586
sI578
F0.586
sI579
F0.586
sI580
F0.586
sI581
F0.586
sI582
F0.586
sI583
F0.586
sI584
F0.586
sI585
F0.586
sI586
F0.586
sI587
F0.586
sI588
F0.586
sI589
F0.586
sI590
F0.586
sI591
F0.586
sI592
F0.586
sI593
F0.586
sI594
F0.586
sI595
F0.586
sI596
F0.586
sI597
F0.586
sI598
F0.586
sI599
F0.586
sI600
F0.586
sI601
F0.586
sI602
F0.586
sI603
F0.586
sI604
F0.586
sI605
F0.586
sI606
F0.586
sI607
F0.586
sI608
F0.586
sI609
F0.586
sI610
F0.586
sI611
F0.586
sI612
F0.586
sI613
F0.586
sI614
F0.586
sI615
F0.586
sI616
F0.586
sI617
F0.586
sI618
F0.586
sI619
F0.586
sI620
F0.586
sI621
F0.586
sI622
F0.586
sI623
F0.586
sI624
F0.586
sI625
F0.586
sI626
F0.586
sI627
F0.586
sI628
F0.586
sI629
F0.586
sI630
F0.586
sI631
F0.586
sI632
F0.586
sI633
F0.586
sI634
F0.586
sI635
F0.586
sI636
F0.586
sI637
F0.586
sI638
F0.586
sI639
F0.586
sI640
F0.586
sI641
F0.586
sI642
F0.586
sI643
F0.586
sI644
F0.586
sI645
F0.586
sI646
F0.586
sI647
F0.586
sI648
F0.586
sI649
F0.586
sI650
F0.586
sI651
F0.586
sI652
F0.586
sI653
F0.586
sI654
F0.586
sI655
F0.586
sI656
F0.586
sI657
F0.586
sI658
F0.586
sI659
F0.586
sI660
F0.586
sI661
F0.586
sI662
F0.586
sI663
F0.586
sI664
F0.586
sI665
F0.586
sI666
F0.586
sI667
F0.586
sI668
F0.586
sI669
F0.586
sI670
F0.586
sI671
F0.586
sI672
F0.586
sI673
F0.586
sI674
F0.586
sI675
F0.586
sI676
F0.586
sI677
F0.586
sI678
F0.586
sI679
F0.586
sI680
F0.586
sI681
F0.586
sI682
F0.586
sI683
F0.586
sI684
F0.586
sI685
F0.586
sI686
F0.586
sI687
F0.789
sI688
F0.789
sI689
F0.789
sI690
F0.789
sI691
F0.789
sI692
F0.789
sI693
F0.789
sI694
F0.789
sI695
F0.789
sI696
F0.789
sI697
F0.789
sI698
F0.789
sI699
F0.789
sI700
F0.789
sI701
F0.789
sI702
F0.789
sI703
F0.789
sI704
F0.789
sI705
F0.789
sI706
F0.789
sI707
F0.789
sI708
F0.789
sI709
F0.789
sI710
F0.789
sI711
F0.789
sI712
F0.789
sI713
F0.789
sI714
F0.789
sI715
F0.789
sI716
F0.789
sI717
F0.789
sI718
F0.789
sI719
F0.789
sI720
F0.789
sI721
F0.789
sI722
F0.789
sI723
F0.789
sI724
F0.789
sI725
F0.789
sI726
F0.789
sI727
F0.789
sI728
F0.789
sI729
F0.789
sI730
F0.789
sI731
F0.789
sI732
F0.789
sI733
F0.789
sI734
F0.789
sI735
F0.789
sI736
F0.789
sI737
F0.789
sI738
F0.789
sI739
F0.789
sI740
F0.789
sI741
F0.789
sI742
F0.789
sI743
F0.789
sI744
F0.789
sI745
F0.789
sI746
F0.789
sI747
F0.789
sI748
F0.789
sI749
F0.789
sI750
F0.789
sI751
F0.789
sI752
F0.789
sI753
F0.789
sI754
F0.789
sI755
F0.789
sI756
F0.789
sI757
F0.789
sI758
F0.789
sI759
F0.789
sI760
F0.789
sI761
F0.789
sI762
F0.789
sI763
F0.789
sI764
F0.789
sI765
F0.789
sI766
F0.789
sI767
F0.789
sI768
F0.789
sI769
F0.789
sI770
F0.789
sI771
F0.789
sI772
F0.789
sI773
F0.789
sI774
F0.789
sI775
F0.789
sI776
F0.789
sI777
F0.789
sI778
F0.789
sI779
F0.789
sI780
F0.789
sI781
F0.789
sI782
F0.789
sI783
F0.789
sI784
F0.789
sI785
F0.789
sI786
F0.789
sI787
F0.789
sI788
F0.789
sI789
F0.789
sI790
F0.789
sI791
F0.789
sI792
F0.789
sI793
F0.789
sI794
F0.789
sI795
F0.789
sI796
F0.789
sI797
F0.789
sI798
F0.789
sI799
F0.789
sI800
F0.789
sI801
F0.789
sI802
F0.789
sI803
F0.789
sI804
F0.789
sI805
F0.789
sI806
F0.789
sI807
F0.789
sI808
F0.789
sI809
F0.789
sI810
F0.789
sI811
F0.789
sI812
F0.789
sI813
F0.789
sI814
F0.789
sI815
F0.789
sI816
F0.789
sI817
F0.789
sI818
F0.789
sI819
F0.789
sI820
F0.789
sI821
F0.789
sI822
F0.789
sI823
F0.789
sI824
F0.789
sI825
F0.789
sI826
F0.789
sI827
F0.789
sI828
F0.789
sI829
F0.789
sI830
F0.789
sI831
F0.789
sI832
F0.789
sI833
F0.789
sI834
F0.789
sI835
F0.789
sI836
F0.789
sI837
F0.789
sI838
F0.789
sI839
F0.789
sI840
F0.789
sI841
F0.789
sI842
F0.789
sI843
F0.789
sI844
F0.789
sI845
F0.789
sI846
F0.789
sI847
F0.789
sI848
F0.789
sI849
F0.789
sI850
F0.789
sI851
F0.789
sI852
F0.789
sI853
F0.789
sI854
F0.789
sI855
F0.789
sI856
F0.789
sI857
F0.789
sI858
F0.789
sI859
F0.789
sI860
F0.789
sI861
F0.789
sI862
F0.789
sI863
F0.789
sI864
F0.789
sI865
F0.789
sI866
F0.789
sI867
F0.789
sI868
F0.789
sI869
F0.789
sI870
F0.789
sI871
F0.789
sI872
F0.789
sI873
F0.789
sI874
F0.789
sI875
F0.789
sI876
F0.789
sI877
F0.789
sI878
F0.789
sI879
F0.789
sI880
F0.789
sI881
F0.789
sI882
F0.789
sI883
F0.789
sI884
F0.789
sI885
F0.789
sI886
F0.789
sI887
F0.789
sI888
F0.789
sI889
F0.789
sI890
F0.789
sI891
F0.789
sI892
F0.789
sI893
F0.789
sI894
F0.789
sI895
F0.789
sI896
F0.789
sI897
F0.789
sI898
F0.789
sI899
F0.789
sI900
F0.789
sI901
F0.789
sI902
F0.789
sI903
F0.789
sI904
F0.789
sI905
F0.789
sI906
F0.789
sI907
F0.789
sI908
F0.789
sI909
F0.789
sI910
F0.789
sI911
F0.789
sI912
F0.789
sI913
F0.789
sI914
F0.789
sI915
F0.789
sI916
F0.789
sI917
F0.789
sI918
F0.789
sI919
F0.789
sI920
F0.789
sI921
F0.789
sI922
F0.789
sI923
F0.789
sI924
F0.789
sI925
F0.789
sI926
F0.789
sI927
F0.789
sI928
F0.789
sI929
F0.789
sI930
F0.789
sI931
F0.789
sI932
F0.789
sI933
F0.789
sI934
F0.789
sI935
F0.789
sI936
F0.789
sI937
F0.789
sI938
F0.789
sI939
F0.789
sI940
F0.789
sI941
F0.789
sI942
F0.789
sI943
F0.789
sI944
F0.789
sI945
F0.789
sI946
F0.789
sI947
F0.789
sI948
F0.789
sI949
F0.789
sI950
F0.789
sI951
F0.789
sI952
F0.789
sI953
F0.789
sI954
F0.789
sI955
F0.789
sI956
F0.789
sI957
F0.789
sI958
F0.789
sI959
F0.789
sI960
F0.789
sI961
F0.789
sI962
F0.789
sI963
F0.789
sI964
F0.789
sI965
F0.789
sI966
F0.789
sI967
F0.789
sI968
F0.789
sI969
F0.789
sI970
F0.789
sI971
F0.789
sI972
F0.789
sI973
F0.789
sI974
F0.789
sI975
F0.789
sI976
F0.789
sI977
F0.789
sI978
F0.789
sI979
F0.789
sI980
F0.789
sI981
F0.789
sI982
F0.789
sI983
F0.789
sI984
F0.789
sI985
F0.789
sI986
F0.789
sI987
F0.789
sI988
F0.789
sI989
F0.789
sI990
F0.789
sI991
F0.789
sI992
F0.789
sI993
F0.789
sI994
F0.789
sI995
F0.789
sI996
F0.789
sI997
F0.789
sI998
F0.789
sI999
F0.789
ssF0.05
(dp3
I0
F0.4
sI1
F0.55
sI2
F0.55
sI3
F0.55
sI4
F0.55
sI5
F0.55
sI6
F0.717
sI7
F0.717
sI8
F0.717
sI9
F0.717
sI10
F0.717
sI11
F0.717
sI12
F0.717
sI13
F0.717
sI14
F0.717
sI15
F0.717
sI16
F0.717
sI17
F0.717
sI18
F0.717
sI19
F0.717
sI20
F0.717
sI21
F0.717
sI22
F0.717
sI23
F0.717
sI24
F0.717
sI25
F0.717
sI26
F0.717
sI27
F0.717
sI28
F0.717
sI29
F0.717
sI30
F0.717
sI31
F0.717
sI32
F0.717
sI33
F0.717
sI34
F0.717
sI35
F0.717
sI36
F0.717
sI37
F0.717
sI38
F0.717
sI39
F0.717
sI40
F0.717
sI41
F0.717
sI42
F0.717
sI43
F0.717
sI44
F0.717
sI45
F0.717
sI46
F0.717
sI47
F0.717
sI48
F0.717
sI49
F0.717
sI50
F0.717
sI51
F0.717
sI52
F0.717
sI53
F0.717
sI54
F0.717
sI55
F0.717
sI56
F0.717
sI57
F0.717
sI58
F0.717
sI59
F0.717
sI60
F0.717
sI61
F0.717
sI62
F0.717
sI63
F0.717
sI64
F0.717
sI65
F0.717
sI66
F0.717
sI67
F0.717
sI68
F0.717
sI69
F0.717
sI70
F0.717
sI71
F0.717
sI72
F0.717
sI73
F0.717
sI74
F0.717
sI75
F0.717
sI76
F0.717
sI77
F0.717
sI78
F0.717
sI79
F0.717
sI80
F0.717
sI81
F0.717
sI82
F0.717
sI83
F0.717
sI84
F0.717
sI85
F0.717
sI86
F0.717
sI87
F0.717
sI88
F0.717
sI89
F0.717
sI90
F0.717
sI91
F0.717
sI92
F0.717
sI93
F0.717
sI94
F0.717
sI95
F0.717
sI96
F0.717
sI97
F0.717
sI98
F0.717
sI99
F0.717
sI100
F0.717
sI101
F0.717
sI102
F0.717
sI103
F0.717
sI104
F0.717
sI105
F0.717
sI106
F0.717
sI107
F0.717
sI108
F0.717
sI109
F0.717
sI110
F0.717
sI111
F0.717
sI112
F0.717
sI113
F0.717
sI114
F0.717
sI115
F0.717
sI116
F0.717
sI117
F0.717
sI118
F0.717
sI119
F0.717
sI120
F0.717
sI121
F0.717
sI122
F0.717
sI123
F0.717
sI124
F0.717
sI125
F0.717
sI126
F0.717
sI127
F0.717
sI128
F0.717
sI129
F0.717
sI130
F0.717
sI131
F0.717
sI132
F0.717
sI133
F0.717
sI134
F0.717
sI135
F0.717
sI136
F0.717
sI137
F0.717
sI138
F0.717
sI139
F0.717
sI140
F0.717
sI141
F0.717
sI142
F0.717
sI143
F0.717
sI144
F0.717
sI145
F0.717
sI146
F0.717
sI147
F0.717
sI148
F0.717
sI149
F0.717
sI150
F0.717
sI151
F0.717
sI152
F0.717
sI153
F0.717
sI154
F0.717
sI155
F0.717
sI156
F0.717
sI157
F0.717
sI158
F0.717
sI159
F0.717
sI160
F0.717
sI161
F0.717
sI162
F0.717
sI163
F0.717
sI164
F0.717
sI165
F0.717
sI166
F0.717
sI167
F0.717
sI168
F0.717
sI169
F0.717
sI170
F0.717
sI171
F0.717
sI172
F0.717
sI173
F0.717
sI174
F0.717
sI175
F0.717
sI176
F0.717
sI177
F0.717
sI178
F0.717
sI179
F0.717
sI180
F0.717
sI181
F0.717
sI182
F0.717
sI183
F0.717
sI184
F0.717
sI185
F0.717
sI186
F0.717
sI187
F0.717
sI188
F0.717
sI189
F0.717
sI190
F0.717
sI191
F0.717
sI192
F0.717
sI193
F0.717
sI194
F0.717
sI195
F0.717
sI196
F0.717
sI197
F0.717
sI198
F0.717
sI199
F0.717
sI200
F0.717
sI201
F0.717
sI202
F0.717
sI203
F0.717
sI204
F0.717
sI205
F0.717
sI206
F0.717
sI207
F0.717
sI208
F0.717
sI209
F0.717
sI210
F0.717
sI211
F0.717
sI212
F0.717
sI213
F0.717
sI214
F0.717
sI215
F0.717
sI216
F0.717
sI217
F0.717
sI218
F0.717
sI219
F0.717
sI220
F0.717
sI221
F0.717
sI222
F0.717
sI223
F0.717
sI224
F0.717
sI225
F0.717
sI226
F0.717
sI227
F0.717
sI228
F0.717
sI229
F0.717
sI230
F0.717
sI231
F0.717
sI232
F0.717
sI233
F0.717
sI234
F0.717
sI235
F0.717
sI236
F0.717
sI237
F0.717
sI238
F0.717
sI239
F0.717
sI240
F0.717
sI241
F0.717
sI242
F0.717
sI243
F0.717
sI244
F0.717
sI245
F0.717
sI246
F0.717
sI247
F0.717
sI248
F0.717
sI249
F0.717
sI250
F0.717
sI251
F0.717
sI252
F0.717
sI253
F0.717
sI254
F0.717
sI255
F0.717
sI256
F0.717
sI257
F0.717
sI258
F0.717
sI259
F0.717
sI260
F0.717
sI261
F0.717
sI262
F0.717
sI263
F0.717
sI264
F0.717
sI265
F0.717
sI266
F0.717
sI267
F0.717
sI268
F0.717
sI269
F0.717
sI270
F0.717
sI271
F0.717
sI272
F0.717
sI273
F0.717
sI274
F0.717
sI275
F0.717
sI276
F0.717
sI277
F0.717
sI278
F0.717
sI279
F0.717
sI280
F0.717
sI281
F0.717
sI282
F0.717
sI283
F0.717
sI284
F0.717
sI285
F0.717
sI286
F0.717
sI287
F0.717
sI288
F0.717
sI289
F0.717
sI290
F0.717
sI291
F0.717
sI292
F0.717
sI293
F0.717
sI294
F0.717
sI295
F0.717
sI296
F0.717
sI297
F0.717
sI298
F0.717
sI299
F0.717
sI300
F0.717
sI301
F0.717
sI302
F0.717
sI303
F0.717
sI304
F0.717
sI305
F0.717
sI306
F0.717
sI307
F0.717
sI308
F0.717
sI309
F0.717
sI310
F0.717
sI311
F0.717
sI312
F0.717
sI313
F0.717
sI314
F0.717
sI315
F0.717
sI316
F0.717
sI317
F0.717
sI318
F0.717
sI319
F0.717
sI320
F0.717
sI321
F0.717
sI322
F0.717
sI323
F0.717
sI324
F0.717
sI325
F0.717
sI326
F0.717
sI327
F0.717
sI328
F0.717
sI329
F0.717
sI330
F0.717
sI331
F0.717
sI332
F0.717
sI333
F0.717
sI334
F0.717
sI335
F0.717
sI336
F0.717
sI337
F0.717
sI338
F0.717
sI339
F0.717
sI340
F0.717
sI341
F0.717
sI342
F0.717
sI343
F0.717
sI344
F0.717
sI345
F0.717
sI346
F0.717
sI347
F0.717
sI348
F0.717
sI349
F0.717
sI350
F0.717
sI351
F0.717
sI352
F0.717
sI353
F0.717
sI354
F0.717
sI355
F0.717
sI356
F0.717
sI357
F0.717
sI358
F0.717
sI359
F0.717
sI360
F0.717
sI361
F0.717
sI362
F0.717
sI363
F0.717
sI364
F0.717
sI365
F0.717
sI366
F0.717
sI367
F0.717
sI368
F0.717
sI369
F0.717
sI370
F0.717
sI371
F0.717
sI372
F0.717
sI373
F0.717
sI374
F0.717
sI375
F0.717
sI376
F0.717
sI377
F0.717
sI378
F0.717
sI379
F0.717
sI380
F0.717
sI381
F0.717
sI382
F0.717
sI383
F0.717
sI384
F0.717
sI385
F0.717
sI386
F0.717
sI387
F0.717
sI388
F0.717
sI389
F0.717
sI390
F0.717
sI391
F0.717
sI392
F0.717
sI393
F0.717
sI394
F0.717
sI395
F0.717
sI396
F0.717
sI397
F0.717
sI398
F0.717
sI399
F0.717
sI400
F0.717
sI401
F0.717
sI402
F0.717
sI403
F0.717
sI404
F0.717
sI405
F0.717
sI406
F0.717
sI407
F0.717
sI408
F0.717
sI409
F0.784
sI410
F0.784
sI411
F0.784
sI412
F0.784
sI413
F0.784
sI414
F0.784
sI415
F0.784
sI416
F0.784
sI417
F0.784
sI418
F0.784
sI419
F0.784
sI420
F0.784
sI421
F0.784
sI422
F0.784
sI423
F0.784
sI424
F0.784
sI425
F0.784
sI426
F0.784
sI427
F0.784
sI428
F0.784
sI429
F0.784
sI430
F0.784
sI431
F0.784
sI432
F0.784
sI433
F0.784
sI434
F0.784
sI435
F0.784
sI436
F0.784
sI437
F0.784
sI438
F0.784
sI439
F0.784
sI440
F0.784
sI441
F0.784
sI442
F0.784
sI443
F0.784
sI444
F0.784
sI445
F0.784
sI446
F0.784
sI447
F0.784
sI448
F0.784
sI449
F0.784
sI450
F0.784
sI451
F0.784
sI452
F0.784
sI453
F0.784
sI454
F0.784
sI455
F0.784
sI456
F0.784
sI457
F0.784
sI458
F0.784
sI459
F0.784
sI460
F0.784
sI461
F0.784
sI462
F0.784
sI463
F0.784
sI464
F0.784
sI465
F0.784
sI466
F0.784
sI467
F0.784
sI468
F0.784
sI469
F0.784
sI470
F0.784
sI471
F0.784
sI472
F0.784
sI473
F0.784
sI474
F0.784
sI475
F0.784
sI476
F0.784
sI477
F0.784
sI478
F0.784
sI479
F0.784
sI480
F0.784
sI481
F0.784
sI482
F0.784
sI483
F0.784
sI484
F0.784
sI485
F0.784
sI486
F0.784
sI487
F0.784
sI488
F0.784
sI489
F0.784
sI490
F0.784
sI491
F0.784
sI492
F0.784
sI493
F0.784
sI494
F0.784
sI495
F0.784
sI496
F0.784
sI497
F0.784
sI498
F0.784
sI499
F0.784
sI500
F0.784
sI501
F0.784
sI502
F0.784
sI503
F0.784
sI504
F0.784
sI505
F0.784
sI506
F0.784
sI507
F0.784
sI508
F0.784
sI509
F0.784
sI510
F0.784
sI511
F0.784
sI512
F0.784
sI513
F0.784
sI514
F0.784
sI515
F0.784
sI516
F0.784
sI517
F0.784
sI518
F0.784
sI519
F0.784
sI520
F0.784
sI521
F0.784
sI522
F0.784
sI523
F0.784
sI524
F0.784
sI525
F0.784
sI526
F0.784
sI527
F0.784
sI528
F0.784
sI529
F0.784
sI530
F0.784
sI531
F0.784
sI532
F0.784
sI533
F0.784
sI534
F0.784
sI535
F0.784
sI536
F0.784
sI537
F0.784
sI538
F0.784
sI539
F0.784
sI540
F0.784
sI541
F0.784
sI542
F0.784
sI543
F0.784
sI544
F0.784
sI545
F0.784
sI546
F0.784
sI547
F0.784
sI548
F0.784
sI549
F0.784
sI550
F0.784
sI551
F0.784
sI552
F0.784
sI553
F0.784
sI554
F0.784
sI555
F0.784
sI556
F0.784
sI557
F0.784
sI558
F0.784
sI559
F0.784
sI560
F0.784
sI561
F0.784
sI562
F0.784
sI563
F0.784
sI564
F0.784
sI565
F0.784
sI566
F0.784
sI567
F0.784
sI568
F0.784
sI569
F0.784
sI570
F0.784
sI571
F0.784
sI572
F0.784
sI573
F0.784
sI574
F0.784
sI575
F0.784
sI576
F0.784
sI577
F0.784
sI578
F0.784
sI579
F0.784
sI580
F0.784
sI581
F0.784
sI582
F0.784
sI583
F0.784
sI584
F0.784
sI585
F0.784
sI586
F0.784
sI587
F0.784
sI588
F0.784
sI589
F0.784
sI590
F0.784
sI591
F0.784
sI592
F0.784
sI593
F0.784
sI594
F0.784
sI595
F0.784
sI596
F0.784
sI597
F0.784
sI598
F0.784
sI599
F0.784
sI600
F0.784
sI601
F0.784
sI602
F0.784
sI603
F0.784
sI604
F0.784
sI605
F0.784
sI606
F0.784
sI607
F0.784
sI608
F0.784
sI609
F0.784
sI610
F0.784
sI611
F0.784
sI612
F0.784
sI613
F0.784
sI614
F0.784
sI615
F0.784
sI616
F0.784
sI617
F0.784
sI618
F0.784
sI619
F0.784
sI620
F0.784
sI621
F0.784
sI622
F0.784
sI623
F0.784
sI624
F0.784
sI625
F0.784
sI626
F0.784
sI627
F0.784
sI628
F0.784
sI629
F0.784
sI630
F0.784
sI631
F0.784
sI632
F0.784
sI633
F0.784
sI634
F0.784
sI635
F0.784
sI636
F0.784
sI637
F0.784
sI638
F0.784
sI639
F0.784
sI640
F0.784
sI641
F0.784
sI642
F0.784
sI643
F0.784
sI644
F0.784
sI645
F0.784
sI646
F0.784
sI647
F0.784
sI648
F0.784
sI649
F0.784
sI650
F0.784
sI651
F0.784
sI652
F0.784
sI653
F0.784
sI654
F0.784
sI655
F0.784
sI656
F0.784
sI657
F0.784
sI658
F0.784
sI659
F0.784
sI660
F0.784
sI661
F0.784
sI662
F0.784
sI663
F0.784
sI664
F0.784
sI665
F0.784
sI666
F0.784
sI667
F0.784
sI668
F0.784
sI669
F0.784
sI670
F0.784
sI671
F0.784
sI672
F0.784
sI673
F0.784
sI674
F0.784
sI675
F0.784
sI676
F0.784
sI677
F0.784
sI678
F0.784
sI679
F0.784
sI680
F0.784
sI681
F0.784
sI682
F0.784
sI683
F0.784
sI684
F0.784
sI685
F0.784
sI686
F0.784
sI687
F0.784
sI688
F0.784
sI689
F0.784
sI690
F0.784
sI691
F0.784
sI692
F0.784
sI693
F0.784
sI694
F0.784
sI695
F0.784
sI696
F0.784
sI697
F0.784
sI698
F0.784
sI699
F0.784
sI700
F0.784
sI701
F0.784
sI702
F0.784
sI703
F0.784
sI704
F0.784
sI705
F0.784
sI706
F0.784
sI707
F0.784
sI708
F0.784
sI709
F0.784
sI710
F0.784
sI711
F0.784
sI712
F0.784
sI713
F0.784
sI714
F0.784
sI715
F0.784
sI716
F0.784
sI717
F0.784
sI718
F0.784
sI719
F0.784
sI720
F0.784
sI721
F0.784
sI722
F0.784
sI723
F0.784
sI724
F0.784
sI725
F0.784
sI726
F0.784
sI727
F0.784
sI728
F0.784
sI729
F0.784
sI730
F0.784
sI731
F0.784
sI732
F0.784
sI733
F0.784
sI734
F0.784
sI735
F0.784
sI736
F0.784
sI737
F0.784
sI738
F0.784
sI739
F0.784
sI740
F0.784
sI741
F0.784
sI742
F0.784
sI743
F0.784
sI744
F0.784
sI745
F0.784
sI746
F0.784
sI747
F0.784
sI748
F0.784
sI749
F0.784
sI750
F0.784
sI751
F0.784
sI752
F0.784
sI753
F0.784
sI754
F0.784
sI755
F0.784
sI756
F0.784
sI757
F0.784
sI758
F0.784
sI759
F0.784
sI760
F0.784
sI761
F0.784
sI762
F0.784
sI763
F0.784
sI764
F0.784
sI765
F0.784
sI766
F0.784
sI767
F0.784
sI768
F0.784
sI769
F0.784
sI770
F0.784
sI771
F0.784
sI772
F0.784
sI773
F0.784
sI774
F0.784
sI775
F0.784
sI776
F0.784
sI777
F0.784
sI778
F0.784
sI779
F0.784
sI780
F0.784
sI781
F0.784
sI782
F0.784
sI783
F0.784
sI784
F0.784
sI785
F0.784
sI786
F0.784
sI787
F0.784
sI788
F0.784
sI789
F0.784
sI790
F0.784
sI791
F0.784
sI792
F0.784
sI793
F0.784
sI794
F0.784
sI795
F0.784
sI796
F0.784
sI797
F0.784
sI798
F0.784
sI799
F0.784
sI800
F0.784
sI801
F0.784
sI802
F0.784
sI803
F0.784
sI804
F0.784
sI805
F0.784
sI806
F0.784
sI807
F0.784
sI808
F0.784
sI809
F0.784
sI810
F0.784
sI811
F0.784
sI812
F0.784
sI813
F0.784
sI814
F0.784
sI815
F0.784
sI816
F0.784
sI817
F0.784
sI818
F0.784
sI819
F0.784
sI820
F0.784
sI821
F0.784
sI822
F0.784
sI823
F0.784
sI824
F0.784
sI825
F0.784
sI826
F0.784
sI827
F0.784
sI828
F0.784
sI829
F0.784
sI830
F0.784
sI831
F0.784
sI832
F0.784
sI833
F0.784
sI834
F0.784
sI835
F0.784
sI836
F0.784
sI837
F0.784
sI838
F0.784
sI839
F0.784
sI840
F0.784
sI841
F0.784
sI842
F0.784
sI843
F0.784
sI844
F0.784
sI845
F0.784
sI846
F0.784
sI847
F0.784
sI848
F0.784
sI849
F0.784
sI850
F0.784
sI851
F0.784
sI852
F0.784
sI853
F0.784
sI854
F0.784
sI855
F0.784
sI856
F0.784
sI857
F0.784
sI858
F0.784
sI859
F0.784
sI860
F0.784
sI861
F0.784
sI862
F0.784
sI863
F0.784
sI864
F0.784
sI865
F0.784
sI866
F0.784
sI867
F0.784
sI868
F0.784
sI869
F0.784
sI870
F0.784
sI871
F0.784
sI872
F0.784
sI873
F0.784
sI874
F0.784
sI875
F0.784
sI876
F0.784
sI877
F0.784
sI878
F0.784
sI879
F0.784
sI880
F0.784
sI881
F0.784
sI882
F0.784
sI883
F0.784
sI884
F0.784
sI885
F0.784
sI886
F0.784
sI887
F0.784
sI888
F0.784
sI889
F0.784
sI890
F0.784
sI891
F0.784
sI892
F0.784
sI893
F0.784
sI894
F0.784
sI895
F0.784
sI896
F0.784
sI897
F0.784
sI898
F0.784
sI899
F0.784
sI900
F0.784
sI901
F0.784
sI902
F0.784
sI903
F0.784
sI904
F0.784
sI905
F0.784
sI906
F0.784
sI907
F0.784
sI908
F0.784
sI909
F0.784
sI910
F0.784
sI911
F0.784
sI912
F0.784
sI913
F0.784
sI914
F0.784
sI915
F0.784
sI916
F0.784
sI917
F0.784
sI918
F0.784
sI919
F0.784
sI920
F0.784
sI921
F0.784
sI922
F0.784
sI923
F0.784
sI924
F0.784
sI925
F0.784
sI926
F0.784
sI927
F0.784
sI928
F0.784
sI929
F0.784
sI930
F0.784
sI931
F0.784
sI932
F0.784
sI933
F0.784
sI934
F0.784
sI935
F0.784
sI936
F0.784
sI937
F0.784
sI938
F0.784
sI939
F0.784
sI940
F0.784
sI941
F0.784
sI942
F0.784
sI943
F0.784
sI944
F0.784
sI945
F0.784
sI946
F0.784
sI947
F0.784
sI948
F0.784
sI949
F0.784
sI950
F0.784
sI951
F0.784
sI952
F0.784
sI953
F0.784
sI954
F0.784
sI955
F0.784
sI956
F0.784
sI957
F0.784
sI958
F0.784
sI959
F0.784
sI960
F0.784
sI961
F0.784
sI962
F0.784
sI963
F0.784
sI964
F0.784
sI965
F0.784
sI966
F0.784
sI967
F0.784
sI968
F0.784
sI969
F0.784
sI970
F0.784
sI971
F0.784
sI972
F0.784
sI973
F0.784
sI974
F0.784
sI975
F0.784
sI976
F0.784
sI977
F0.784
sI978
F0.784
sI979
F0.784
sI980
F0.784
sI981
F0.784
sI982
F0.784
sI983
F0.784
sI984
F0.784
sI985
F0.784
sI986
F0.784
sI987
F0.784
sI988
F0.784
sI989
F0.784
sI990
F0.784
sI991
F0.784
sI992
F0.784
sI993
F0.784
sI994
F0.784
sI995
F0.784
sI996
F0.784
sI997
F0.784
sI998
F0.784
sI999
F0.784
ssF0.025
(dp4
I0
F0.594
sI1
F0.594
sI2
F0.594
sI3
F0.594
sI4
F0.594
sI5
F0.594
sI6
F0.594
sI7
F0.594
sI8
F0.594
sI9
F0.594
sI10
F0.594
sI11
F0.594
sI12
F0.594
sI13
F0.594
sI14
F0.594
sI15
F0.594
sI16
F0.594
sI17
F0.594
sI18
F0.594
sI19
F0.594
sI20
F0.594
sI21
F0.594
sI22
F0.594
sI23
F0.594
sI24
F0.594
sI25
F0.594
sI26
F0.594
sI27
F0.594
sI28
F0.594
sI29
F0.787
sI30
F0.787
sI31
F0.787
sI32
F0.787
sI33
F0.787
sI34
F0.787
sI35
F0.787
sI36
F0.787
sI37
F0.787
sI38
F0.787
sI39
F0.787
sI40
F0.787
sI41
F0.787
sI42
F0.787
sI43
F0.787
sI44
F0.787
sI45
F0.787
sI46
F0.787
sI47
F0.787
sI48
F0.787
sI49
F0.787
sI50
F0.787
sI51
F0.787
sI52
F0.787
sI53
F0.787
sI54
F0.787
sI55
F0.787
sI56
F0.787
sI57
F0.787
sI58
F0.787
sI59
F0.787
sI60
F0.787
sI61
F0.787
sI62
F0.787
sI63
F0.787
sI64
F0.787
sI65
F0.787
sI66
F0.787
sI67
F0.787
sI68
F0.787
sI69
F0.787
sI70
F0.787
sI71
F0.787
sI72
F0.787
sI73
F0.787
sI74
F0.787
sI75
F0.787
sI76
F0.787
sI77
F0.787
sI78
F0.787
sI79
F0.787
sI80
F0.787
sI81
F0.787
sI82
F0.787
sI83
F0.787
sI84
F0.787
sI85
F0.787
sI86
F0.787
sI87
F0.787
sI88
F0.787
sI89
F0.787
sI90
F0.787
sI91
F0.787
sI92
F0.787
sI93
F0.787
sI94
F0.787
sI95
F0.787
sI96
F0.787
sI97
F0.787
sI98
F0.787
sI99
F0.787
sI100
F0.787
sI101
F0.787
sI102
F0.787
sI103
F0.787
sI104
F0.787
sI105
F0.787
sI106
F0.787
sI107
F0.787
sI108
F0.787
sI109
F0.787
sI110
F0.787
sI111
F0.787
sI112
F0.787
sI113
F0.787
sI114
F0.787
sI115
F0.787
sI116
F0.787
sI117
F0.787
sI118
F0.787
sI119
F0.787
sI120
F0.787
sI121
F0.787
sI122
F0.787
sI123
F0.787
sI124
F0.787
sI125
F0.787
sI126
F0.787
sI127
F0.787
sI128
F0.787
sI129
F0.787
sI130
F0.787
sI131
F0.787
sI132
F0.787
sI133
F0.787
sI134
F0.787
sI135
F0.787
sI136
F0.787
sI137
F0.787
sI138
F0.787
sI139
F0.787
sI140
F0.787
sI141
F0.787
sI142
F0.787
sI143
F0.787
sI144
F0.787
sI145
F0.787
sI146
F0.787
sI147
F0.787
sI148
F0.787
sI149
F0.787
sI150
F0.787
sI151
F0.787
sI152
F0.787
sI153
F0.787
sI154
F0.787
sI155
F0.787
sI156
F0.787
sI157
F0.787
sI158
F0.787
sI159
F0.787
sI160
F0.787
sI161
F0.787
sI162
F0.787
sI163
F0.787
sI164
F0.787
sI165
F0.787
sI166
F0.787
sI167
F0.787
sI168
F0.787
sI169
F0.787
sI170
F0.787
sI171
F0.787
sI172
F0.787
sI173
F0.787
sI174
F0.787
sI175
F0.787
sI176
F0.787
sI177
F0.787
sI178
F0.787
sI179
F0.787
sI180
F0.787
sI181
F0.787
sI182
F0.787
sI183
F0.787
sI184
F0.787
sI185
F0.787
sI186
F0.787
sI187
F0.787
sI188
F0.787
sI189
F0.787
sI190
F0.787
sI191
F0.787
sI192
F0.787
sI193
F0.787
sI194
F0.787
sI195
F0.787
sI196
F0.787
sI197
F0.787
sI198
F0.787
sI199
F0.787
sI200
F0.787
sI201
F0.787
sI202
F0.787
sI203
F0.787
sI204
F0.787
sI205
F0.787
sI206
F0.787
sI207
F0.787
sI208
F0.787
sI209
F0.787
sI210
F0.787
sI211
F0.787
sI212
F0.787
sI213
F0.787
sI214
F0.787
sI215
F0.787
sI216
F0.787
sI217
F0.787
sI218
F0.787
sI219
F0.787
sI220
F0.787
sI221
F0.787
sI222
F0.787
sI223
F0.787
sI224
F0.787
sI225
F0.787
sI226
F0.787
sI227
F0.787
sI228
F0.787
sI229
F0.787
sI230
F0.787
sI231
F0.787
sI232
F0.787
sI233
F0.787
sI234
F0.787
sI235
F0.787
sI236
F0.787
sI237
F0.787
sI238
F0.787
sI239
F0.787
sI240
F0.787
sI241
F0.787
sI242
F0.787
sI243
F0.787
sI244
F0.787
sI245
F0.787
sI246
F0.787
sI247
F0.787
sI248
F0.787
sI249
F0.787
sI250
F0.787
sI251
F0.787
sI252
F0.787
sI253
F0.787
sI254
F0.787
sI255
F0.787
sI256
F0.787
sI257
F0.787
sI258
F0.787
sI259
F0.787
sI260
F0.787
sI261
F0.787
sI262
F0.787
sI263
F0.787
sI264
F0.787
sI265
F0.787
sI266
F0.787
sI267
F0.787
sI268
F0.787
sI269
F0.787
sI270
F0.787
sI271
F0.787
sI272
F0.787
sI273
F0.787
sI274
F0.787
sI275
F0.787
sI276
F0.787
sI277
F0.787
sI278
F0.787
sI279
F0.787
sI280
F0.787
sI281
F0.787
sI282
F0.787
sI283
F0.787
sI284
F0.787
sI285
F0.787
sI286
F0.787
sI287
F0.787
sI288
F0.787
sI289
F0.787
sI290
F0.787
sI291
F0.787
sI292
F0.787
sI293
F0.787
sI294
F0.787
sI295
F0.787
sI296
F0.787
sI297
F0.787
sI298
F0.787
sI299
F0.787
sI300
F0.787
sI301
F0.787
sI302
F0.787
sI303
F0.787
sI304
F0.787
sI305
F0.787
sI306
F0.787
sI307
F0.787
sI308
F0.787
sI309
F0.787
sI310
F0.787
sI311
F0.787
sI312
F0.787
sI313
F0.787
sI314
F0.787
sI315
F0.787
sI316
F0.787
sI317
F0.787
sI318
F0.787
sI319
F0.787
sI320
F0.787
sI321
F0.787
sI322
F0.787
sI323
F0.787
sI324
F0.787
sI325
F0.787
sI326
F0.787
sI327
F0.787
sI328
F0.787
sI329
F0.787
sI330
F0.787
sI331
F0.787
sI332
F0.787
sI333
F0.787
sI334
F0.787
sI335
F0.787
sI336
F0.787
sI337
F0.787
sI338
F0.787
sI339
F0.787
sI340
F0.787
sI341
F0.787
sI342
F0.787
sI343
F0.787
sI344
F0.787
sI345
F0.787
sI346
F0.787
sI347
F0.787
sI348
F0.787
sI349
F0.787
sI350
F0.787
sI351
F0.787
sI352
F0.787
sI353
F0.787
sI354
F0.787
sI355
F0.787
sI356
F0.787
sI357
F0.787
sI358
F0.787
sI359
F0.787
sI360
F0.787
sI361
F0.787
sI362
F0.787
sI363
F0.787
sI364
F0.787
sI365
F0.787
sI366
F0.787
sI367
F0.787
sI368
F0.787
sI369
F0.787
sI370
F0.787
sI371
F0.787
sI372
F0.787
sI373
F0.787
sI374
F0.787
sI375
F0.787
sI376
F0.787
sI377
F0.787
sI378
F0.787
sI379
F0.787
sI380
F0.787
sI381
F0.787
sI382
F0.787
sI383
F0.787
sI384
F0.787
sI385
F0.787
sI386
F0.787
sI387
F0.787
sI388
F0.787
sI389
F0.787
sI390
F0.787
sI391
F0.787
sI392
F0.787
sI393
F0.787
sI394
F0.787
sI395
F0.787
sI396
F0.787
sI397
F0.787
sI398
F0.787
sI399
F0.787
sI400
F0.787
sI401
F0.787
sI402
F0.787
sI403
F0.787
sI404
F0.787
sI405
F0.787
sI406
F0.787
sI407
F0.787
sI408
F0.787
sI409
F0.787
sI410
F0.787
sI411
F0.787
sI412
F0.787
sI413
F0.787
sI414
F0.787
sI415
F0.787
sI416
F0.787
sI417
F0.787
sI418
F0.787
sI419
F0.787
sI420
F0.787
sI421
F0.787
sI422
F0.787
sI423
F0.787
sI424
F0.787
sI425
F0.787
sI426
F0.787
sI427
F0.787
sI428
F0.787
sI429
F0.787
sI430
F0.787
sI431
F0.787
sI432
F0.787
sI433
F0.787
sI434
F0.787
sI435
F0.787
sI436
F0.787
sI437
F0.787
sI438
F0.787
sI439
F0.787
sI440
F0.787
sI441
F0.787
sI442
F0.787
sI443
F0.787
sI444
F0.787
sI445
F0.787
sI446
F0.787
sI447
F0.787
sI448
F0.787
sI449
F0.787
sI450
F0.787
sI451
F0.787
sI452
F0.787
sI453
F0.787
sI454
F0.787
sI455
F0.787
sI456
F0.787
sI457
F0.787
sI458
F0.787
sI459
F0.787
sI460
F0.787
sI461
F0.787
sI462
F0.787
sI463
F0.787
sI464
F0.787
sI465
F0.787
sI466
F0.787
sI467
F0.787
sI468
F0.787
sI469
F0.787
sI470
F0.787
sI471
F0.787
sI472
F0.787
sI473
F0.787
sI474
F0.787
sI475
F0.787
sI476
F0.787
sI477
F0.787
sI478
F0.787
sI479
F0.787
sI480
F0.787
sI481
F0.787
sI482
F0.787
sI483
F0.787
sI484
F0.787
sI485
F0.787
sI486
F0.787
sI487
F0.787
sI488
F0.787
sI489
F0.787
sI490
F0.787
sI491
F0.787
sI492
F0.787
sI493
F0.787
sI494
F0.787
sI495
F0.787
sI496
F0.787
sI497
F0.787
sI498
F0.787
sI499
F0.787
sI500
F0.787
sI501
F0.787
sI502
F0.787
sI503
F0.787
sI504
F0.787
sI505
F0.787
sI506
F0.787
sI507
F0.787
sI508
F0.787
sI509
F0.787
sI510
F0.787
sI511
F0.787
sI512
F0.787
sI513
F0.787
sI514
F0.787
sI515
F0.787
sI516
F0.787
sI517
F0.787
sI518
F0.787
sI519
F0.787
sI520
F0.787
sI521
F0.787
sI522
F0.787
sI523
F0.787
sI524
F0.787
sI525
F0.787
sI526
F0.787
sI527
F0.787
sI528
F0.787
sI529
F0.787
sI530
F0.787
sI531
F0.787
sI532
F0.787
sI533
F0.787
sI534
F0.787
sI535
F0.787
sI536
F0.787
sI537
F0.787
sI538
F0.787
sI539
F0.787
sI540
F0.787
sI541
F0.787
sI542
F0.787
sI543
F0.787
sI544
F0.787
sI545
F0.787
sI546
F0.787
sI547
F0.787
sI548
F0.787
sI549
F0.787
sI550
F0.787
sI551
F0.787
sI552
F0.787
sI553
F0.787
sI554
F0.787
sI555
F0.787
sI556
F0.787
sI557
F0.787
sI558
F0.787
sI559
F0.787
sI560
F0.787
sI561
F0.787
sI562
F0.787
sI563
F0.787
sI564
F0.787
sI565
F0.787
sI566
F0.787
sI567
F0.787
sI568
F0.787
sI569
F0.787
sI570
F0.787
sI571
F0.787
sI572
F0.787
sI573
F0.787
sI574
F0.787
sI575
F0.787
sI576
F0.787
sI577
F0.787
sI578
F0.787
sI579
F0.787
sI580
F0.787
sI581
F0.787
sI582
F0.787
sI583
F0.787
sI584
F0.787
sI585
F0.787
sI586
F0.787
sI587
F0.787
sI588
F0.787
sI589
F0.787
sI590
F0.787
sI591
F0.787
sI592
F0.787
sI593
F0.787
sI594
F0.787
sI595
F0.787
sI596
F0.787
sI597
F0.787
sI598
F0.787
sI599
F0.787
sI600
F0.787
sI601
F0.787
sI602
F0.787
sI603
F0.787
sI604
F0.787
sI605
F0.787
sI606
F0.787
sI607
F0.787
sI608
F0.787
sI609
F0.787
sI610
F0.787
sI611
F0.787
sI612
F0.787
sI613
F0.787
sI614
F0.787
sI615
F0.787
sI616
F0.787
sI617
F0.787
sI618
F0.787
sI619
F0.787
sI620
F0.787
sI621
F0.787
sI622
F0.787
sI623
F0.787
sI624
F0.787
sI625
F0.787
sI626
F0.787
sI627
F0.787
sI628
F0.787
sI629
F0.787
sI630
F0.787
sI631
F0.787
sI632
F0.787
sI633
F0.787
sI634
F0.787
sI635
F0.787
sI636
F0.787
sI637
F0.787
sI638
F0.787
sI639
F0.787
sI640
F0.787
sI641
F0.787
sI642
F0.787
sI643
F0.787
sI644
F0.787
sI645
F0.787
sI646
F0.787
sI647
F0.787
sI648
F0.787
sI649
F0.787
sI650
F0.787
sI651
F0.787
sI652
F0.787
sI653
F0.787
sI654
F0.787
sI655
F0.787
sI656
F0.787
sI657
F0.787
sI658
F0.787
sI659
F0.787
sI660
F0.787
sI661
F0.787
sI662
F0.787
sI663
F0.787
sI664
F0.787
sI665
F0.787
sI666
F0.787
sI667
F0.787
sI668
F0.787
sI669
F0.787
sI670
F0.787
sI671
F0.787
sI672
F0.787
sI673
F0.787
sI674
F0.787
sI675
F0.787
sI676
F0.787
sI677
F0.787
sI678
F0.787
sI679
F0.787
sI680
F0.787
sI681
F0.787
sI682
F0.787
sI683
F0.787
sI684
F0.787
sI685
F0.787
sI686
F0.787
sI687
F0.787
sI688
F0.787
sI689
F0.787
sI690
F0.787
sI691
F0.787
sI692
F0.787
sI693
F0.787
sI694
F0.787
sI695
F0.787
sI696
F0.787
sI697
F0.787
sI698
F0.787
sI699
F0.787
sI700
F0.787
sI701
F0.787
sI702
F0.787
sI703
F0.787
sI704
F0.787
sI705
F0.787
sI706
F0.787
sI707
F0.787
sI708
F0.787
sI709
F0.787
sI710
F0.787
sI711
F0.787
sI712
F0.787
sI713
F0.787
sI714
F0.787
sI715
F0.787
sI716
F0.787
sI717
F0.787
sI718
F0.787
sI719
F0.787
sI720
F0.787
sI721
F0.824
sI722
F0.824
sI723
F0.824
sI724
F0.824
sI725
F0.824
sI726
F0.824
sI727
F0.824
sI728
F0.824
sI729
F0.824
sI730
F0.824
sI731
F0.824
sI732
F0.824
sI733
F0.824
sI734
F0.824
sI735
F0.824
sI736
F0.824
sI737
F0.824
sI738
F0.824
sI739
F0.824
sI740
F0.824
sI741
F0.824
sI742
F0.824
sI743
F0.824
sI744
F0.824
sI745
F0.824
sI746
F0.824
sI747
F0.824
sI748
F0.824
sI749
F0.824
sI750
F0.824
sI751
F0.824
sI752
F0.824
sI753
F0.824
sI754
F0.824
sI755
F0.824
sI756
F0.824
sI757
F0.824
sI758
F0.824
sI759
F0.824
sI760
F0.824
sI761
F0.824
sI762
F0.824
sI763
F0.824
sI764
F0.824
sI765
F0.824
sI766
F0.824
sI767
F0.824
sI768
F0.824
sI769
F0.824
sI770
F0.824
sI771
F0.824
sI772
F0.824
sI773
F0.824
sI774
F0.824
sI775
F0.824
sI776
F0.824
sI777
F0.824
sI778
F0.824
sI779
F0.824
sI780
F0.824
sI781
F0.824
sI782
F0.824
sI783
F0.824
sI784
F0.824
sI785
F0.824
sI786
F0.824
sI787
F0.824
sI788
F0.824
sI789
F0.824
sI790
F0.824
sI791
F0.824
sI792
F0.824
sI793
F0.824
sI794
F0.824
sI795
F0.824
sI796
F0.824
sI797
F0.824
sI798
F0.824
sI799
F0.824
sI800
F0.824
sI801
F0.824
sI802
F0.824
sI803
F0.824
sI804
F0.824
sI805
F0.824
sI806
F0.824
sI807
F0.824
sI808
F0.824
sI809
F0.824
sI810
F0.824
sI811
F0.824
sI812
F0.824
sI813
F0.824
sI814
F0.824
sI815
F0.824
sI816
F0.824
sI817
F0.824
sI818
F0.824
sI819
F0.824
sI820
F0.824
sI821
F0.824
sI822
F0.824
sI823
F0.824
sI824
F0.824
sI825
F0.824
sI826
F0.824
sI827
F0.824
sI828
F0.824
sI829
F0.824
sI830
F0.824
sI831
F0.824
sI832
F0.824
sI833
F0.824
sI834
F0.824
sI835
F0.824
sI836
F0.824
sI837
F0.824
sI838
F0.824
sI839
F0.824
sI840
F0.824
sI841
F0.824
sI842
F0.824
sI843
F0.824
sI844
F0.824
sI845
F0.824
sI846
F0.824
sI847
F0.824
sI848
F0.824
sI849
F0.824
sI850
F0.824
sI851
F0.824
sI852
F0.824
sI853
F0.824
sI854
F0.824
sI855
F0.824
sI856
F0.824
sI857
F0.824
sI858
F0.824
sI859
F0.824
sI860
F0.824
sI861
F0.824
sI862
F0.824
sI863
F0.824
sI864
F0.824
sI865
F0.824
sI866
F0.824
sI867
F0.824
sI868
F0.824
sI869
F0.824
sI870
F0.824
sI871
F0.824
sI872
F0.824
sI873
F0.824
sI874
F0.824
sI875
F0.824
sI876
F0.824
sI877
F0.824
sI878
F0.824
sI879
F0.824
sI880
F0.824
sI881
F0.824
sI882
F0.824
sI883
F0.824
sI884
F0.824
sI885
F0.824
sI886
F0.824
sI887
F0.824
sI888
F0.824
sI889
F0.824
sI890
F0.824
sI891
F0.824
sI892
F0.824
sI893
F0.824
sI894
F0.824
sI895
F0.824
sI896
F0.824
sI897
F0.824
sI898
F0.824
sI899
F0.824
sI900
F0.824
sI901
F0.824
sI902
F0.824
sI903
F0.824
sI904
F0.824
sI905
F0.824
sI906
F0.824
sI907
F0.824
sI908
F0.824
sI909
F0.824
sI910
F0.824
sI911
F0.824
sI912
F0.824
sI913
F0.824
sI914
F0.824
sI915
F0.824
sI916
F0.824
sI917
F0.824
sI918
F0.824
sI919
F0.824
sI920
F0.824
sI921
F0.824
sI922
F0.824
sI923
F0.824
sI924
F0.824
sI925
F0.824
sI926
F0.824
sI927
F0.824
sI928
F0.824
sI929
F0.824
sI930
F0.824
sI931
F0.824
sI932
F0.824
sI933
F0.824
sI934
F0.824
sI935
F0.824
sI936
F0.824
sI937
F0.824
sI938
F0.824
sI939
F0.824
sI940
F0.824
sI941
F0.824
sI942
F0.824
sI943
F0.824
sI944
F0.824
sI945
F0.824
sI946
F0.824
sI947
F0.824
sI948
F0.824
sI949
F0.824
sI950
F0.824
sI951
F0.824
sI952
F0.824
sI953
F0.824
sI954
F0.824
sI955
F0.824
sI956
F0.824
sI957
F0.824
sI958
F0.824
sI959
F0.824
sI960
F0.824
sI961
F0.824
sI962
F0.824
sI963
F0.824
sI964
F0.824
sI965
F0.824
sI966
F0.824
sI967
F0.824
sI968
F0.824
sI969
F0.824
sI970
F0.824
sI971
F0.824
sI972
F0.824
sI973
F0.824
sI974
F0.824
sI975
F0.824
sI976
F0.824
sI977
F0.824
sI978
F0.824
sI979
F0.824
sI980
F0.824
sI981
F0.824
sI982
F0.824
sI983
F0.824
sI984
F0.824
sI985
F0.824
sI986
F0.824
sI987
F0.824
sI988
F0.824
sI989
F0.824
sI990
F0.824
sI991
F0.824
sI992
F0.824
sI993
F0.824
sI994
F0.824
sI995
F0.824
sI996
F0.824
sI997
F0.824
sI998
F0.824
sI999
F0.824
ss.