(dp0
F0.2
(dp1
I0
cnumpy.core.multiarray
scalar
p2
(cnumpy
dtype
p3
(S'f8'
p4
I0
I1
tp5
Rp6
(I3
S'<'
p7
NNNI-1
I-1
I0
tp8
bS'\x1a\xf5\xc8\xd1\x9c\xda\xeb?'
p9
tp10
Rp11
sI1
g11
sI2
g11
sI3
g11
sI4
g11
sI5
g11
sI6
g11
sI7
g11
sI8
g11
sI9
g11
sI10
g11
sI11
g11
sI12
g11
sI13
g11
sI14
g11
sI15
g11
sI16
g11
sI17
g11
sI18
g11
sI19
g11
sI20
g11
sI21
g11
sI22
g11
sI23
g11
sI24
g11
sI25
g11
sI26
g11
sI27
g11
sI28
g11
sI29
g11
sI30
g11
sI31
g11
sI32
g11
sI33
g11
sI34
g11
sI35
g11
sI36
g11
sI37
g11
sI38
g11
sI39
g11
sI40
g11
sI41
g11
sI42
g11
sI43
g11
sI44
g11
sI45
g11
sI46
g11
sI47
g11
sI48
g11
sI49
g11
sI50
g11
sI51
g11
sI52
g11
sI53
g11
sI54
g11
sI55
g11
sI56
g11
sI57
g11
sI58
g11
sI59
g11
sI60
g11
sI61
g11
sI62
g11
sI63
g11
sI64
g11
sI65
g11
sI66
g11
sI67
g11
sI68
g11
sI69
g11
sI70
g11
sI71
g11
sI72
g11
sI73
g11
sI74
g11
sI75
g11
sI76
g11
sI77
g11
sI78
g11
sI79
g11
sI80
g11
sI81
g11
sI82
g11
sI83
g11
sI84
g11
sI85
g11
sI86
g11
sI87
g11
sI88
g11
sI89
g11
sI90
g11
sI91
g11
sI92
g11
sI93
g11
sI94
g11
sI95
g11
sI96
g11
sI97
g11
sI98
g11
sI99
g11
sI100
g11
sI101
g11
sI102
g11
sI103
g11
sI104
g11
sI105
g11
sI106
g11
sI107
g11
sI108
g11
sI109
g11
sI110
g11
sI111
g11
sI112
g11
sI113
g11
sI114
g11
sI115
g11
sI116
g11
sI117
g11
sI118
g11
sI119
g11
sI120
g11
sI121
g11
sI122
g11
sI123
g11
sI124
g11
sI125
g11
sI126
g11
sI127
g11
sI128
g11
sI129
g11
sI130
g11
sI131
g11
sI132
g11
sI133
g11
sI134
g11
sI135
g11
sI136
g11
sI137
g11
sI138
g11
sI139
g11
sI140
g11
sI141
g11
sI142
g11
sI143
g11
sI144
g11
sI145
g11
sI146
g11
sI147
g11
sI148
g11
sI149
g11
sI150
g11
sI151
g11
sI152
g11
sI153
g11
sI154
g11
sI155
g11
sI156
g11
sI157
g11
sI158
g11
sI159
g11
sI160
g11
sI161
g11
sI162
g11
sI163
g11
sI164
g11
sI165
g11
sI166
g11
sI167
g11
sI168
g11
sI169
g11
sI170
g11
sI171
g11
sI172
g11
sI173
g11
sI174
g11
sI175
g11
sI176
g11
sI177
g11
sI178
g11
sI179
g11
sI180
g11
sI181
g11
sI182
g11
sI183
g11
sI184
g11
sI185
g11
sI186
g11
sI187
g11
sI188
g11
sI189
g11
sI190
g11
sI191
g11
sI192
g11
sI193
g11
sI194
g11
sI195
g11
sI196
g11
sI197
g11
sI198
g11
sI199
g11
sI200
g11
sI201
g11
sI202
g11
sI203
g11
sI204
g11
sI205
g11
sI206
g11
sI207
g11
sI208
g11
sI209
g11
sI210
g11
sI211
g11
sI212
g11
sI213
g11
sI214
g11
sI215
g11
sI216
g11
sI217
g11
sI218
g11
sI219
g11
sI220
g11
sI221
g11
sI222
g11
sI223
g11
sI224
g11
sI225
g11
sI226
g11
sI227
g11
sI228
g11
sI229
g11
sI230
g11
sI231
g11
sI232
g11
sI233
g11
sI234
g11
sI235
g11
sI236
g11
sI237
g11
sI238
g11
sI239
g11
sI240
g11
sI241
g11
sI242
g11
sI243
g11
sI244
g11
sI245
g11
sI246
g11
sI247
g11
sI248
g11
sI249
g11
sI250
g11
sI251
g11
sI252
g11
sI253
g11
sI254
g11
sI255
g11
sI256
g11
sI257
g11
sI258
g11
sI259
g11
sI260
g11
sI261
g11
sI262
g11
sI263
g11
sI264
g11
sI265
g11
sI266
g11
sI267
g11
sI268
g11
sI269
g11
sI270
g11
sI271
g11
sI272
g11
sI273
g11
sI274
g11
sI275
g11
sI276
g11
sI277
g11
sI278
g11
sI279
g11
sI280
g11
sI281
g11
sI282
g11
sI283
g11
sI284
g11
sI285
g11
sI286
g11
sI287
g11
sI288
g11
sI289
g11
sI290
g11
sI291
g11
sI292
g11
sI293
g11
sI294
g11
sI295
g11
sI296
g11
sI297
g11
sI298
g11
sI299
g11
sI300
g11
sI301
g11
sI302
g11
sI303
g11
sI304
g11
sI305
g11
sI306
g11
sI307
g11
sI308
g11
sI309
g11
sI310
g11
sI311
g11
sI312
g11
sI313
g11
sI314
g11
sI315
g11
sI316
g11
sI317
g11
sI318
g11
sI319
g11
sI320
g11
sI321
g11
sI322
g11
sI323
g11
sI324
g11
sI325
g11
sI326
g11
sI327
g11
sI328
g11
sI329
g11
sI330
g11
sI331
g11
sI332
g11
sI333
g11
sI334
g11
sI335
g11
sI336
g11
sI337
g11
sI338
g11
sI339
g11
sI340
g11
sI341
g11
sI342
g11
sI343
g11
sI344
g11
sI345
g11
sI346
g11
sI347
g11
sI348
g11
sI349
g11
sI350
g11
sI351
g11
sI352
g11
sI353
g11
sI354
g11
sI355
g11
sI356
g11
sI357
g11
sI358
g11
sI359
g11
sI360
g11
sI361
g11
sI362
g11
sI363
g11
sI364
g11
sI365
g11
sI366
g11
sI367
g11
sI368
g11
sI369
g11
sI370
g11
sI371
g11
sI372
g11
sI373
g11
sI374
g11
sI375
g11
sI376
g11
sI377
g11
sI378
g11
sI379
g11
sI380
g11
sI381
g11
sI382
g11
sI383
g11
sI384
g11
sI385
g11
sI386
g11
sI387
g11
sI388
g11
sI389
g11
sI390
g11
sI391
g11
sI392
g11
sI393
g11
sI394
g11
sI395
g11
sI396
g11
sI397
g11
sI398
g11
sI399
g11
sI400
g11
sI401
g11
sI402
g11
sI403
g11
sI404
g11
sI405
g11
sI406
g11
sI407
g11
sI408
g11
sI409
g11
sI410
g11
sI411
g11
sI412
g11
sI413
g11
sI414
g11
sI415
g11
sI416
g11
sI417
g11
sI418
g11
sI419
g11
sI420
g11
sI421
g11
sI422
g11
sI423
g11
sI424
g11
sI425
g11
sI426
g11
sI427
g11
sI428
g11
sI429
g11
sI430
g11
sI431
g11
sI432
g11
sI433
g11
sI434
g11
sI435
g11
sI436
g11
sI437
g11
sI438
g11
sI439
g11
sI440
g11
sI441
g11
sI442
g11
sI443
g11
sI444
g11
sI445
g11
sI446
g11
sI447
g11
sI448
g11
sI449
g11
sI450
g11
sI451
g11
sI452
g11
sI453
g11
sI454
g11
sI455
g11
sI456
g11
sI457
g11
sI458
g11
sI459
g11
sI460
g11
sI461
g11
sI462
g11
sI463
g11
sI464
g11
sI465
g11
sI466
g11
sI467
g11
sI468
g11
sI469
g11
sI470
g11
sI471
g11
sI472
g11
sI473
g11
sI474
g11
sI475
g11
sI476
g11
sI477
g11
sI478
g11
sI479
g11
sI480
g11
sI481
g11
sI482
g11
sI483
g11
sI484
g11
sI485
g11
sI486
g11
sI487
g11
sI488
g11
sI489
g11
sI490
g11
sI491
g11
sI492
g11
sI493
g11
sI494
g11
sI495
g11
sI496
g11
sI497
g11
sI498
g11
sI499
g11
sI500
g11
sI501
g11
sI502
g11
sI503
g11
sI504
g11
sI505
g11
sI506
g11
sI507
g11
sI508
g11
sI509
g11
sI510
g11
sI511
g11
sI512
g11
sI513
g11
sI514
g11
sI515
g11
sI516
g11
sI517
g11
sI518
g11
sI519
g11
sI520
g11
sI521
g11
sI522
g11
sI523
g11
sI524
g11
sI525
g11
sI526
g11
sI527
g11
sI528
g11
sI529
g11
sI530
g11
sI531
g11
sI532
g11
sI533
g11
sI534
g11
sI535
g11
sI536
g11
sI537
g11
sI538
g11
sI539
g11
sI540
g11
sI541
g11
sI542
g11
sI543
g11
sI544
g11
sI545
g11
sI546
g11
sI547
g11
sI548
g11
sI549
g11
sI550
g11
sI551
g11
sI552
g11
sI553
g11
sI554
g11
sI555
g11
sI556
g11
sI557
g11
sI558
g11
sI559
g11
sI560
g11
sI561
g11
sI562
g11
sI563
g11
sI564
g11
sI565
g11
sI566
g11
sI567
g11
sI568
g11
sI569
g11
sI570
g11
sI571
g11
sI572
g11
sI573
g11
sI574
g11
sI575
g11
sI576
g11
sI577
g11
sI578
g11
sI579
g11
sI580
g11
sI581
g11
sI582
g11
sI583
g11
sI584
g11
sI585
g11
sI586
g11
sI587
g11
sI588
g11
sI589
g11
sI590
g11
sI591
g11
sI592
g11
sI593
g11
sI594
g11
sI595
g11
sI596
g11
sI597
g11
sI598
g11
sI599
g11
sI600
g11
sI601
g11
sI602
g11
sI603
g11
sI604
g11
sI605
g11
sI606
g11
sI607
g11
sI608
g11
sI609
g11
sI610
g11
sI611
g11
sI612
g11
sI613
g11
sI614
g11
sI615
g11
sI616
g11
sI617
g11
sI618
g11
sI619
g11
sI620
g11
sI621
g11
sI622
g11
sI623
g11
sI624
g11
sI625
g11
sI626
g11
sI627
g11
sI628
g11
sI629
g11
sI630
g11
sI631
g11
sI632
g11
sI633
g11
sI634
g11
sI635
g11
sI636
g11
sI637
g11
sI638
g11
sI639
g11
sI640
g11
sI641
g11
sI642
g11
sI643
g11
sI644
g11
sI645
g11
sI646
g11
sI647
g11
sI648
g11
sI649
g11
sI650
g11
sI651
g11
sI652
g11
sI653
g11
sI654
g11
sI655
g11
sI656
g11
sI657
g11
sI658
g11
sI659
g11
sI660
g11
sI661
g11
sI662
g11
sI663
g11
sI664
g11
sI665
g11
sI666
g11
sI667
g11
sI668
g11
sI669
g11
sI670
g11
sI671
g11
sI672
g11
sI673
g11
sI674
g11
sI675
g11
sI676
g11
sI677
g11
sI678
g11
sI679
g11
sI680
g11
sI681
g11
sI682
g11
sI683
g11
sI684
g11
sI685
g11
sI686
g11
sI687
g11
sI688
g11
sI689
g11
sI690
g11
sI691
g11
sI692
g11
sI693
g11
sI694
g11
sI695
g11
sI696
g11
sI697
g11
sI698
g11
sI699
g11
sI700
g11
sI701
g11
sI702
g11
sI703
g11
sI704
g11
sI705
g11
sI706
g11
sI707
g11
sI708
g11
sI709
g11
sI710
g11
sI711
g11
sI712
g11
sI713
g11
sI714
g11
sI715
g11
sI716
g11
sI717
g11
sI718
g11
sI719
g11
sI720
g11
sI721
g11
sI722
g11
sI723
g11
sI724
g11
sI725
g11
sI726
g11
sI727
g11
sI728
g11
sI729
g11
sI730
g11
sI731
g11
sI732
g11
sI733
g11
sI734
g11
sI735
g11
sI736
g11
sI737
g11
sI738
g11
sI739
g11
sI740
g11
sI741
g11
sI742
g11
sI743
g11
sI744
g11
sI745
g11
sI746
g11
sI747
g11
sI748
g11
sI749
g11
sI750
g11
sI751
g11
sI752
g11
sI753
g11
sI754
g11
sI755
g11
sI756
g11
sI757
g11
sI758
g11
sI759
g11
sI760
g11
sI761
g11
sI762
g11
sI763
g11
sI764
g11
sI765
g11
sI766
g11
sI767
g11
sI768
g11
sI769
g11
sI770
g11
sI771
g11
sI772
g11
sI773
g11
sI774
g11
sI775
g11
sI776
g11
sI777
g11
sI778
g11
sI779
g11
sI780
g11
sI781
g11
sI782
g11
sI783
g11
sI784
g11
sI785
g11
sI786
g11
sI787
g11
sI788
g11
sI789
g11
sI790
g11
sI791
g11
sI792
g11
sI793
g11
sI794
g11
sI795
g11
sI796
g11
sI797
g11
sI798
g11
sI799
g11
sI800
g11
sI801
g11
sI802
g11
sI803
g11
sI804
g11
sI805
g11
sI806
g11
sI807
g11
sI808
g11
sI809
g11
sI810
g11
sI811
g11
sI812
g11
sI813
g11
sI814
g11
sI815
g11
sI816
g11
sI817
g11
sI818
g11
sI819
g11
sI820
g11
sI821
g11
sI822
g11
sI823
g11
sI824
g11
sI825
g11
sI826
g11
sI827
g11
sI828
g11
sI829
g11
sI830
g11
sI831
g11
sI832
g11
sI833
g11
sI834
g11
sI835
g11
sI836
g11
sI837
g11
sI838
g11
sI839
g11
sI840
g11
sI841
g11
sI842
g11
sI843
g11
sI844
g11
sI845
g11
sI846
g11
sI847
g11
sI848
g11
sI849
g11
sI850
g11
sI851
g11
sI852
g11
sI853
g11
sI854
g11
sI855
g11
sI856
g11
sI857
g11
sI858
g11
sI859
g11
sI860
g11
sI861
g11
sI862
g11
sI863
g11
sI864
g11
sI865
g11
sI866
g11
sI867
g11
sI868
g11
sI869
g11
sI870
g11
sI871
g11
sI872
g11
sI873
g11
sI874
g11
sI875
g11
sI876
g11
sI877
g11
sI878
g11
sI879
g11
sI880
g11
sI881
g11
sI882
g11
sI883
g11
sI884
g11
sI885
g11
sI886
g11
sI887
g11
sI888
g11
sI889
g11
sI890
g11
sI891
g11
sI892
g11
sI893
g11
sI894
g11
sI895
g11
sI896
g11
sI897
g11
sI898
g11
sI899
g11
sI900
g11
sI901
g11
sI902
g11
sI903
g11
sI904
g11
sI905
g11
sI906
g11
sI907
g11
sI908
g11
sI909
g11
sI910
g11
sI911
g11
sI912
g11
sI913
g11
sI914
g11
sI915
g11
sI916
g11
sI917
g11
sI918
g11
sI919
g11
sI920
g11
sI921
g11
sI922
g11
sI923
g11
sI924
g11
sI925
g11
sI926
g11
sI927
g11
sI928
g11
sI929
g11
sI930
g11
sI931
g11
sI932
g11
sI933
g11
sI934
g11
sI935
g11
sI936
g11
sI937
g11
sI938
g11
sI939
g11
sI940
g11
sI941
g11
sI942
g11
sI943
g11
sI944
g11
sI945
g11
sI946
g11
sI947
g11
sI948
g11
sI949
g11
sI950
g11
sI951
g11
sI952
g11
sI953
g11
sI954
g11
sI955
g11
sI956
g11
sI957
g11
sI958
g11
sI959
g11
sI960
g11
sI961
g11
sI962
g11
sI963
g11
sI964
g11
sI965
g11
sI966
g11
sI967
g11
sI968
g11
sI969
g11
sI970
g11
sI971
g11
sI972
g11
sI973
g11
sI974
g11
sI975
g11
sI976
g11
sI977
g11
sI978
g11
sI979
g11
sI980
g11
sI981
g11
sI982
g11
sI983
g11
sI984
g11
sI985
g11
sI986
g11
sI987
g11
sI988
g11
sI989
g11
sI990
g11
sI991
g11
sI992
g11
sI993
g11
sI994
g11
sI995
g11
sI996
g11
sI997
g11
sI998
g11
sI999
g11
ss.