(dp0
F0.05
(dp1
I0
cnumpy.core.multiarray
scalar
p2
(cnumpy
dtype
p3
(S'f8'
p4
I0
I1
tp5
Rp6
(I3
S'<'
p7
NNNI-1
I-1
I0
tp8
bS'\x1a\xf5\xc8\xd1\x9c\xda\xeb?'
p9
tp10
Rp11
sI1
g11
sI2
g11
sI3
g11
sI4
g11
sI5
g11
sI6
g11
sI7
g11
sI8
g11
sI9
g11
sI10
g11
sI11
g11
sI12
g11
sI13
g11
sI14
g11
sI15
g11
sI16
g11
sI17
g11
sI18
g11
sI19
g11
sI20
g11
sI21
g11
sI22
g11
sI23
g11
sI24
g11
sI25
g11
sI26
g11
sI27
g11
sI28
g11
sI29
g11
sI30
g11
sI31
g11
sI32
g11
sI33
g11
sI34
g11
sI35
g11
sI36
g11
sI37
g11
sI38
g11
sI39
g11
sI40
g11
sI41
g11
sI42
g11
sI43
g11
sI44
g11
sI45
g11
sI46
g11
sI47
g11
sI48
g11
sI49
g11
sI50
g11
sI51
g11
sI52
g11
sI53
g11
sI54
g11
sI55
g11
sI56
g11
sI57
g11
sI58
g11
sI59
g11
sI60
g11
sI61
g11
sI62
g11
sI63
g11
sI64
g11
sI65
g11
sI66
g11
sI67
g11
sI68
g11
sI69
g11
sI70
g11
sI71
g11
sI72
g11
sI73
g11
sI74
g11
sI75
g11
sI76
g11
sI77
g11
sI78
g11
sI79
g11
sI80
g11
sI81
g11
sI82
g11
sI83
g11
sI84
g11
sI85
g11
sI86
g11
sI87
g11
sI88
g11
sI89
g11
sI90
g11
sI91
g11
sI92
g11
sI93
g11
sI94
g11
sI95
g11
sI96
g11
sI97
g11
sI98
g11
sI99
g11
sI100
g11
sI101
g11
sI102
g11
sI103
g11
sI104
g11
sI105
g11
sI106
g11
sI107
g11
sI108
g11
sI109
g11
sI110
g11
sI111
g11
sI112
g11
sI113
g11
sI114
g11
sI115
g11
sI116
g11
sI117
g11
sI118
g11
sI119
g11
sI120
g11
sI121
g11
sI122
g11
sI123
g11
sI124
g11
sI125
g11
sI126
g11
sI127
g11
sI128
g11
sI129
g11
sI130
g11
sI131
g11
sI132
g11
sI133
g11
sI134
g11
sI135
g11
sI136
g11
sI137
g11
sI138
g11
sI139
g11
sI140
g11
sI141
g11
sI142
g11
sI143
g11
sI144
g11
sI145
g11
sI146
g11
sI147
g11
sI148
g11
sI149
g11
sI150
g11
sI151
g11
sI152
g11
sI153
g11
sI154
g11
sI155
g11
sI156
g11
sI157
g11
sI158
g11
sI159
g11
sI160
g11
sI161
g11
sI162
g11
sI163
g11
sI164
g11
sI165
g11
sI166
g11
sI167
g11
sI168
g11
sI169
g11
sI170
g11
sI171
g11
sI172
g11
sI173
g11
sI174
g11
sI175
g11
sI176
g11
sI177
g11
sI178
g11
sI179
g11
sI180
g11
sI181
g11
sI182
g11
sI183
g11
sI184
g11
sI185
g11
sI186
g11
sI187
g11
sI188
g11
sI189
g11
sI190
g11
sI191
g11
sI192
g11
sI193
g11
sI194
g11
sI195
g11
sI196
g11
sI197
g11
sI198
g11
sI199
g11
sI200
g11
sI201
g11
sI202
g11
sI203
g11
sI204
g11
sI205
g11
sI206
g11
sI207
g11
sI208
g11
sI209
g11
sI210
g11
sI211
g11
sI212
g11
sI213
g11
sI214
g11
sI215
g11
sI216
g11
sI217
g11
sI218
g11
sI219
g11
sI220
g11
sI221
g11
sI222
g11
sI223
g11
sI224
g11
sI225
g11
sI226
g11
sI227
g11
sI228
g11
sI229
g11
sI230
g11
sI231
g11
sI232
g11
sI233
g11
sI234
g11
sI235
g11
sI236
g11
sI237
g11
sI238
g11
sI239
g11
sI240
g11
sI241
g11
sI242
g11
sI243
g11
sI244
g11
sI245
g11
sI246
g11
sI247
g11
sI248
g11
sI249
g11
sI250
g11
sI251
g11
sI252
g11
sI253
g11
sI254
g11
sI255
g11
sI256
g11
sI257
g11
sI258
g11
sI259
g11
sI260
g11
sI261
g11
sI262
g11
sI263
g11
sI264
g11
sI265
g11
sI266
g11
sI267
g11
sI268
g11
sI269
g11
sI270
g11
sI271
g11
sI272
g11
sI273
g11
sI274
g11
sI275
g11
sI276
g11
sI277
g11
sI278
g11
sI279
g11
sI280
g11
sI281
g11
sI282
g11
sI283
g11
sI284
g11
sI285
g11
sI286
g11
sI287
g11
sI288
g11
sI289
g11
sI290
g11
sI291
g2
(g6
S'p\xc8\xb6 \xa5\x8a\xed?'
p12
tp13
Rp14
sI292
g14
sI293
g14
sI294
g14
sI295
g14
sI296
g14
sI297
g14
sI298
g14
sI299
g14
sI300
g14
sI301
g14
sI302
g14
sI303
g14
sI304
g14
sI305
g14
sI306
g14
sI307
g14
sI308
g14
sI309
g14
sI310
g14
sI311
g14
sI312
g14
sI313
g14
sI314
g14
sI315
g14
sI316
g14
sI317
g14
sI318
g14
sI319
g14
sI320
g14
sI321
g14
sI322
g14
sI323
g14
sI324
g14
sI325
g14
sI326
g14
sI327
g14
sI328
g14
sI329
g14
sI330
g14
sI331
g14
sI332
g14
sI333
g14
sI334
g14
sI335
g14
sI336
g14
sI337
g14
sI338
g14
sI339
g14
sI340
g14
sI341
g14
sI342
g14
sI343
g14
sI344
g14
sI345
g14
sI346
g14
sI347
g14
sI348
g14
sI349
g14
sI350
g14
sI351
g14
sI352
g14
sI353
g14
sI354
g14
sI355
g14
sI356
g14
sI357
g14
sI358
g14
sI359
g14
sI360
g14
sI361
g14
sI362
g14
sI363
g14
sI364
g14
sI365
g14
sI366
g14
sI367
g14
sI368
g14
sI369
g14
sI370
g14
sI371
g14
sI372
g14
sI373
g14
sI374
g14
sI375
g14
sI376
g14
sI377
g14
sI378
g14
sI379
g14
sI380
g14
sI381
g14
sI382
g14
sI383
g14
sI384
g14
sI385
g14
sI386
g14
sI387
g14
sI388
g14
sI389
g14
sI390
g14
sI391
g14
sI392
g14
sI393
g14
sI394
g14
sI395
g14
sI396
g14
sI397
g14
sI398
g14
sI399
g14
sI400
g14
sI401
g14
sI402
g14
sI403
g14
sI404
g14
sI405
g14
sI406
g14
sI407
g14
sI408
g14
sI409
g14
sI410
g14
sI411
g14
sI412
g14
sI413
g14
sI414
g14
sI415
g14
sI416
g14
sI417
g14
sI418
g14
sI419
g14
sI420
g14
sI421
g14
sI422
g14
sI423
g14
sI424
g14
sI425
g14
sI426
g14
sI427
g14
sI428
g14
sI429
g14
sI430
g14
sI431
g14
sI432
g14
sI433
g14
sI434
g14
sI435
g14
sI436
g14
sI437
g14
sI438
g14
sI439
g14
sI440
g14
sI441
g14
sI442
g14
sI443
g14
sI444
g14
sI445
g14
sI446
g14
sI447
g14
sI448
g14
sI449
g14
sI450
g14
sI451
g14
sI452
g14
sI453
g14
sI454
g14
sI455
g14
sI456
g14
sI457
g14
sI458
g14
sI459
g14
sI460
g14
sI461
g14
sI462
g14
sI463
g14
sI464
g14
sI465
g14
sI466
g14
sI467
g14
sI468
g14
sI469
g14
sI470
g14
sI471
g14
sI472
g14
sI473
g14
sI474
g14
sI475
g14
sI476
g14
sI477
g14
sI478
g14
sI479
g14
sI480
g14
sI481
g14
sI482
g14
sI483
g14
sI484
g14
sI485
g14
sI486
g14
sI487
g14
sI488
g14
sI489
g14
sI490
g14
sI491
g14
sI492
g14
sI493
g14
sI494
g14
sI495
g14
sI496
g14
sI497
g14
sI498
g14
sI499
g14
sI500
g14
sI501
g14
sI502
g14
sI503
g14
sI504
g14
sI505
g14
sI506
g14
sI507
g14
sI508
g14
sI509
g14
sI510
g14
sI511
g14
sI512
g14
sI513
g14
sI514
g14
sI515
g14
sI516
g14
sI517
g14
sI518
g14
sI519
g14
sI520
g14
sI521
g14
sI522
g14
sI523
g14
sI524
g14
sI525
g14
sI526
g14
sI527
g14
sI528
g14
sI529
g14
sI530
g14
sI531
g14
sI532
g14
sI533
g14
sI534
g14
sI535
g14
sI536
g14
sI537
g14
sI538
g14
sI539
g14
sI540
g14
sI541
g14
sI542
g14
sI543
g14
sI544
g14
sI545
g14
sI546
g14
sI547
g14
sI548
g14
sI549
g14
sI550
g14
sI551
g14
sI552
g14
sI553
g14
sI554
g14
sI555
g14
sI556
g14
sI557
g14
sI558
g14
sI559
g14
sI560
g14
sI561
g14
sI562
g14
sI563
g14
sI564
g14
sI565
g14
sI566
g14
sI567
g14
sI568
g14
sI569
g14
sI570
g14
sI571
g14
sI572
g14
sI573
g14
sI574
g14
sI575
g14
sI576
g14
sI577
g14
sI578
g14
sI579
g14
sI580
g14
sI581
g14
sI582
g14
sI583
g14
sI584
g14
sI585
g14
sI586
g14
sI587
g14
sI588
g14
sI589
g14
sI590
g14
sI591
g14
sI592
g14
sI593
g14
sI594
g14
sI595
g14
sI596
g14
sI597
g14
sI598
g14
sI599
g14
sI600
g14
sI601
g14
sI602
g14
sI603
g14
sI604
g14
sI605
g14
sI606
g14
sI607
g14
sI608
g14
sI609
g14
sI610
g14
sI611
g14
sI612
g14
sI613
g14
sI614
g14
sI615
g14
sI616
g14
sI617
g14
sI618
g14
sI619
g14
sI620
g14
sI621
g14
sI622
g14
sI623
g14
sI624
g14
sI625
g14
sI626
g14
sI627
g14
sI628
g14
sI629
g14
sI630
g14
sI631
g14
sI632
g14
sI633
g14
sI634
g14
sI635
g14
sI636
g14
sI637
g14
sI638
g14
sI639
g14
sI640
g14
sI641
g14
sI642
g14
sI643
g14
sI644
g14
sI645
g14
sI646
g14
sI647
g14
sI648
g14
sI649
g14
sI650
g14
sI651
g14
sI652
g14
sI653
g14
sI654
g14
sI655
g14
sI656
g14
sI657
g14
sI658
g14
sI659
g14
sI660
g14
sI661
g14
sI662
g14
sI663
g14
sI664
g14
sI665
g14
sI666
g14
sI667
g14
sI668
g14
sI669
g14
sI670
g14
sI671
g14
sI672
g14
sI673
g14
sI674
g14
sI675
g14
sI676
g14
sI677
g14
sI678
g14
sI679
g14
sI680
g14
sI681
g14
sI682
g14
sI683
g14
sI684
g14
sI685
g14
sI686
g14
sI687
g14
sI688
g14
sI689
g14
sI690
g14
sI691
g14
sI692
g14
sI693
g14
sI694
g14
sI695
g14
sI696
g14
sI697
g14
sI698
g14
sI699
g14
sI700
g14
sI701
g14
sI702
g14
sI703
g14
sI704
g14
sI705
g14
sI706
g14
sI707
g14
sI708
g14
sI709
g14
sI710
g14
sI711
g14
sI712
g14
sI713
g14
sI714
g14
sI715
g14
sI716
g14
sI717
g14
sI718
g14
sI719
g14
sI720
g14
sI721
g14
sI722
g14
sI723
g14
sI724
g14
sI725
g14
sI726
g14
sI727
g14
sI728
g14
sI729
g14
sI730
g14
sI731
g14
sI732
g14
sI733
g14
sI734
g14
sI735
g14
sI736
g14
sI737
g14
sI738
g14
sI739
g14
sI740
g14
sI741
g14
sI742
g14
sI743
g14
sI744
g14
sI745
g14
sI746
g14
sI747
g14
sI748
g14
sI749
g14
sI750
g14
sI751
g14
sI752
g14
sI753
g14
sI754
g14
sI755
g14
sI756
g14
sI757
g14
sI758
g14
sI759
g14
sI760
g14
sI761
g14
sI762
g14
sI763
g14
sI764
g14
sI765
g14
sI766
g14
sI767
g14
sI768
g14
sI769
g14
sI770
g14
sI771
g14
sI772
g14
sI773
g14
sI774
g14
sI775
g14
sI776
g14
sI777
g14
sI778
g14
sI779
g14
sI780
g14
sI781
g14
sI782
g14
sI783
g14
sI784
g14
sI785
g14
sI786
g14
sI787
g14
sI788
g14
sI789
g14
sI790
g14
sI791
g14
sI792
g14
sI793
g14
sI794
g14
sI795
g14
sI796
g14
sI797
g14
sI798
g14
sI799
g14
sI800
g14
sI801
g14
sI802
g14
sI803
g14
sI804
g14
sI805
g14
sI806
g14
sI807
g14
sI808
g14
sI809
g14
sI810
g14
sI811
g14
sI812
g14
sI813
g14
sI814
g14
sI815
g14
sI816
g14
sI817
g14
sI818
g14
sI819
g14
sI820
g14
sI821
g14
sI822
g14
sI823
g14
sI824
g14
sI825
g14
sI826
g14
sI827
g14
sI828
g14
sI829
g14
sI830
g14
sI831
g14
sI832
g14
sI833
g14
sI834
g14
sI835
g14
sI836
g14
sI837
g14
sI838
g14
sI839
g14
sI840
g14
sI841
g14
sI842
g14
sI843
g14
sI844
g14
sI845
g14
sI846
g14
sI847
g14
sI848
g14
sI849
g14
sI850
g14
sI851
g14
sI852
g14
sI853
g14
sI854
g14
sI855
g14
sI856
g14
sI857
g14
sI858
g14
sI859
g14
sI860
g14
sI861
g14
sI862
g14
sI863
g14
sI864
g14
sI865
g14
sI866
g14
sI867
g14
sI868
g14
sI869
g14
sI870
g14
sI871
g14
sI872
g14
sI873
g14
sI874
g14
sI875
g14
sI876
g14
sI877
g14
sI878
g14
sI879
g14
sI880
g14
sI881
g14
sI882
g14
sI883
g14
sI884
g14
sI885
g14
sI886
g14
sI887
g14
sI888
g14
sI889
g14
sI890
g14
sI891
g14
sI892
g14
sI893
g14
sI894
g14
sI895
g14
sI896
g14
sI897
g14
sI898
g14
sI899
g14
sI900
g14
sI901
g14
sI902
g14
sI903
g14
sI904
g14
sI905
g14
sI906
g14
sI907
g14
sI908
g14
sI909
g14
sI910
g14
sI911
g14
sI912
g14
sI913
g14
sI914
g14
sI915
g14
sI916
g14
sI917
g14
sI918
g14
sI919
g14
sI920
g14
sI921
g14
sI922
g14
sI923
g14
sI924
g14
sI925
g14
sI926
g14
sI927
g14
sI928
g14
sI929
g14
sI930
g14
sI931
g14
sI932
g14
sI933
g14
sI934
g14
sI935
g14
sI936
g14
sI937
g14
sI938
g14
sI939
g14
sI940
g14
sI941
g14
sI942
g14
sI943
g14
sI944
g14
sI945
g14
sI946
g14
sI947
g14
sI948
g14
sI949
g14
sI950
g14
sI951
g14
sI952
g14
sI953
g14
sI954
g14
sI955
g14
sI956
g14
sI957
g14
sI958
g14
sI959
g14
sI960
g14
sI961
g14
sI962
g14
sI963
g14
sI964
g14
sI965
g14
sI966
g14
sI967
g14
sI968
g14
sI969
g14
sI970
g14
sI971
g14
sI972
g14
sI973
g14
sI974
g14
sI975
g14
sI976
g14
sI977
g14
sI978
g14
sI979
g14
sI980
g14
sI981
g14
sI982
g14
sI983
g14
sI984
g14
sI985
g14
sI986
g14
sI987
g14
sI988
g14
sI989
g14
sI990
g14
sI991
g14
sI992
g14
sI993
g14
sI994
g14
sI995
g14
sI996
g14
sI997
g14
sI998
g14
sI999
g14
ss.