(dp0
S'temp'
p1
(dp2
F0.1
(dp3
I0
F0.708
sI1
F0.708
sI2
F0.708
sI3
F0.708
sI4
F0.531
sI5
F0.531
sI6
F0.531
sI7
F0.203
sI8
F0.203
sI9
F0.203
sI10
F0.203
sI11
F0.203
sI12
F0.203
sI13
F0.203
sI14
F0.203
sI15
F0.203
sI16
F0.203
sI17
F0.203
sI18
F0.203
sI19
F0.203
sI20
F0.203
sI21
F0.203
sI22
F0.203
sI23
F0.203
sI24
F0.203
sI25
F0.203
sI26
F0.203
sI27
F0.203
sI28
F0.203
sI29
F0.203
ssF0.2
(dp4
I0
F0.708
sI1
F0.708
sI2
F0.708
sI3
F0.708
sI4
F0.708
sI5
F0.708
sI6
F0.708
sI7
F0.203
sI8
F0.203
sI9
F0.203
sI10
F0.203
sI11
F0.203
sI12
F0.203
sI13
F0.203
sI14
F0.203
sI15
F0.203
sI16
F0.203
sI17
F0.203
sI18
F0.203
sI19
F0.203
sI20
F0.203
sI21
F0.203
sI22
F0.203
sI23
F0.203
sI24
F0.203
sI25
F0.203
sI26
F0.203
sI27
F0.203
sI28
F0.203
sI29
F0.203
ssF0.05
(dp5
I0
F0.708
sI1
F0.632
sI2
F0.632
sI3
F0.632
sI4
F0.531
sI5
F0.531
sI6
F0.531
sI7
F0.203
sI8
F0.203
sI9
F0.203
sI10
F0.203
sI11
F0.203
sI12
F0.203
sI13
F0.203
sI14
F0.203
sI15
F0.203
sI16
F0.203
sI17
F0.203
sI18
F0.203
sI19
F0.203
sI20
F0.203
sI21
F0.143
sI22
F0.143
sI23
F0.143
sI24
F0.143
sI25
F0.143
sI26
F0.143
sI27
F0.143
sI28
F0.143
sI29
F0.143
ssF0.025
(dp6
I0
F0.708
sI1
F0.632
sI2
F0.632
sI3
F0.632
sI4
F0.531
sI5
F0.531
sI6
F0.531
sI7
F0.203
sI8
F0.203
sI9
F0.203
sI10
F0.203
sI11
F0.203
sI12
F0.203
sI13
F0.203
sI14
F0.203
sI15
F0.203
sI16
F0.203
sI17
F0.203
sI18
F0.203
sI19
F0.203
sI20
F0.203
sI21
F0.143
sI22
F0.143
sI23
F0.143
sI24
F0.143
sI25
F0.143
sI26
F0.143
sI27
F0.143
sI28
F0.143
sI29
F0.143
sssF0.1
(lp7
F8.638
asS'settings'
p8
(dp9
I0
(lp10
sI1
(lp11
sI2
(lp12
sI3
(lp13
sI4
(lp14
sI5
(lp15
sI6
(lp16
sI7
(lp17
sI8
(lp18
sI9
(lp19
sI10
(lp20
sI11
(lp21
sI12
(lp22
sI13
(lp23
sI14
(lp24
sI15
(lp25
sI16
(lp26
sI17
(lp27
sI18
(lp28
sI19
(lp29
sI20
(lp30
sI21
(lp31
sI22
(lp32
sI23
(lp33
sI24
(lp34
sI25
(lp35
sI26
(lp36
sI27
(lp37
sI28
(lp38
sI29
(lp39
ssF0.05
(lp40
F7.9
asS'time'
p41
F31.387362957000732
sF0.2
(lp42
F9.169
asS'counter_full'
p43
(dp44
F0.1
(dp45
I0
(lp46
F0.708
asI1
(lp47
F0.708
asI2
(lp48
F0.708
asI3
(lp49
F0.708
asI4
(lp50
F0.531
asI5
(lp51
F0.531
asI6
(lp52
F0.531
asI7
(lp53
F0.203
asI8
(lp54
F0.203
asI9
(lp55
F0.203
asI10
(lp56
F0.203
asI11
(lp57
F0.203
asI12
(lp58
F0.203
asI13
(lp59
F0.203
asI14
(lp60
F0.203
asI15
(lp61
F0.203
asI16
(lp62
F0.203
asI17
(lp63
F0.203
asI18
(lp64
F0.203
asI19
(lp65
F0.203
asI20
(lp66
F0.203
asI21
(lp67
F0.203
asI22
(lp68
F0.203
asI23
(lp69
F0.203
asI24
(lp70
F0.203
asI25
(lp71
F0.203
asI26
(lp72
F0.203
asI27
(lp73
F0.203
asI28
(lp74
F0.203
asI29
(lp75
F0.203
assF0.2
(dp76
I0
(lp77
F0.708
asI1
(lp78
F0.708
asI2
(lp79
F0.708
asI3
(lp80
F0.708
asI4
(lp81
F0.708
asI5
(lp82
F0.708
asI6
(lp83
F0.708
asI7
(lp84
F0.203
asI8
(lp85
F0.203
asI9
(lp86
F0.203
asI10
(lp87
F0.203
asI11
(lp88
F0.203
asI12
(lp89
F0.203
asI13
(lp90
F0.203
asI14
(lp91
F0.203
asI15
(lp92
F0.203
asI16
(lp93
F0.203
asI17
(lp94
F0.203
asI18
(lp95
F0.203
asI19
(lp96
F0.203
asI20
(lp97
F0.203
asI21
(lp98
F0.203
asI22
(lp99
F0.203
asI23
(lp100
F0.203
asI24
(lp101
F0.203
asI25
(lp102
F0.203
asI26
(lp103
F0.203
asI27
(lp104
F0.203
asI28
(lp105
F0.203
asI29
(lp106
F0.203
assF0.05
(dp107
I0
(lp108
F0.708
asI1
(lp109
F0.632
asI2
(lp110
F0.632
asI3
(lp111
F0.632
asI4
(lp112
F0.531
asI5
(lp113
F0.531
asI6
(lp114
F0.531
asI7
(lp115
F0.203
asI8
(lp116
F0.203
asI9
(lp117
F0.203
asI10
(lp118
F0.203
asI11
(lp119
F0.203
asI12
(lp120
F0.203
asI13
(lp121
F0.203
asI14
(lp122
F0.203
asI15
(lp123
F0.203
asI16
(lp124
F0.203
asI17
(lp125
F0.203
asI18
(lp126
F0.203
asI19
(lp127
F0.203
asI20
(lp128
F0.203
asI21
(lp129
F0.143
asI22
(lp130
F0.143
asI23
(lp131
F0.143
asI24
(lp132
F0.143
asI25
(lp133
F0.143
asI26
(lp134
F0.143
asI27
(lp135
F0.143
asI28
(lp136
F0.143
asI29
(lp137
F0.143
assF0.025
(dp138
I0
(lp139
F0.708
asI1
(lp140
F0.632
asI2
(lp141
F0.632
asI3
(lp142
F0.632
asI4
(lp143
F0.531
asI5
(lp144
F0.531
asI6
(lp145
F0.531
asI7
(lp146
F0.203
asI8
(lp147
F0.203
asI9
(lp148
F0.203
asI10
(lp149
F0.203
asI11
(lp150
F0.203
asI12
(lp151
F0.203
asI13
(lp152
F0.203
asI14
(lp153
F0.203
asI15
(lp154
F0.203
asI16
(lp155
F0.203
asI17
(lp156
F0.203
asI18
(lp157
F0.203
asI19
(lp158
F0.203
asI20
(lp159
F0.203
asI21
(lp160
F0.143
asI22
(lp161
F0.143
asI23
(lp162
F0.143
asI24
(lp163
F0.143
asI25
(lp164
F0.143
asI26
(lp165
F0.143
asI27
(lp166
F0.143
asI28
(lp167
F0.143
asI29
(lp168
F0.143
asssF0.025
(lp169
F7.9
as.