(dp0
S'settings'
p1
(dp2
I0
(lp3
S'289_4_CountVectorizer|no_transformation|l1_0.01229_446_LogisticRegression'
p4
asI1
(lp5
S'0.145495058166_2_None_TfidfVectorizer|no_transformation|0.320976137758_gini_random_DecisionTreeClassifier'
p6
assS'counter_full'
p7
(dp8
F0.025
(dp9
I0
(lp10
F0.756
asI1
(lp11
F0.756
asssS'temp'
p12
(dp13
F0.025
(dp14
I0
F0.756
sI1
F0.756
sssF0.025
(lp15
F0.756
asS'time'
p16
F1.2726058959960938
s.