(dp0
F0.025
(dp1
I0
cnumpy.core.multiarray
scalar
p2
(cnumpy
dtype
p3
(S'f8'
p4
I0
I1
tp5
Rp6
(I3
S'<'
p7
NNNI-1
I-1
I0
tp8
bS'\x8e\xe38\x8e\xe38\xe6?'
p9
tp10
Rp11
sI1
g11
sI2
g11
sI3
g11
sI4
g11
sI5
g11
sI6
g2
(g6
S'\x9f\xe7y\x9e\xe7y\xe8?'
p12
tp13
Rp14
sI7
g14
sI8
g14
sI9
g14
sI10
g14
sI11
g14
sI12
g14
sI13
g14
sI14
g14
sI15
g14
sI16
g14
sI17
g14
sI18
g14
sI19
g14
sI20
g14
sI21
g14
sI22
g14
sI23
g14
sI24
g14
sI25
g14
sI26
g14
sI27
g14
sI28
g14
sI29
g14
sI30
g14
sI31
g14
sI32
g14
sI33
g14
sI34
g14
sI35
g14
sI36
g14
sI37
g14
sI38
g14
sI39
g14
sI40
g14
sI41
g14
sI42
g14
sI43
g14
sI44
g14
sI45
g14
sI46
g14
sI47
g14
sI48
g14
sI49
g14
sI50
g14
sI51
g14
sI52
g14
sI53
g14
sI54
g14
sI55
g14
sI56
g14
sI57
g14
sI58
g14
sI59
g14
sI60
g14
sI61
g14
sI62
g14
sI63
g14
sI64
g14
sI65
g14
sI66
g14
sI67
g14
sI68
g14
sI69
g14
sI70
g14
sI71
g14
sI72
g14
sI73
g14
sI74
g14
sI75
g14
sI76
g14
sI77
g14
sI78
g14
sI79
g14
sI80
g14
sI81
g14
sI82
g14
sI83
g14
sI84
g14
sI85
g14
sI86
g14
sI87
g14
sI88
g14
sI89
g14
sI90
g14
sI91
g14
sI92
g14
sI93
g14
sI94
g14
sI95
g14
sI96
g14
sI97
g14
sI98
g14
sI99
g14
sI100
g14
sI101
g14
sI102
g14
sI103
g14
sI104
g14
sI105
g14
sI106
g14
sI107
g14
sI108
g14
sI109
g14
sI110
g14
sI111
g14
sI112
g14
sI113
g14
sI114
g14
sI115
g14
sI116
g14
sI117
g14
sI118
g14
sI119
g14
sI120
g14
sI121
g14
sI122
g2
(g6
S'\x00\x00\x00\x00\x00\x00\xea?'
p15
tp16
Rp17
sI123
g17
sI124
g17
sI125
g17
sI126
g17
sI127
g17
sI128
g17
sI129
g17
sI130
g17
sI131
g17
sI132
g17
sI133
g17
sI134
g17
sI135
g17
sI136
g17
sI137
g17
sI138
g17
sI139
g17
sI140
g17
sI141
g17
sI142
g17
sI143
g17
sI144
g17
sI145
g17
sI146
g17
sI147
g17
sI148
g17
sI149
g17
sI150
g17
sI151
g17
sI152
g17
sI153
g2
(g6
S'\xcb\xb2,\xcb\xb2,\xeb?'
p18
tp19
Rp20
sI154
g20
sI155
g20
sI156
g20
sI157
g20
sI158
g20
sI159
g20
sI160
g20
sI161
g20
sI162
g20
sI163
g20
sI164
g20
sI165
g20
sI166
g20
sI167
g20
sI168
g20
sI169
g20
sI170
g20
sI171
g20
sI172
g20
sI173
g20
sI174
g20
sI175
g20
sI176
g20
sI177
g20
sI178
g20
sI179
g20
sI180
g20
sI181
g20
sI182
g20
sI183
g20
sI184
g20
sI185
g20
sI186
g20
sI187
g20
sI188
g20
sI189
g20
sI190
g20
sI191
g20
sI192
g20
sI193
g20
sI194
g20
sI195
g20
sI196
g20
sI197
g20
sI198
g20
sI199
g20
sI200
g20
sI201
g20
sI202
g20
sI203
g20
sI204
g20
sI205
g20
sI206
g20
sI207
g20
sI208
g20
sI209
g20
sI210
g20
sI211
g20
sI212
g20
sI213
g20
sI214
g20
sI215
g20
sI216
g20
sI217
g20
sI218
g20
sI219
g20
sI220
g20
sI221
g20
sI222
g20
sI223
g20
sI224
g20
sI225
g20
sI226
g20
sI227
g20
sI228
g20
sI229
g20
sI230
g20
sI231
g20
sI232
g20
sI233
g20
sI234
g20
sI235
g20
sI236
g20
sI237
g20
sI238
g20
sI239
g20
sI240
g20
sI241
g20
sI242
g20
sI243
g20
sI244
g20
sI245
g20
sI246
g20
sI247
g20
sI248
g20
sI249
g20
sI250
g20
sI251
g20
sI252
g20
sI253
g20
sI254
g20
sI255
g20
sI256
g20
sI257
g20
sI258
g20
sI259
g20
sI260
g20
sI261
g20
sI262
g20
sI263
g20
sI264
g20
sI265
g20
sI266
g20
sI267
g20
sI268
g20
sI269
g20
sI270
g20
sI271
g20
sI272
g20
sI273
g20
sI274
g20
sI275
g20
sI276
g20
sI277
g20
sI278
g20
sI279
g20
sI280
g20
sI281
g20
sI282
g20
sI283
g20
sI284
g20
sI285
g20
sI286
g20
sI287
g20
sI288
g20
sI289
g20
sI290
g20
sI291
g20
sI292
g20
sI293
g20
sI294
g20
sI295
g20
sI296
g20
sI297
g20
sI298
g20
sI299
g20
sI300
g20
sI301
g20
sI302
g20
sI303
g20
sI304
g20
sI305
g20
sI306
g20
sI307
g20
sI308
g20
sI309
g20
sI310
g20
sI311
g20
sI312
g20
sI313
g20
sI314
g20
sI315
g20
sI316
g20
sI317
g20
sI318
g20
sI319
g20
sI320
g20
sI321
g20
sI322
g20
sI323
g20
sI324
g20
sI325
g20
sI326
g20
sI327
g20
sI328
g20
sI329
g20
sI330
g20
sI331
g20
sI332
g20
sI333
g20
sI334
g20
sI335
g20
sI336
g20
sI337
g20
sI338
g20
sI339
g20
sI340
g20
sI341
g20
sI342
g20
sI343
g20
sI344
g20
sI345
g20
sI346
g20
sI347
g20
sI348
g20
sI349
g20
sI350
g20
sI351
g20
sI352
g20
sI353
g20
sI354
g20
sI355
g20
sI356
g20
sI357
g20
sI358
g20
sI359
g20
sI360
g20
sI361
g20
sI362
g20
sI363
g20
sI364
g20
sI365
g20
sI366
g20
sI367
g20
sI368
g20
sI369
g20
sI370
g20
sI371
g20
sI372
g20
sI373
g20
sI374
g20
sI375
g20
sI376
g20
sI377
g20
sI378
g20
sI379
g20
sI380
g20
sI381
g20
sI382
g20
sI383
g20
sI384
g20
sI385
g20
sI386
g20
sI387
g20
sI388
g20
sI389
g20
sI390
g20
sI391
g20
sI392
g20
sI393
g20
sI394
g20
sI395
g20
sI396
g20
sI397
g20
sI398
g20
sI399
g20
sI400
g20
sI401
g20
sI402
g20
sI403
g20
sI404
g20
sI405
g20
sI406
g20
sI407
g20
sI408
g20
sI409
g20
sI410
g20
sI411
g20
sI412
g20
sI413
g20
sI414
g20
sI415
g20
sI416
g20
sI417
g20
sI418
g20
sI419
g20
sI420
g20
sI421
g20
sI422
g20
sI423
g20
sI424
g20
sI425
g20
sI426
g20
sI427
g20
sI428
g20
sI429
g20
sI430
g20
sI431
g20
sI432
g20
sI433
g20
sI434
g20
sI435
g20
sI436
g20
sI437
g20
sI438
g20
sI439
g20
sI440
g20
sI441
g20
sI442
g20
sI443
g20
sI444
g20
sI445
g20
sI446
g20
sI447
g20
sI448
g20
sI449
g20
sI450
g20
sI451
g20
sI452
g20
sI453
g20
sI454
g20
sI455
g20
sI456
g20
sI457
g20
sI458
g20
sI459
g20
sI460
g20
sI461
g20
sI462
g20
sI463
g20
sI464
g20
sI465
g20
sI466
g20
sI467
g20
sI468
g20
sI469
g20
sI470
g20
sI471
g20
sI472
g20
sI473
g20
sI474
g20
sI475
g20
sI476
g20
sI477
g20
sI478
g20
sI479
g20
sI480
g20
sI481
g20
sI482
g20
sI483
g20
sI484
g20
sI485
g20
sI486
g20
sI487
g20
sI488
g20
sI489
g20
sI490
g20
sI491
g20
sI492
g20
sI493
g20
sI494
g20
sI495
g20
sI496
g20
sI497
g20
sI498
g20
sI499
g20
sI500
g20
sI501
g20
sI502
g20
sI503
g20
sI504
g20
sI505
g20
sI506
g20
sI507
g20
sI508
g20
sI509
g20
sI510
g20
sI511
g20
sI512
g20
sI513
g20
sI514
g20
sI515
g20
sI516
g20
sI517
g20
sI518
g20
sI519
g20
sI520
g20
sI521
g20
sI522
g20
sI523
g20
sI524
g20
sI525
g20
sI526
g20
sI527
g20
sI528
g20
sI529
g20
sI530
g20
sI531
g20
sI532
g20
sI533
g20
sI534
g20
sI535
g20
sI536
g20
sI537
g20
sI538
g20
sI539
g20
sI540
g20
sI541
g20
sI542
g20
sI543
g20
sI544
g20
sI545
g20
sI546
g20
sI547
g20
sI548
g20
sI549
g20
sI550
g20
sI551
g20
sI552
g20
sI553
g20
sI554
g20
sI555
g20
sI556
g20
sI557
g20
sI558
g20
sI559
g20
sI560
g20
sI561
g20
sI562
g20
sI563
g20
sI564
g20
sI565
g20
sI566
g20
sI567
g20
sI568
g20
sI569
g20
sI570
g20
sI571
g20
sI572
g20
sI573
g20
sI574
g20
sI575
g20
sI576
g20
sI577
g20
sI578
g20
sI579
g20
sI580
g20
sI581
g20
sI582
g20
sI583
g20
sI584
g20
sI585
g20
sI586
g20
sI587
g20
sI588
g20
sI589
g20
sI590
g20
sI591
g20
sI592
g20
sI593
g20
sI594
g20
sI595
g20
sI596
g20
sI597
g20
sI598
g20
sI599
g20
sI600
g20
sI601
g20
sI602
g20
sI603
g20
sI604
g20
sI605
g20
sI606
g20
sI607
g20
sI608
g20
sI609
g20
sI610
g20
sI611
g20
sI612
g20
sI613
g20
sI614
g20
sI615
g20
sI616
g20
sI617
g20
sI618
g20
sI619
g20
sI620
g20
sI621
g20
sI622
g20
sI623
g20
sI624
g20
sI625
g20
sI626
g20
sI627
g20
sI628
g20
sI629
g20
sI630
g20
sI631
g20
sI632
g20
sI633
g20
sI634
g20
sI635
g20
sI636
g20
sI637
g20
sI638
g20
sI639
g20
sI640
g20
sI641
g20
sI642
g20
sI643
g20
sI644
g20
sI645
g20
sI646
g20
sI647
g20
sI648
g20
sI649
g20
sI650
g20
sI651
g20
sI652
g20
sI653
g20
sI654
g20
sI655
g20
sI656
g20
sI657
g20
sI658
g20
sI659
g20
sI660
g20
sI661
g20
sI662
g20
sI663
g20
sI664
g20
sI665
g20
sI666
g20
sI667
g20
sI668
g20
sI669
g20
sI670
g20
sI671
g20
sI672
g20
sI673
g20
sI674
g20
sI675
g20
sI676
g20
sI677
g20
sI678
g20
sI679
g20
sI680
g20
sI681
g20
sI682
g20
sI683
g20
sI684
g20
sI685
g20
sI686
g20
sI687
g20
sI688
g20
sI689
g20
sI690
g20
sI691
g20
sI692
g20
sI693
g20
sI694
g20
sI695
g20
sI696
g20
sI697
g20
sI698
g20
sI699
g20
sI700
g20
sI701
g20
sI702
g20
sI703
g20
sI704
g20
sI705
g20
sI706
g20
sI707
g20
sI708
g20
sI709
g20
sI710
g20
sI711
g20
sI712
g20
sI713
g20
sI714
g20
sI715
g20
sI716
g20
sI717
g20
sI718
g20
sI719
g20
sI720
g20
sI721
g20
sI722
g20
sI723
g20
sI724
g20
sI725
g20
sI726
g20
sI727
g20
sI728
g20
sI729
g20
sI730
g20
sI731
g20
sI732
g20
sI733
g20
sI734
g20
sI735
g20
sI736
g20
sI737
g20
sI738
g20
sI739
g20
sI740
g20
sI741
g20
sI742
g20
sI743
g20
sI744
g20
sI745
g20
sI746
g20
sI747
g20
sI748
g20
sI749
g20
sI750
g20
sI751
g20
sI752
g20
sI753
g20
sI754
g20
sI755
g20
sI756
g20
sI757
g20
sI758
g20
sI759
g20
sI760
g20
sI761
g20
sI762
g20
sI763
g20
sI764
g20
sI765
g20
sI766
g20
sI767
g20
sI768
g20
sI769
g20
sI770
g20
sI771
g20
sI772
g20
sI773
g20
sI774
g20
sI775
g20
sI776
g20
sI777
g20
sI778
g20
sI779
g20
sI780
g20
sI781
g20
sI782
g20
sI783
g20
sI784
g20
sI785
g20
sI786
g20
sI787
g20
sI788
g20
sI789
g20
sI790
g20
sI791
g20
sI792
g20
sI793
g20
sI794
g20
sI795
g20
sI796
g20
sI797
g20
sI798
g20
sI799
g20
sI800
g20
sI801
g20
sI802
g20
sI803
g20
sI804
g20
sI805
g20
sI806
g20
sI807
g20
sI808
g20
sI809
g20
sI810
g20
sI811
g20
sI812
g20
sI813
g20
sI814
g20
sI815
g20
sI816
g20
sI817
g20
sI818
g20
sI819
g20
sI820
g20
sI821
g20
sI822
g20
sI823
g20
sI824
g20
sI825
g20
sI826
g20
sI827
g20
sI828
g20
sI829
g20
sI830
g20
sI831
g20
sI832
g20
sI833
g20
sI834
g20
sI835
g20
sI836
g20
sI837
g20
sI838
g20
sI839
g20
sI840
g20
sI841
g20
sI842
g20
sI843
g20
sI844
g20
sI845
g20
sI846
g20
sI847
g20
sI848
g20
sI849
g20
sI850
g20
sI851
g20
sI852
g20
sI853
g20
sI854
g20
sI855
g20
sI856
g20
sI857
g20
sI858
g20
sI859
g20
sI860
g20
sI861
g20
sI862
g20
sI863
g20
sI864
g20
sI865
g20
sI866
g20
sI867
g20
sI868
g20
sI869
g20
sI870
g20
sI871
g20
sI872
g20
sI873
g20
sI874
g20
sI875
g20
sI876
g20
sI877
g20
sI878
g20
sI879
g20
sI880
g20
sI881
g20
sI882
g20
sI883
g20
sI884
g20
sI885
g20
sI886
g20
sI887
g20
sI888
g20
sI889
g20
sI890
g20
sI891
g20
sI892
g20
sI893
g20
sI894
g20
sI895
g20
sI896
g20
sI897
g20
sI898
g20
sI899
g20
sI900
g20
sI901
g20
sI902
g20
sI903
g20
sI904
g20
sI905
g20
sI906
g20
sI907
g20
sI908
g20
sI909
g20
sI910
g20
sI911
g20
sI912
g20
sI913
g20
sI914
g20
sI915
g20
sI916
g20
sI917
g20
sI918
g20
sI919
g20
sI920
g20
sI921
g20
sI922
g20
sI923
g20
sI924
g20
sI925
g20
sI926
g20
sI927
g20
sI928
g20
sI929
g20
sI930
g20
sI931
g20
sI932
g20
sI933
g20
sI934
g20
sI935
g20
sI936
g20
sI937
g20
sI938
g20
sI939
g20
sI940
g20
sI941
g20
sI942
g20
sI943
g20
sI944
g20
sI945
g20
sI946
g20
sI947
g20
sI948
g20
sI949
g20
sI950
g20
sI951
g20
sI952
g20
sI953
g20
sI954
g20
sI955
g20
sI956
g20
sI957
g20
sI958
g20
sI959
g20
sI960
g20
sI961
g20
sI962
g20
sI963
g20
sI964
g20
sI965
g20
sI966
g20
sI967
g20
sI968
g20
sI969
g20
sI970
g20
sI971
g20
sI972
g20
sI973
g20
sI974
g20
sI975
g20
sI976
g20
sI977
g20
sI978
g20
sI979
g20
sI980
g20
sI981
g20
sI982
g20
sI983
g20
sI984
g20
sI985
g20
sI986
g20
sI987
g20
sI988
g20
sI989
g20
sI990
g20
sI991
g20
sI992
g20
sI993
g20
sI994
g20
sI995
g20
sI996
g20
sI997
g20
sI998
g20
sI999
g20
ss.