(dp0
F0.05
(dp1
I0
cnumpy.core.multiarray
scalar
p2
(cnumpy
dtype
p3
(S'f8'
p4
I0
I1
tp5
Rp6
(I3
S'<'
p7
NNNI-1
I-1
I0
tp8
bS'\x8e\xe38\x8e\xe38\xe6?'
p9
tp10
Rp11
sI1
g11
sI2
g11
sI3
g11
sI4
g11
sI5
g11
sI6
g2
(g6
S'\x9f\xe7y\x9e\xe7y\xe8?'
p12
tp13
Rp14
sI7
g14
sI8
g14
sI9
g14
sI10
g14
sI11
g14
sI12
g14
sI13
g14
sI14
g14
sI15
g14
sI16
g14
sI17
g14
sI18
g14
sI19
g14
sI20
g14
sI21
g14
sI22
g14
sI23
g14
sI24
g14
sI25
g14
sI26
g14
sI27
g14
sI28
g14
sI29
g14
sI30
g14
sI31
g14
sI32
g14
sI33
g14
sI34
g14
sI35
g14
sI36
g14
sI37
g14
sI38
g14
sI39
g14
sI40
g14
sI41
g14
sI42
g14
sI43
g14
sI44
g14
sI45
g14
sI46
g14
sI47
g14
sI48
g14
sI49
g14
sI50
g14
sI51
g14
sI52
g14
sI53
g14
sI54
g14
sI55
g14
sI56
g14
sI57
g14
sI58
g14
sI59
g14
sI60
g14
sI61
g14
sI62
g14
sI63
g14
sI64
g14
sI65
g14
sI66
g14
sI67
g14
sI68
g14
sI69
g14
sI70
g14
sI71
g14
sI72
g14
sI73
g14
sI74
g14
sI75
g14
sI76
g14
sI77
g14
sI78
g14
sI79
g14
sI80
g14
sI81
g14
sI82
g14
sI83
g14
sI84
g14
sI85
g14
sI86
g14
sI87
g14
sI88
g14
sI89
g14
sI90
g14
sI91
g14
sI92
g14
sI93
g14
sI94
g14
sI95
g14
sI96
g14
sI97
g14
sI98
g14
sI99
g14
sI100
g14
sI101
g14
sI102
g14
sI103
g14
sI104
g14
sI105
g14
sI106
g14
sI107
g14
sI108
g14
sI109
g14
sI110
g14
sI111
g14
sI112
g14
sI113
g14
sI114
g14
sI115
g14
sI116
g14
sI117
g14
sI118
g14
sI119
g14
sI120
g14
sI121
g14
sI122
g14
sI123
g14
sI124
g14
sI125
g14
sI126
g14
sI127
g14
sI128
g14
sI129
g14
sI130
g14
sI131
g14
sI132
g14
sI133
g14
sI134
g14
sI135
g14
sI136
g14
sI137
g14
sI138
g14
sI139
g14
sI140
g14
sI141
g14
sI142
g14
sI143
g14
sI144
g14
sI145
g14
sI146
g14
sI147
g14
sI148
g14
sI149
g14
sI150
g14
sI151
g14
sI152
g14
sI153
g2
(g6
S'\xcb\xb2,\xcb\xb2,\xeb?'
p15
tp16
Rp17
sI154
g17
sI155
g17
sI156
g17
sI157
g17
sI158
g17
sI159
g17
sI160
g17
sI161
g17
sI162
g17
sI163
g17
sI164
g17
sI165
g17
sI166
g17
sI167
g17
sI168
g17
sI169
g17
sI170
g17
sI171
g17
sI172
g17
sI173
g17
sI174
g17
sI175
g17
sI176
g17
sI177
g17
sI178
g17
sI179
g17
sI180
g17
sI181
g17
sI182
g17
sI183
g17
sI184
g17
sI185
g17
sI186
g17
sI187
g17
sI188
g17
sI189
g17
sI190
g17
sI191
g17
sI192
g17
sI193
g17
sI194
g17
sI195
g17
sI196
g17
sI197
g17
sI198
g17
sI199
g17
sI200
g17
sI201
g17
sI202
g17
sI203
g17
sI204
g17
sI205
g17
sI206
g17
sI207
g17
sI208
g17
sI209
g17
sI210
g17
sI211
g17
sI212
g17
sI213
g17
sI214
g17
sI215
g17
sI216
g17
sI217
g17
sI218
g17
sI219
g17
sI220
g17
sI221
g17
sI222
g17
sI223
g17
sI224
g17
sI225
g17
sI226
g17
sI227
g17
sI228
g17
sI229
g17
sI230
g17
sI231
g17
sI232
g17
sI233
g17
sI234
g17
sI235
g17
sI236
g17
sI237
g17
sI238
g17
sI239
g17
sI240
g17
sI241
g17
sI242
g17
sI243
g17
sI244
g17
sI245
g17
sI246
g17
sI247
g17
sI248
g17
sI249
g17
sI250
g17
sI251
g17
sI252
g17
sI253
g17
sI254
g17
sI255
g17
sI256
g17
sI257
g17
sI258
g17
sI259
g17
sI260
g17
sI261
g17
sI262
g17
sI263
g17
sI264
g17
sI265
g17
sI266
g17
sI267
g17
sI268
g17
sI269
g17
sI270
g17
sI271
g17
sI272
g17
sI273
g17
sI274
g17
sI275
g17
sI276
g17
sI277
g17
sI278
g17
sI279
g17
sI280
g17
sI281
g17
sI282
g17
sI283
g17
sI284
g17
sI285
g17
sI286
g17
sI287
g17
sI288
g17
sI289
g17
sI290
g17
sI291
g17
sI292
g17
sI293
g17
sI294
g17
sI295
g17
sI296
g17
sI297
g17
sI298
g17
sI299
g17
sI300
g17
sI301
g17
sI302
g17
sI303
g17
sI304
g17
sI305
g17
sI306
g17
sI307
g17
sI308
g17
sI309
g17
sI310
g17
sI311
g17
sI312
g17
sI313
g17
sI314
g17
sI315
g17
sI316
g17
sI317
g17
sI318
g17
sI319
g17
sI320
g17
sI321
g17
sI322
g17
sI323
g17
sI324
g17
sI325
g17
sI326
g17
sI327
g17
sI328
g17
sI329
g17
sI330
g17
sI331
g17
sI332
g17
sI333
g17
sI334
g17
sI335
g17
sI336
g17
sI337
g17
sI338
g17
sI339
g17
sI340
g17
sI341
g17
sI342
g17
sI343
g17
sI344
g17
sI345
g17
sI346
g17
sI347
g17
sI348
g17
sI349
g17
sI350
g17
sI351
g17
sI352
g17
sI353
g17
sI354
g17
sI355
g17
sI356
g17
sI357
g17
sI358
g17
sI359
g17
sI360
g17
sI361
g17
sI362
g17
sI363
g17
sI364
g17
sI365
g17
sI366
g17
sI367
g17
sI368
g17
sI369
g17
sI370
g17
sI371
g17
sI372
g17
sI373
g17
sI374
g17
sI375
g17
sI376
g17
sI377
g17
sI378
g17
sI379
g17
sI380
g17
sI381
g17
sI382
g17
sI383
g17
sI384
g17
sI385
g17
sI386
g17
sI387
g17
sI388
g17
sI389
g17
sI390
g17
sI391
g17
sI392
g17
sI393
g17
sI394
g17
sI395
g17
sI396
g17
sI397
g17
sI398
g17
sI399
g17
sI400
g17
sI401
g17
sI402
g17
sI403
g17
sI404
g17
sI405
g17
sI406
g17
sI407
g17
sI408
g17
sI409
g17
sI410
g17
sI411
g17
sI412
g17
sI413
g17
sI414
g17
sI415
g17
sI416
g17
sI417
g17
sI418
g17
sI419
g17
sI420
g17
sI421
g17
sI422
g17
sI423
g17
sI424
g17
sI425
g17
sI426
g17
sI427
g17
sI428
g17
sI429
g17
sI430
g17
sI431
g17
sI432
g17
sI433
g17
sI434
g17
sI435
g17
sI436
g17
sI437
g17
sI438
g17
sI439
g17
sI440
g17
sI441
g17
sI442
g17
sI443
g17
sI444
g17
sI445
g17
sI446
g17
sI447
g17
sI448
g17
sI449
g17
sI450
g17
sI451
g17
sI452
g17
sI453
g17
sI454
g17
sI455
g17
sI456
g17
sI457
g17
sI458
g17
sI459
g17
sI460
g17
sI461
g17
sI462
g17
sI463
g17
sI464
g17
sI465
g17
sI466
g17
sI467
g17
sI468
g17
sI469
g17
sI470
g17
sI471
g17
sI472
g17
sI473
g17
sI474
g17
sI475
g17
sI476
g17
sI477
g17
sI478
g17
sI479
g17
sI480
g17
sI481
g17
sI482
g17
sI483
g17
sI484
g17
sI485
g17
sI486
g17
sI487
g17
sI488
g17
sI489
g17
sI490
g17
sI491
g17
sI492
g17
sI493
g17
sI494
g17
sI495
g17
sI496
g17
sI497
g17
sI498
g17
sI499
g17
sI500
g17
sI501
g17
sI502
g17
sI503
g17
sI504
g17
sI505
g17
sI506
g17
sI507
g17
sI508
g17
sI509
g17
sI510
g17
sI511
g17
sI512
g17
sI513
g17
sI514
g17
sI515
g17
sI516
g17
sI517
g17
sI518
g17
sI519
g17
sI520
g17
sI521
g17
sI522
g17
sI523
g17
sI524
g17
sI525
g17
sI526
g17
sI527
g17
sI528
g17
sI529
g17
sI530
g17
sI531
g17
sI532
g17
sI533
g17
sI534
g17
sI535
g17
sI536
g17
sI537
g17
sI538
g17
sI539
g17
sI540
g17
sI541
g17
sI542
g17
sI543
g17
sI544
g17
sI545
g17
sI546
g17
sI547
g17
sI548
g17
sI549
g17
sI550
g17
sI551
g17
sI552
g17
sI553
g17
sI554
g17
sI555
g17
sI556
g17
sI557
g17
sI558
g17
sI559
g17
sI560
g17
sI561
g17
sI562
g17
sI563
g17
sI564
g17
sI565
g17
sI566
g17
sI567
g17
sI568
g17
sI569
g17
sI570
g17
sI571
g17
sI572
g17
sI573
g17
sI574
g17
sI575
g17
sI576
g17
sI577
g17
sI578
g17
sI579
g17
sI580
g17
sI581
g17
sI582
g17
sI583
g17
sI584
g17
sI585
g17
sI586
g17
sI587
g17
sI588
g17
sI589
g17
sI590
g17
sI591
g17
sI592
g17
sI593
g17
sI594
g17
sI595
g17
sI596
g17
sI597
g17
sI598
g17
sI599
g17
sI600
g17
sI601
g17
sI602
g17
sI603
g17
sI604
g17
sI605
g17
sI606
g17
sI607
g17
sI608
g17
sI609
g17
sI610
g17
sI611
g17
sI612
g17
sI613
g17
sI614
g17
sI615
g17
sI616
g17
sI617
g17
sI618
g17
sI619
g17
sI620
g17
sI621
g17
sI622
g17
sI623
g17
sI624
g17
sI625
g17
sI626
g17
sI627
g17
sI628
g17
sI629
g17
sI630
g17
sI631
g17
sI632
g17
sI633
g17
sI634
g17
sI635
g17
sI636
g17
sI637
g17
sI638
g17
sI639
g17
sI640
g17
sI641
g17
sI642
g17
sI643
g17
sI644
g17
sI645
g17
sI646
g17
sI647
g17
sI648
g17
sI649
g17
sI650
g17
sI651
g17
sI652
g17
sI653
g17
sI654
g17
sI655
g17
sI656
g17
sI657
g17
sI658
g17
sI659
g17
sI660
g17
sI661
g17
sI662
g17
sI663
g17
sI664
g17
sI665
g17
sI666
g17
sI667
g17
sI668
g17
sI669
g17
sI670
g17
sI671
g17
sI672
g17
sI673
g17
sI674
g17
sI675
g17
sI676
g17
sI677
g17
sI678
g17
sI679
g17
sI680
g17
sI681
g17
sI682
g17
sI683
g17
sI684
g17
sI685
g17
sI686
g17
sI687
g17
sI688
g17
sI689
g17
sI690
g17
sI691
g17
sI692
g17
sI693
g17
sI694
g17
sI695
g17
sI696
g17
sI697
g17
sI698
g17
sI699
g17
sI700
g17
sI701
g17
sI702
g17
sI703
g17
sI704
g17
sI705
g17
sI706
g17
sI707
g17
sI708
g17
sI709
g17
sI710
g17
sI711
g17
sI712
g17
sI713
g17
sI714
g17
sI715
g17
sI716
g17
sI717
g17
sI718
g17
sI719
g17
sI720
g17
sI721
g17
sI722
g17
sI723
g17
sI724
g17
sI725
g17
sI726
g17
sI727
g17
sI728
g17
sI729
g17
sI730
g17
sI731
g17
sI732
g17
sI733
g17
sI734
g17
sI735
g17
sI736
g17
sI737
g17
sI738
g17
sI739
g17
sI740
g17
sI741
g17
sI742
g17
sI743
g17
sI744
g17
sI745
g17
sI746
g17
sI747
g17
sI748
g17
sI749
g17
sI750
g17
sI751
g17
sI752
g17
sI753
g17
sI754
g17
sI755
g17
sI756
g17
sI757
g17
sI758
g17
sI759
g17
sI760
g17
sI761
g17
sI762
g17
sI763
g17
sI764
g17
sI765
g17
sI766
g17
sI767
g17
sI768
g17
sI769
g17
sI770
g17
sI771
g17
sI772
g17
sI773
g17
sI774
g17
sI775
g17
sI776
g17
sI777
g17
sI778
g17
sI779
g17
sI780
g17
sI781
g17
sI782
g17
sI783
g17
sI784
g17
sI785
g17
sI786
g17
sI787
g17
sI788
g17
sI789
g17
sI790
g17
sI791
g17
sI792
g17
sI793
g17
sI794
g17
sI795
g17
sI796
g17
sI797
g17
sI798
g17
sI799
g17
sI800
g17
sI801
g17
sI802
g17
sI803
g17
sI804
g17
sI805
g17
sI806
g17
sI807
g17
sI808
g17
sI809
g17
sI810
g17
sI811
g17
sI812
g17
sI813
g17
sI814
g17
sI815
g17
sI816
g17
sI817
g17
sI818
g17
sI819
g17
sI820
g17
sI821
g17
sI822
g17
sI823
g17
sI824
g17
sI825
g17
sI826
g17
sI827
g17
sI828
g17
sI829
g17
sI830
g17
sI831
g17
sI832
g17
sI833
g17
sI834
g17
sI835
g17
sI836
g17
sI837
g17
sI838
g17
sI839
g17
sI840
g17
sI841
g17
sI842
g17
sI843
g17
sI844
g17
sI845
g17
sI846
g17
sI847
g17
sI848
g17
sI849
g17
sI850
g17
sI851
g17
sI852
g17
sI853
g17
sI854
g17
sI855
g17
sI856
g17
sI857
g17
sI858
g17
sI859
g17
sI860
g17
sI861
g17
sI862
g17
sI863
g17
sI864
g17
sI865
g17
sI866
g17
sI867
g17
sI868
g17
sI869
g17
sI870
g17
sI871
g17
sI872
g17
sI873
g17
sI874
g17
sI875
g17
sI876
g17
sI877
g17
sI878
g17
sI879
g17
sI880
g17
sI881
g17
sI882
g17
sI883
g17
sI884
g17
sI885
g17
sI886
g17
sI887
g17
sI888
g17
sI889
g17
sI890
g17
sI891
g17
sI892
g17
sI893
g17
sI894
g17
sI895
g17
sI896
g17
sI897
g17
sI898
g17
sI899
g17
sI900
g17
sI901
g17
sI902
g17
sI903
g17
sI904
g17
sI905
g17
sI906
g17
sI907
g17
sI908
g17
sI909
g17
sI910
g17
sI911
g17
sI912
g17
sI913
g17
sI914
g17
sI915
g17
sI916
g17
sI917
g17
sI918
g17
sI919
g17
sI920
g17
sI921
g17
sI922
g17
sI923
g17
sI924
g17
sI925
g17
sI926
g17
sI927
g17
sI928
g17
sI929
g17
sI930
g17
sI931
g17
sI932
g17
sI933
g17
sI934
g17
sI935
g17
sI936
g17
sI937
g17
sI938
g17
sI939
g17
sI940
g17
sI941
g17
sI942
g17
sI943
g17
sI944
g17
sI945
g17
sI946
g17
sI947
g17
sI948
g17
sI949
g17
sI950
g17
sI951
g17
sI952
g17
sI953
g17
sI954
g17
sI955
g17
sI956
g17
sI957
g17
sI958
g17
sI959
g17
sI960
g17
sI961
g17
sI962
g17
sI963
g17
sI964
g17
sI965
g17
sI966
g17
sI967
g17
sI968
g17
sI969
g17
sI970
g17
sI971
g17
sI972
g17
sI973
g17
sI974
g17
sI975
g17
sI976
g17
sI977
g17
sI978
g17
sI979
g17
sI980
g17
sI981
g17
sI982
g17
sI983
g17
sI984
g17
sI985
g17
sI986
g17
sI987
g17
sI988
g17
sI989
g17
sI990
g17
sI991
g17
sI992
g17
sI993
g17
sI994
g17
sI995
g17
sI996
g17
sI997
g17
sI998
g17
sI999
g17
ss.