(dp0
F0.1
(lp1
F4.716
aF5.229
asS'temp'
p2
(dp3
F0.1
(lp4
F0.581
aF0.581
aF0.581
aF0.581
aF0.581
aF0.581
aF0.581
aF0.581
aF0.581
aF0.581
asF0.2
(lp5
F0.581
aF0.581
aF0.581
aF0.581
aF0.581
aF0.581
aF0.581
aF0.581
aF0.581
aF0.581
asF0.05
(lp6
F0.581
aF0.581
aF0.581
aF0.581
aF0.581
aF0.581
aF0.581
aF0.581
aF0.581
aF0.581
asF0.025
(lp7
F0.581
aF0.581
aF0.581
aF0.581
aF0.581
aF0.581
aF0.581
aF0.581
aF0.581
aF0.581
assF0.2
(lp8
F4.716
aF5.229
asF0.05
(lp9
F5.074
aF5.229
asF0.025
(lp10
F5.129
aF5.229
as.